 S3Relay

 Timestamp is 6817d50c (Mon May 05 03:58:52 2025)

 Preferred load address is 00400000

 Start         Length     Name                   Class
 0001:00000000 000c58dcH .text                   CODE
 0001:000c58e0 00004f4aH .text$x                 CODE
 0002:00000000 00000294H .idata$5                DATA
 0002:00000298 00003e3cH .rdata                  DATA
 0002:000040d8 00000434H .rdata$r                DATA
 0002:00004510 00006db0H .xdata$x                DATA
 0002:0000b2c0 00000064H .idata$2                DATA
 0002:0000b324 00000014H .idata$3                DATA
 0002:0000b338 00000294H .idata$4                DATA
 0002:0000b5cc 00000bc4H .idata$6                DATA
 0002:0000c190 00000000H .edata                  DATA
 0003:00000000 00000004H .CRT$XCA                DATA
 0003:00000004 00000070H .CRT$XCU                DATA
 0003:00000074 00000004H .CRT$XCZ                DATA
 0003:00000078 00000004H .CRT$XIA                DATA
 0003:0000007c 0000000cH .CRT$XIC                DATA
 0003:00000088 00000004H .CRT$XIY                DATA
 0003:0000008c 00000004H .CRT$XIZ                DATA
 0003:00000090 00000004H .CRT$XPA                DATA
 0003:00000094 00000004H .CRT$XPX                DATA
 0003:00000098 00000004H .CRT$XPZ                DATA
 0003:0000009c 00000004H .CRT$XTA                DATA
 0003:000000a0 00000004H .CRT$XTB                DATA
 0003:000000a4 00000004H .CRT$XTZ                DATA
 0003:000000b0 0000d4acH .data                   DATA
 0003:0000d560 0025a628H .bss                    DATA
 0004:00000000 00000280H .rsrc$01                DATA
 0004:00000280 00000bc0H .rsrc$02                DATA

  Address         Publics by Value              Rva+Base     Lib:Object

 0001:00000000       ??0CChannelMgr@@QAE@XZ     00401000 f   ChannelMgr.obj
 0001:00000140       ??_ECChannelMgr@@UAEPAXI@Z 00401140 f i ChannelMgr.obj
 0001:00000140       ??_GCChannelMgr@@UAEPAXI@Z 00401140 f i ChannelMgr.obj
 0001:00000160       ??1?$map@KUCHANNINFO@CChannelMgr@@U?$less@K@_STL@@V?$allocator@U?$pair@$$CBKUCHANNINFO@CChannelMgr@@@_STL@@@4@@_STL@@QAE@XZ 00401160 f i ChannelMgr.obj
 0001:00000210       ??1?$map@V?$basic_string@DV?$char_traits@D@_STL@@V?$allocator@D@2@@_STL@@KU_tstring_less@@V?$allocator@U?$pair@$$CBV?$basic_string@DV?$char_traits@D@_STL@@V?$allocator@D@2@@_STL@@K@_STL@@@2@@_STL@@QAE@XZ 00401210 f i ChannelMgr.obj
 0001:000002c0       ??1?$map@KV?$list@PAU_BLOCKCHANNELOP@CChannelMgr@@V?$allocator@PAU_BLOCKCHANNELOP@CChannelMgr@@@_STL@@@_STL@@U?$less@K@2@V?$allocator@U?$pair@$$CBKV?$list@PAU_BLOCKCHANNELOP@CChannelMgr@@V?$allocator@PAU_BLOCKCHANNELOP@CChannelMgr@@@_STL@@@_STL@@@_STL@@@2@@_STL@@QAE@XZ 004012c0 f i ChannelMgr.obj
 0001:00000370       ??1CChannelMgr@@UAE@XZ     00401370 f   ChannelMgr.obj
 0001:000004f0       ?Initialize@CChannelMgr@@QAEHXZ 004014f0 f   ChannelMgr.obj
 0001:00000c10       ??R_tstring_less@@QBE_NABV?$basic_string@DV?$char_traits@D@_STL@@V?$allocator@D@2@@_STL@@0@Z 00401c10 f i ChannelMgr.obj
 0001:00000c50       ?Uninitialize@CChannelMgr@@QAEHXZ 00401c50 f   ChannelMgr.obj
 0001:00000d50       ?GenChannID@CChannelMgr@@AAEKXZ 00401d50 f   ChannelMgr.obj
 0001:00000d90       ?GetChannelName@CChannelMgr@@QAE?AV?$basic_string@DV?$char_traits@D@_STL@@V?$allocator@D@2@@_STL@@KH@Z 00401d90 f   ChannelMgr.obj
 0001:00000f30       ?GetChannelID@CChannelMgr@@QAEKABV?$basic_string@DV?$char_traits@D@_STL@@V?$allocator@D@2@@_STL@@K@Z 00401f30 f   ChannelMgr.obj
 0001:00001080       ?IsSubscribed@CChannelMgr@@QAEHKKK@Z 00402080 f   ChannelMgr.obj
 0001:000010e0       ?GmSubscribe@CChannelMgr@@QAEHK@Z 004020e0 f   ChannelMgr.obj
 0001:00001150       ?GmUnsubscribe@CChannelMgr@@QAEHK@Z 00402150 f   ChannelMgr.obj
 0001:000011c0       ?IsGmSubscribed@CChannelMgr@@QAEHK@Z 004021c0 f   ChannelMgr.obj
 0001:00001220       ?GmQueryChannelID@CChannelMgr@@QAEHABV?$basic_string@DV?$char_traits@D@_STL@@V?$allocator@D@2@@_STL@@H@Z 00402220 f   ChannelMgr.obj
 0001:000013f0       ?GmFreeChannID@CChannelMgr@@QAEHK@Z 004023f0 f   ChannelMgr.obj
 0001:000014d0       ?IsUsed@CChannelMgr@@QAEHKKK@Z 004024d0 f   ChannelMgr.obj
 0001:00001540       ?IsGmUsed@CChannelMgr@@QAEHK@Z 00402540 f   ChannelMgr.obj
 0001:00001590       ?MakeChannelName@CChannelMgr@@QAE?AV?$basic_string@DV?$char_traits@D@_STL@@V?$allocator@D@2@@_STL@@ABV23@K@Z 00402590 f   ChannelMgr.obj
 0001:00001b40       ?ReduceChannelName@CChannelMgr@@QAE?AV?$basic_string@DV?$char_traits@D@_STL@@V?$allocator@D@2@@_STL@@ABV23@@Z 00402b40 f   ChannelMgr.obj
 0001:00001da0       ?ParseChannelName@CChannelMgr@@QAEKABV?$basic_string@DV?$char_traits@D@_STL@@V?$allocator@D@2@@_STL@@PAK@Z 00402da0 f   ChannelMgr.obj
 0001:00001fe0       ?GainPreCost@CChannelMgr@@QAEEABV?$basic_string@DV?$char_traits@D@_STL@@V?$allocator@D@2@@_STL@@@Z 00402fe0 f   ChannelMgr.obj
 0001:00002040       ?GetGMChannID@CChannelMgr@@QAEKXZ 00403040 f   ChannelMgr.obj
 0001:00002050       ?IsGodChannel@CChannelMgr@@QAEHK@Z 00403050 f   ChannelMgr.obj
 0001:00002080       ?IsStockChannel@CChannelMgr@@QAEHK@Z 00403080 f   ChannelMgr.obj
 0001:000020b0       ?PassToSpecMan@CChannelMgr@@AAEHKKKPBXI@Z 004030b0 f   ChannelMgr.obj
 0001:00002180       ??1CNetConnectDup@@UAE@XZ  00403180 f i ChannelMgr.obj
 0001:000021a0       ??_ECNetConnectDup@@UAEPAXI@Z 004031a0 f i ChannelMgr.obj
 0001:000021a0       ??_GCNetConnectDup@@UAEPAXI@Z 004031a0 f i ChannelMgr.obj
 0001:000021e0       ?PassToGroupMan@CChannelMgr@@AAEHKHABV?$list@UtagPlusSrcInfo@@V?$allocator@UtagPlusSrcInfo@@@_STL@@@_STL@@PBXI@Z 004031e0 f   ChannelMgr.obj
 0001:00002380       ?PassToGM@CChannelMgr@@AAEHPBXI@Z 00403380 f   ChannelMgr.obj
 0001:000023f0       ?IsValidTeamID@CChannelMgr@@AAEHK@Z 004033f0 f   ChannelMgr.obj
 0001:00002420       ?IsValidFacID@CChannelMgr@@AAEHK@Z 00403420 f   ChannelMgr.obj
 0001:00002450       ?IsValidTongID@CChannelMgr@@AAEHK@Z 00403450 f   ChannelMgr.obj
 0001:00002480       ?SomeoneChat@CChannelMgr@@QAEHKABUtagPlusSrcInfo@@PBUCHAT_SOMEONECHAT_CMD@@@Z 00403480 f   ChannelMgr.obj
 0001:00002770       ?ChannelChat@CChannelMgr@@QAEHKABUtagPlusSrcInfo@@PBUCHAT_CHANNELCHAT_CMD@@@Z 00403770 f   ChannelMgr.obj
 0001:00002de0       ?IsNeedRelegate@CChannelMgr@@AAEHABV?$basic_string@DV?$char_traits@D@_STL@@V?$allocator@D@2@@_STL@@H@Z 00403de0 f   ChannelMgr.obj
 0001:00002e20       ?QueryChannelID@CChannelMgr@@QAEHABV?$basic_string@DV?$char_traits@D@_STL@@V?$allocator@D@2@@_STL@@KKK@Z 00403e20 f   ChannelMgr.obj
 0001:00002e30       ?Subscribe@CChannelMgr@@QAEHKKK@Z 00403e30 f   ChannelMgr.obj
 0001:00002e40       ?Unsubscribe@CChannelMgr@@QAEHKKK@Z 00403e40 f   ChannelMgr.obj
 0001:00002e50       ?FreeChannID@CChannelMgr@@QAEHKKK@Z 00403e50 f   ChannelMgr.obj
 0001:00002e60       ?ClearPlayer@CChannelMgr@@QAEHKK@Z 00403e60 f   ChannelMgr.obj
 0001:00002e70       ?DoBlockOp@CChannelMgr@@QAEKK@Z 00403e70 f   ChannelMgr.obj
 0001:00002e80       ?Block_QueryChannelID@CChannelMgr@@AAEHABV?$basic_string@DV?$char_traits@D@_STL@@V?$allocator@D@2@@_STL@@KKK@Z 00403e80 f   ChannelMgr.obj
 0001:00003350       ?Block_Subscribe@CChannelMgr@@AAEHKKK@Z 00404350 f   ChannelMgr.obj
 0001:00003410       ?Block_Unsubscribe@CChannelMgr@@AAEHKKK@Z 00404410 f   ChannelMgr.obj
 0001:000034a0       ?Block_FreeChannID@CChannelMgr@@AAEHKKK@Z 004044a0 f   ChannelMgr.obj
 0001:00003670       ?Block_ClearPlayer@CChannelMgr@@AAEHKK@Z 00404670 f   ChannelMgr.obj
 0001:000037d0       ?B_QueryChannelID@CChannelMgr@@QAEHABV?$basic_string@DV?$char_traits@D@_STL@@V?$allocator@D@2@@_STL@@KKK@Z 004047d0 f   ChannelMgr.obj
 0001:000037f0       ?B_Subscribe@CChannelMgr@@QAEHKKK@Z 004047f0 f   ChannelMgr.obj
 0001:00003810       ?B_Unsubscribe@CChannelMgr@@QAEHKKK@Z 00404810 f   ChannelMgr.obj
 0001:00003830       ?B_FreeChannID@CChannelMgr@@QAEHKKK@Z 00404830 f   ChannelMgr.obj
 0001:00003850       ?B_ClearPlayer@CChannelMgr@@QAEHKK@Z 00404850 f   ChannelMgr.obj
 0001:00003870       ?GetChannelCount@CChannelMgr@@QAEIXZ 00404870 f   ChannelMgr.obj
 0001:00003880       ?SayOnSomeone@CChannelMgr@@QAEHKKKABV?$basic_string@DV?$char_traits@D@_STL@@V?$allocator@D@2@@_STL@@0@Z 00404880 f   ChannelMgr.obj
 0001:000039d0       ?SayOnChannel@CChannelMgr@@QAEHKHABV?$basic_string@DV?$char_traits@D@_STL@@V?$allocator@D@2@@_STL@@00@Z 004049d0 f   ChannelMgr.obj
 0001:00003ec0       ??1?$basic_string@DV?$char_traits@D@_STL@@V?$allocator@D@2@@_STL@@QAE@XZ 00404ec0 f i ChannelMgr.obj
 0001:00003f30       ??1?$allocator@D@_STL@@QAE@XZ 00404f30 f i ChannelMgr.obj
 0001:00003f40       ??A?$map@KV?$map@KUPLAYERINFO@CChannelMgr@@U?$less@K@_STL@@V?$allocator@U?$pair@$$CBKUPLAYERINFO@CChannelMgr@@@_STL@@@4@@_STL@@U?$less@K@2@V?$allocator@U?$pair@$$CBKV?$map@KUPLAYERINFO@CChannelMgr@@U?$less@K@_STL@@V?$allocator@U?$pair@$$CBKUPLAYERINFO@CChannelMgr@@@_STL@@@4@@_STL@@@_STL@@@2@@_STL@@QAEAAV?$map@KUPLAYERINFO@CChannelMgr@@U?$less@K@_STL@@V?$allocator@U?$pair@$$CBKUPLAYERINFO@CChannelMgr@@@_STL@@@4@@1@ABK@Z 00404f40 f i ChannelMgr.obj
 0001:00004090       ?erase@?$map@KV?$map@KUPLAYERINFO@CChannelMgr@@U?$less@K@_STL@@V?$allocator@U?$pair@$$CBKUPLAYERINFO@CChannelMgr@@@_STL@@@4@@_STL@@U?$less@K@2@V?$allocator@U?$pair@$$CBKV?$map@KUPLAYERINFO@CChannelMgr@@U?$less@K@_STL@@V?$allocator@U?$pair@$$CBKUPLAYERINFO@CChannelMgr@@@_STL@@@4@@_STL@@@_STL@@@2@@_STL@@QAEXU?$_Rb_tree_iterator@U?$pair@$$CBKV?$map@KUPLAYERINFO@CChannelMgr@@U?$less@K@_STL@@V?$allocator@U?$pair@$$CBKUPLAYERINFO@CChannelMgr@@@_STL@@@4@@_STL@@@_STL@@U?$_Nonconst_traits@U?$pair@$$CBKV?$map@KUPLAYERINFO@CChannelMgr@@U?$less@K@_STL@@V?$allocator@U?$pair@$$CBKUPLAYERINFO@CChannelMgr@@@_STL@@@4@@_STL@@@_STL@@@2@@2@@Z 00405090 f i ChannelMgr.obj
 0001:000040b0       ??0?$_Rb_tree_iterator@U?$pair@$$CBKV?$map@KUPLAYERINFO@CChannelMgr@@U?$less@K@_STL@@V?$allocator@U?$pair@$$CBKUPLAYERINFO@CChannelMgr@@@_STL@@@4@@_STL@@@_STL@@U?$_Nonconst_traits@U?$pair@$$CBKV?$map@KUPLAYERINFO@CChannelMgr@@U?$less@K@_STL@@V?$allocator@U?$pair@$$CBKUPLAYERINFO@CChannelMgr@@@_STL@@@4@@_STL@@@_STL@@@2@@_STL@@QAE@ABU01@@Z 004050b0 f i ChannelMgr.obj
 0001:000040c0       ??A?$map@KUCHANNINFO@CChannelMgr@@U?$less@K@_STL@@V?$allocator@U?$pair@$$CBKUCHANNINFO@CChannelMgr@@@_STL@@@4@@_STL@@QAEAAUCHANNINFO@CChannelMgr@@ABK@Z 004050c0 f i ChannelMgr.obj
 0001:00004270       ?erase@?$map@KUCHANNINFO@CChannelMgr@@U?$less@K@_STL@@V?$allocator@U?$pair@$$CBKUCHANNINFO@CChannelMgr@@@_STL@@@4@@_STL@@QAEXU?$_Rb_tree_iterator@U?$pair@$$CBKUCHANNINFO@CChannelMgr@@@_STL@@U?$_Nonconst_traits@U?$pair@$$CBKUCHANNINFO@CChannelMgr@@@_STL@@@2@@2@@Z 00405270 f i ChannelMgr.obj
 0001:00004290       ??0?$_Rb_tree_iterator@U?$pair@$$CBKUCHANNINFO@CChannelMgr@@@_STL@@U?$_Nonconst_traits@U?$pair@$$CBKUCHANNINFO@CChannelMgr@@@_STL@@@2@@_STL@@QAE@ABU01@@Z 00405290 f i ChannelMgr.obj
 0001:000042a0       ??A?$map@V?$basic_string@DV?$char_traits@D@_STL@@V?$allocator@D@2@@_STL@@KU_tstring_less@@V?$allocator@U?$pair@$$CBV?$basic_string@DV?$char_traits@D@_STL@@V?$allocator@D@2@@_STL@@K@_STL@@@2@@_STL@@QAEAAKABV?$basic_string@DV?$char_traits@D@_STL@@V?$allocator@D@2@@1@@Z 004052a0 f i ChannelMgr.obj
 0001:000043b0       ??1?$allocator@UBLOCKCHANNELOP_QID@CChannelMgr@@@_STL@@QAE@XZ 004053b0 f i ChannelMgr.obj
 0001:000043c0       ??1?$allocator@UBLOCKCHANNELOP_CMN@CChannelMgr@@@_STL@@QAE@XZ 004053c0 f i ChannelMgr.obj
 0001:000043d0       ??1?$allocator@UBLOCKCHANNELOP_CLR@CChannelMgr@@@_STL@@QAE@XZ 004053d0 f i ChannelMgr.obj
 0001:000043e0       ??A?$map@KUPLAYERINFO@CChannelMgr@@U?$less@K@_STL@@V?$allocator@U?$pair@$$CBKUPLAYERINFO@CChannelMgr@@@_STL@@@4@@_STL@@QAEAAUPLAYERINFO@CChannelMgr@@ABK@Z 004053e0 f i ChannelMgr.obj
 0001:00004450       ??1?$list@UtagPlusSrcInfo@@V?$allocator@UtagPlusSrcInfo@@@_STL@@@_STL@@QAE@XZ 00405450 f i ChannelMgr.obj
 0001:000044c0       ??1?$allocator@UtagPlusSrcInfo@@@_STL@@QAE@XZ 004054c0 f i ChannelMgr.obj
 0001:000044d0       ??1?$map@KUPLAYERINFO@CChannelMgr@@U?$less@K@_STL@@V?$allocator@U?$pair@$$CBKUPLAYERINFO@CChannelMgr@@@_STL@@@4@@_STL@@QAE@XZ 004054d0 f i ChannelMgr.obj
 0001:00004570       ??1?$pair@$$CBKV?$map@KUPLAYERINFO@CChannelMgr@@U?$less@K@_STL@@V?$allocator@U?$pair@$$CBKUPLAYERINFO@CChannelMgr@@@_STL@@@4@@_STL@@@_STL@@QAE@XZ 00405570 f i ChannelMgr.obj
 0001:00004610       ??1CHANNINFO@CChannelMgr@@QAE@XZ 00405610 f i ChannelMgr.obj
 0001:00004710       ??1?$pair@$$CBKUCHANNINFO@CChannelMgr@@@_STL@@QAE@XZ 00405710 f i ChannelMgr.obj
 0001:00004810       ??1?$pair@$$CBV?$basic_string@DV?$char_traits@D@_STL@@V?$allocator@D@2@@_STL@@K@_STL@@QAE@XZ 00405810 f i ChannelMgr.obj
 0001:00004880       ?push_back@?$basic_string@DV?$char_traits@D@_STL@@V?$allocator@D@2@@_STL@@QAEXD@Z 00405880 f i ChannelMgr.obj
 0001:000048e0       ??0?$_String_base@DV?$allocator@D@_STL@@@_STL@@QAE@ABV?$allocator@D@1@@Z 004058e0 f i ChannelMgr.obj
 0001:000048f0       ??1?$_String_base@DV?$allocator@D@_STL@@@_STL@@QAE@XZ 004058f0 f i ChannelMgr.obj
 0001:00004960       ?insert@?$map@KV?$map@KUPLAYERINFO@CChannelMgr@@U?$less@K@_STL@@V?$allocator@U?$pair@$$CBKUPLAYERINFO@CChannelMgr@@@_STL@@@4@@_STL@@U?$less@K@2@V?$allocator@U?$pair@$$CBKV?$map@KUPLAYERINFO@CChannelMgr@@U?$less@K@_STL@@V?$allocator@U?$pair@$$CBKUPLAYERINFO@CChannelMgr@@@_STL@@@4@@_STL@@@_STL@@@2@@_STL@@QAE?AU?$_Rb_tree_iterator@U?$pair@$$CBKV?$map@KUPLAYERINFO@CChannelMgr@@U?$less@K@_STL@@V?$allocator@U?$pair@$$CBKUPLAYERINFO@CChannelMgr@@@_STL@@@4@@_STL@@@_STL@@U?$_Nonconst_traits@U?$pair@$$CBKV?$map@KUPLAYERINFO@CChannelMgr@@U?$less@K@_STL@@V?$allocator@U?$pair@$$CBKUPLAYERINFO@CChannelMgr@@@_STL@@@4@@_STL@@@_STL@@@2@@2@U32@ABU?$pair@$$CBKV?$map@KUPLAYERINFO@CChannelMgr@@U?$less@K@_STL@@V?$allocator@U?$pair@$$CBKUPLAYERINFO@CChannelMgr@@@_STL@@@4@@_STL@@@2@@Z 00405960 f i ChannelMgr.obj
 0001:00004990       ?erase@?$_Rb_tree@KU?$pair@$$CBKV?$map@KUPLAYERINFO@CChannelMgr@@U?$less@K@_STL@@V?$allocator@U?$pair@$$CBKUPLAYERINFO@CChannelMgr@@@_STL@@@4@@_STL@@@_STL@@U?$_Select1st@U?$pair@$$CBKV?$map@KUPLAYERINFO@CChannelMgr@@U?$less@K@_STL@@V?$allocator@U?$pair@$$CBKUPLAYERINFO@CChannelMgr@@@_STL@@@4@@_STL@@@_STL@@@2@U?$less@K@2@V?$allocator@U?$pair@$$CBKV?$map@KUPLAYERINFO@CChannelMgr@@U?$less@K@_STL@@V?$allocator@U?$pair@$$CBKUPLAYERINFO@CChannelMgr@@@_STL@@@4@@_STL@@@_STL@@@2@@_STL@@QAEXU?$_Rb_tree_iterator@U?$pair@$$CBKV?$map@KUPLAYERINFO@CChannelMgr@@U?$less@K@_STL@@V?$allocator@U?$pair@$$CBKUPLAYERINFO@CChannelMgr@@@_STL@@@4@@_STL@@@_STL@@U?$_Nonconst_traits@U?$pair@$$CBKV?$map@KUPLAYERINFO@CChannelMgr@@U?$less@K@_STL@@V?$allocator@U?$pair@$$CBKUPLAYERINFO@CChannelMgr@@@_STL@@@4@@_STL@@@_STL@@@2@@2@@Z 00405990 f i ChannelMgr.obj
 0001:000049e0       ?insert@?$map@KUCHANNINFO@CChannelMgr@@U?$less@K@_STL@@V?$allocator@U?$pair@$$CBKUCHANNINFO@CChannelMgr@@@_STL@@@4@@_STL@@QAE?AU?$_Rb_tree_iterator@U?$pair@$$CBKUCHANNINFO@CChannelMgr@@@_STL@@U?$_Nonconst_traits@U?$pair@$$CBKUCHANNINFO@CChannelMgr@@@_STL@@@2@@2@U32@ABU?$pair@$$CBKUCHANNINFO@CChannelMgr@@@2@@Z 004059e0 f i ChannelMgr.obj
 0001:00004a10       ?lower_bound@?$map@KUCHANNINFO@CChannelMgr@@U?$less@K@_STL@@V?$allocator@U?$pair@$$CBKUCHANNINFO@CChannelMgr@@@_STL@@@4@@_STL@@QAE?AU?$_Rb_tree_iterator@U?$pair@$$CBKUCHANNINFO@CChannelMgr@@@_STL@@U?$_Nonconst_traits@U?$pair@$$CBKUCHANNINFO@CChannelMgr@@@_STL@@@2@@2@ABK@Z 00405a10 f i ChannelMgr.obj
 0001:00004a50       ?erase@?$_Rb_tree@KU?$pair@$$CBKUCHANNINFO@CChannelMgr@@@_STL@@U?$_Select1st@U?$pair@$$CBKUCHANNINFO@CChannelMgr@@@_STL@@@2@U?$less@K@2@V?$allocator@U?$pair@$$CBKUCHANNINFO@CChannelMgr@@@_STL@@@2@@_STL@@QAEXU?$_Rb_tree_iterator@U?$pair@$$CBKUCHANNINFO@CChannelMgr@@@_STL@@U?$_Nonconst_traits@U?$pair@$$CBKUCHANNINFO@CChannelMgr@@@_STL@@@2@@2@@Z 00405a50 f i ChannelMgr.obj
 0001:00004aa0       ??1?$_Rb_tree_base@U?$pair@$$CBKUCHANNINFO@CChannelMgr@@@_STL@@V?$allocator@U?$pair@$$CBKUCHANNINFO@CChannelMgr@@@_STL@@@2@@_STL@@QAE@XZ 00405aa0 f i ChannelMgr.obj
 0001:00004af0       ??1?$allocator@U?$pair@$$CBKUCHANNINFO@CChannelMgr@@@_STL@@@_STL@@QAE@XZ 00405af0 f i ChannelMgr.obj
 0001:00004b00       ?insert@?$map@V?$basic_string@DV?$char_traits@D@_STL@@V?$allocator@D@2@@_STL@@KU_tstring_less@@V?$allocator@U?$pair@$$CBV?$basic_string@DV?$char_traits@D@_STL@@V?$allocator@D@2@@_STL@@K@_STL@@@2@@_STL@@QAE?AU?$_Rb_tree_iterator@U?$pair@$$CBV?$basic_string@DV?$char_traits@D@_STL@@V?$allocator@D@2@@_STL@@K@_STL@@U?$_Nonconst_traits@U?$pair@$$CBV?$basic_string@DV?$char_traits@D@_STL@@V?$allocator@D@2@@_STL@@K@_STL@@@2@@2@U32@ABU?$pair@$$CBV?$basic_string@DV?$char_traits@D@_STL@@V?$allocator@D@2@@_STL@@K@2@@Z 00405b00 f i ChannelMgr.obj
 0001:00004b30       ?lower_bound@?$map@V?$basic_string@DV?$char_traits@D@_STL@@V?$allocator@D@2@@_STL@@KU_tstring_less@@V?$allocator@U?$pair@$$CBV?$basic_string@DV?$char_traits@D@_STL@@V?$allocator@D@2@@_STL@@K@_STL@@@2@@_STL@@QAE?AU?$_Rb_tree_iterator@U?$pair@$$CBV?$basic_string@DV?$char_traits@D@_STL@@V?$allocator@D@2@@_STL@@K@_STL@@U?$_Nonconst_traits@U?$pair@$$CBV?$basic_string@DV?$char_traits@D@_STL@@V?$allocator@D@2@@_STL@@K@_STL@@@2@@2@ABV?$basic_string@DV?$char_traits@D@_STL@@V?$allocator@D@2@@2@@Z 00405b30 f i ChannelMgr.obj
 0001:00004b90       ??1?$_Rb_tree_base@U?$pair@$$CBV?$basic_string@DV?$char_traits@D@_STL@@V?$allocator@D@2@@_STL@@K@_STL@@V?$allocator@U?$pair@$$CBV?$basic_string@DV?$char_traits@D@_STL@@V?$allocator@D@2@@_STL@@K@_STL@@@2@@_STL@@QAE@XZ 00405b90 f i ChannelMgr.obj
 0001:00004be0       ??1?$allocator@U?$pair@$$CBV?$basic_string@DV?$char_traits@D@_STL@@V?$allocator@D@2@@_STL@@K@_STL@@@_STL@@QAE@XZ 00405be0 f i ChannelMgr.obj
 0001:00004bf0       ??0?$_Rb_tree_iterator@U?$pair@$$CBV?$basic_string@DV?$char_traits@D@_STL@@V?$allocator@D@2@@_STL@@K@_STL@@U?$_Nonconst_traits@U?$pair@$$CBV?$basic_string@DV?$char_traits@D@_STL@@V?$allocator@D@2@@_STL@@K@_STL@@@2@@_STL@@QAE@ABU01@@Z 00405bf0 f i ChannelMgr.obj
 0001:00004c00       ??1?$_Rb_tree_base@U?$pair@$$CBKV?$list@PAU_BLOCKCHANNELOP@CChannelMgr@@V?$allocator@PAU_BLOCKCHANNELOP@CChannelMgr@@@_STL@@@_STL@@@_STL@@V?$allocator@U?$pair@$$CBKV?$list@PAU_BLOCKCHANNELOP@CChannelMgr@@V?$allocator@PAU_BLOCKCHANNELOP@CChannelMgr@@@_STL@@@_STL@@@_STL@@@2@@_STL@@QAE@XZ 00405c00 f i ChannelMgr.obj
 0001:00004c50       ??1?$allocator@U?$pair@$$CBKV?$list@PAU_BLOCKCHANNELOP@CChannelMgr@@V?$allocator@PAU_BLOCKCHANNELOP@CChannelMgr@@@_STL@@@_STL@@@_STL@@@_STL@@QAE@XZ 00405c50 f i ChannelMgr.obj
 0001:00004c60       ??0?$pair@$$CBKUCHANNINFO@CChannelMgr@@@_STL@@QAE@ABKABUCHANNINFO@CChannelMgr@@@Z 00405c60 f i ChannelMgr.obj
 0001:00004dd0       ??0?$pair@$$CBV?$basic_string@DV?$char_traits@D@_STL@@V?$allocator@D@2@@_STL@@K@_STL@@QAE@ABV?$basic_string@DV?$char_traits@D@_STL@@V?$allocator@D@2@@1@ABK@Z 00405dd0 f i ChannelMgr.obj
 0001:00004ea0       ?insert@?$map@KUPLAYERINFO@CChannelMgr@@U?$less@K@_STL@@V?$allocator@U?$pair@$$CBKUPLAYERINFO@CChannelMgr@@@_STL@@@4@@_STL@@QAE?AU?$_Rb_tree_iterator@U?$pair@$$CBKUPLAYERINFO@CChannelMgr@@@_STL@@U?$_Nonconst_traits@U?$pair@$$CBKUPLAYERINFO@CChannelMgr@@@_STL@@@2@@2@U32@ABU?$pair@$$CBKUPLAYERINFO@CChannelMgr@@@2@@Z 00405ea0 f i ChannelMgr.obj
 0001:00004ed0       ?erase@?$_Rb_tree@KU?$pair@$$CBKUPLAYERINFO@CChannelMgr@@@_STL@@U?$_Select1st@U?$pair@$$CBKUPLAYERINFO@CChannelMgr@@@_STL@@@2@U?$less@K@2@V?$allocator@U?$pair@$$CBKUPLAYERINFO@CChannelMgr@@@_STL@@@2@@_STL@@QAEIABK@Z 00405ed0 f i ChannelMgr.obj
 0001:00004f40       ??0?$_Rb_tree_iterator@U?$pair@$$CBKUPLAYERINFO@CChannelMgr@@@_STL@@U?$_Nonconst_traits@U?$pair@$$CBKUPLAYERINFO@CChannelMgr@@@_STL@@@2@@_STL@@QAE@ABU01@@Z 00405f40 f i ChannelMgr.obj
 0001:00004f50       ?end@?$list@UtagPlusSrcInfo@@V?$allocator@UtagPlusSrcInfo@@@_STL@@@_STL@@QAE?AU?$_List_iterator@UtagPlusSrcInfo@@U?$_Nonconst_traits@UtagPlusSrcInfo@@@_STL@@@2@XZ 00405f50 f i ChannelMgr.obj
 0001:00004f60       ?insert@?$list@UtagPlusSrcInfo@@V?$allocator@UtagPlusSrcInfo@@@_STL@@@_STL@@QAE?AU?$_List_iterator@UtagPlusSrcInfo@@U?$_Nonconst_traits@UtagPlusSrcInfo@@@_STL@@@2@U32@ABUtagPlusSrcInfo@@@Z 00405f60 f i ChannelMgr.obj
 0001:00004f90       ??0?$_List_base@UtagPlusSrcInfo@@V?$allocator@UtagPlusSrcInfo@@@_STL@@@_STL@@QAE@ABV?$allocator@UtagPlusSrcInfo@@@1@@Z 00405f90 f i ChannelMgr.obj
 0001:00004fe0       ?deallocate@?$__node_alloc@$00$0A@@_STL@@SAXPAXI@Z 00405fe0 f i ChannelMgr.obj
 0001:00005010       ??1?$_STLP_alloc_proxy@PADDV?$allocator@D@_STL@@@_STL@@QAE@XZ 00406010 f i ChannelMgr.obj
 0001:00005020       ??1?$_STLP_alloc_proxy@PAU?$_Rb_tree_node@U?$pair@$$CBKUCHANNINFO@CChannelMgr@@@_STL@@@_STL@@U12@V?$allocator@U?$pair@$$CBKUCHANNINFO@CChannelMgr@@@_STL@@@2@@_STL@@QAE@XZ 00406020 f i ChannelMgr.obj
 0001:00005030       ??1?$_STLP_alloc_proxy@PAU?$_Rb_tree_node@U?$pair@$$CBV?$basic_string@DV?$char_traits@D@_STL@@V?$allocator@D@2@@_STL@@K@_STL@@@_STL@@U12@V?$allocator@U?$pair@$$CBV?$basic_string@DV?$char_traits@D@_STL@@V?$allocator@D@2@@_STL@@K@_STL@@@2@@_STL@@QAE@XZ 00406030 f i ChannelMgr.obj
 0001:00005040       ??1?$_STLP_alloc_proxy@PAU?$_Rb_tree_node@U?$pair@$$CBKV?$list@PAU_BLOCKCHANNELOP@CChannelMgr@@V?$allocator@PAU_BLOCKCHANNELOP@CChannelMgr@@@_STL@@@_STL@@@_STL@@@_STL@@U12@V?$allocator@U?$pair@$$CBKV?$list@PAU_BLOCKCHANNELOP@CChannelMgr@@V?$allocator@PAU_BLOCKCHANNELOP@CChannelMgr@@@_STL@@@_STL@@@_STL@@@2@@_STL@@QAE@XZ 00406040 f i ChannelMgr.obj
 0001:00005050       ??1?$_STLP_alloc_proxy@PAU?$_List_node@UtagPlusSrcInfo@@@_STL@@U12@V?$allocator@UtagPlusSrcInfo@@@2@@_STL@@QAE@XZ 00406050 f i ChannelMgr.obj
 0001:00005060       ?_M_deallocate_block@?$_String_base@DV?$allocator@D@_STL@@@_STL@@QAEXXZ 00406060 f i ChannelMgr.obj
 0001:00005090       ??0?$_STLP_alloc_proxy@PADDV?$allocator@D@_STL@@@_STL@@QAE@ABV?$allocator@D@1@PAD@Z 00406090 f i ChannelMgr.obj
 0001:000050a0       ??0?$map@KV?$map@KUPLAYERINFO@CChannelMgr@@U?$less@K@_STL@@V?$allocator@U?$pair@$$CBKUPLAYERINFO@CChannelMgr@@@_STL@@@4@@_STL@@U?$less@K@2@V?$allocator@U?$pair@$$CBKV?$map@KUPLAYERINFO@CChannelMgr@@U?$less@K@_STL@@V?$allocator@U?$pair@$$CBKUPLAYERINFO@CChannelMgr@@@_STL@@@4@@_STL@@@_STL@@@2@@_STL@@QAE@ABV01@@Z 004060a0 f i ChannelMgr.obj
 0001:00005190       ?clear@?$_Rb_tree@KU?$pair@$$CBKV?$map@KUPLAYERINFO@CChannelMgr@@U?$less@K@_STL@@V?$allocator@U?$pair@$$CBKUPLAYERINFO@CChannelMgr@@@_STL@@@4@@_STL@@@_STL@@U?$_Select1st@U?$pair@$$CBKV?$map@KUPLAYERINFO@CChannelMgr@@U?$less@K@_STL@@V?$allocator@U?$pair@$$CBKUPLAYERINFO@CChannelMgr@@@_STL@@@4@@_STL@@@_STL@@@2@U?$less@K@2@V?$allocator@U?$pair@$$CBKV?$map@KUPLAYERINFO@CChannelMgr@@U?$less@K@_STL@@V?$allocator@U?$pair@$$CBKUPLAYERINFO@CChannelMgr@@@_STL@@@4@@_STL@@@_STL@@@2@@_STL@@QAEXXZ 00406190 f i ChannelMgr.obj
 0001:000051f0       ??1?$_Rb_tree_base@U?$pair@$$CBKV?$map@KUPLAYERINFO@CChannelMgr@@U?$less@K@_STL@@V?$allocator@U?$pair@$$CBKUPLAYERINFO@CChannelMgr@@@_STL@@@4@@_STL@@@_STL@@V?$allocator@U?$pair@$$CBKV?$map@KUPLAYERINFO@CChannelMgr@@U?$less@K@_STL@@V?$allocator@U?$pair@$$CBKUPLAYERINFO@CChannelMgr@@@_STL@@@4@@_STL@@@_STL@@@2@@_STL@@QAE@XZ 004061f0 f i ChannelMgr.obj
 0001:00005240       ?deallocate@?$_STLP_alloc_proxy@PAU?$_Rb_tree_node@U?$pair@$$CBKV?$map@KUPLAYERINFO@CChannelMgr@@U?$less@K@_STL@@V?$allocator@U?$pair@$$CBKUPLAYERINFO@CChannelMgr@@@_STL@@@4@@_STL@@@_STL@@@_STL@@U12@V?$allocator@U?$pair@$$CBKV?$map@KUPLAYERINFO@CChannelMgr@@U?$less@K@_STL@@V?$allocator@U?$pair@$$CBKUPLAYERINFO@CChannelMgr@@@_STL@@@4@@_STL@@@_STL@@@2@@_STL@@QAEXPAU?$_Rb_tree_node@U?$pair@$$CBKV?$map@KUPLAYERINFO@CChannelMgr@@U?$less@K@_STL@@V?$allocator@U?$pair@$$CBKUPLAYERINFO@CChannelMgr@@@_STL@@@4@@_STL@@@_STL@@@2@I@Z 00406240 f i ChannelMgr.obj
 0001:00005270       ?_M_empty_initialize@?$_Rb_tree@KU?$pair@$$CBKUCHANNINFO@CChannelMgr@@@_STL@@U?$_Select1st@U?$pair@$$CBKUCHANNINFO@CChannelMgr@@@_STL@@@2@U?$less@K@2@V?$allocator@U?$pair@$$CBKUCHANNINFO@CChannelMgr@@@_STL@@@2@@_STL@@AAEXXZ 00406270 f i ChannelMgr.obj
 0001:00005290       ?lower_bound@?$_Rb_tree@KU?$pair@$$CBKUCHANNINFO@CChannelMgr@@@_STL@@U?$_Select1st@U?$pair@$$CBKUCHANNINFO@CChannelMgr@@@_STL@@@2@U?$less@K@2@V?$allocator@U?$pair@$$CBKUCHANNINFO@CChannelMgr@@@_STL@@@2@@_STL@@QAE?AU?$_Rb_tree_iterator@U?$pair@$$CBKUCHANNINFO@CChannelMgr@@@_STL@@U?$_Nonconst_traits@U?$pair@$$CBKUCHANNINFO@CChannelMgr@@@_STL@@@2@@2@ABK@Z 00406290 f i ChannelMgr.obj
 0001:000052d0       ??0?$_Rb_tree_base@U?$pair@$$CBKUCHANNINFO@CChannelMgr@@@_STL@@V?$allocator@U?$pair@$$CBKUCHANNINFO@CChannelMgr@@@_STL@@@2@@_STL@@QAE@ABV?$allocator@U?$pair@$$CBKUCHANNINFO@CChannelMgr@@@_STL@@@1@@Z 004062d0 f i ChannelMgr.obj
 0001:00005320       ?deallocate@?$_STLP_alloc_proxy@PAU?$_Rb_tree_node@U?$pair@$$CBKUCHANNINFO@CChannelMgr@@@_STL@@@_STL@@U12@V?$allocator@U?$pair@$$CBKUCHANNINFO@CChannelMgr@@@_STL@@@2@@_STL@@QAEXPAU?$_Rb_tree_node@U?$pair@$$CBKUCHANNINFO@CChannelMgr@@@_STL@@@2@I@Z 00406320 f i ChannelMgr.obj
 0001:00005350       ?_M_empty_initialize@?$_Rb_tree@V?$basic_string@DV?$char_traits@D@_STL@@V?$allocator@D@2@@_STL@@U?$pair@$$CBV?$basic_string@DV?$char_traits@D@_STL@@V?$allocator@D@2@@_STL@@K@2@U?$_Select1st@U?$pair@$$CBV?$basic_string@DV?$char_traits@D@_STL@@V?$allocator@D@2@@_STL@@K@_STL@@@2@U_tstring_less@@V?$allocator@U?$pair@$$CBV?$basic_string@DV?$char_traits@D@_STL@@V?$allocator@D@2@@_STL@@K@_STL@@@2@@_STL@@AAEXXZ 00406350 f i ChannelMgr.obj
 0001:00005370       ?erase@?$_Rb_tree@V?$basic_string@DV?$char_traits@D@_STL@@V?$allocator@D@2@@_STL@@U?$pair@$$CBV?$basic_string@DV?$char_traits@D@_STL@@V?$allocator@D@2@@_STL@@K@2@U?$_Select1st@U?$pair@$$CBV?$basic_string@DV?$char_traits@D@_STL@@V?$allocator@D@2@@_STL@@K@_STL@@@2@U_tstring_less@@V?$allocator@U?$pair@$$CBV?$basic_string@DV?$char_traits@D@_STL@@V?$allocator@D@2@@_STL@@K@_STL@@@2@@_STL@@QAEXU?$_Rb_tree_iterator@U?$pair@$$CBV?$basic_string@DV?$char_traits@D@_STL@@V?$allocator@D@2@@_STL@@K@_STL@@U?$_Nonconst_traits@U?$pair@$$CBV?$basic_string@DV?$char_traits@D@_STL@@V?$allocator@D@2@@_STL@@K@_STL@@@2@@2@0@Z 00406370 f i ChannelMgr.obj
 0001:00005410       ?lower_bound@?$_Rb_tree@V?$basic_string@DV?$char_traits@D@_STL@@V?$allocator@D@2@@_STL@@U?$pair@$$CBV?$basic_string@DV?$char_traits@D@_STL@@V?$allocator@D@2@@_STL@@K@2@U?$_Select1st@U?$pair@$$CBV?$basic_string@DV?$char_traits@D@_STL@@V?$allocator@D@2@@_STL@@K@_STL@@@2@U_tstring_less@@V?$allocator@U?$pair@$$CBV?$basic_string@DV?$char_traits@D@_STL@@V?$allocator@D@2@@_STL@@K@_STL@@@2@@_STL@@QAE?AU?$_Rb_tree_iterator@U?$pair@$$CBV?$basic_string@DV?$char_traits@D@_STL@@V?$allocator@D@2@@_STL@@K@_STL@@U?$_Nonconst_traits@U?$pair@$$CBV?$basic_string@DV?$char_traits@D@_STL@@V?$allocator@D@2@@_STL@@K@_STL@@@2@@2@ABV?$basic_string@DV?$char_traits@D@_STL@@V?$allocator@D@2@@2@@Z 00406410 f i ChannelMgr.obj
 0001:00005470       ??0?$_Rb_tree_base@U?$pair@$$CBV?$basic_string@DV?$char_traits@D@_STL@@V?$allocator@D@2@@_STL@@K@_STL@@V?$allocator@U?$pair@$$CBV?$basic_string@DV?$char_traits@D@_STL@@V?$allocator@D@2@@_STL@@K@_STL@@@2@@_STL@@QAE@ABV?$allocator@U?$pair@$$CBV?$basic_string@DV?$char_traits@D@_STL@@V?$allocator@D@2@@_STL@@K@_STL@@@1@@Z 00406470 f i ChannelMgr.obj
 0001:000054c0       ?deallocate@?$_STLP_alloc_proxy@PAU?$_Rb_tree_node@U?$pair@$$CBV?$basic_string@DV?$char_traits@D@_STL@@V?$allocator@D@2@@_STL@@K@_STL@@@_STL@@U12@V?$allocator@U?$pair@$$CBV?$basic_string@DV?$char_traits@D@_STL@@V?$allocator@D@2@@_STL@@K@_STL@@@2@@_STL@@QAEXPAU?$_Rb_tree_node@U?$pair@$$CBV?$basic_string@DV?$char_traits@D@_STL@@V?$allocator@D@2@@_STL@@K@_STL@@@2@I@Z 004064c0 f i ChannelMgr.obj
 0001:000054f0       ?erase@?$_Rb_tree@KU?$pair@$$CBKUPLAYERINFO@CChannelMgr@@@_STL@@U?$_Select1st@U?$pair@$$CBKUPLAYERINFO@CChannelMgr@@@_STL@@@2@U?$less@K@2@V?$allocator@U?$pair@$$CBKUPLAYERINFO@CChannelMgr@@@_STL@@@2@@_STL@@QAEXU?$_Rb_tree_iterator@U?$pair@$$CBKUPLAYERINFO@CChannelMgr@@@_STL@@U?$_Nonconst_traits@U?$pair@$$CBKUPLAYERINFO@CChannelMgr@@@_STL@@@2@@2@0@Z 004064f0 f i ChannelMgr.obj
 0001:00005580       ?equal_range@?$_Rb_tree@KU?$pair@$$CBKUPLAYERINFO@CChannelMgr@@@_STL@@U?$_Select1st@U?$pair@$$CBKUPLAYERINFO@CChannelMgr@@@_STL@@@2@U?$less@K@2@V?$allocator@U?$pair@$$CBKUPLAYERINFO@CChannelMgr@@@_STL@@@2@@_STL@@QAE?AU?$pair@U?$_Rb_tree_iterator@U?$pair@$$CBKUPLAYERINFO@CChannelMgr@@@_STL@@U?$_Nonconst_traits@U?$pair@$$CBKUPLAYERINFO@CChannelMgr@@@_STL@@@2@@_STL@@U12@@2@ABK@Z 00406580 f i ChannelMgr.obj
 0001:000055e0       ??1?$_Rb_tree_base@U?$pair@$$CBKUPLAYERINFO@CChannelMgr@@@_STL@@V?$allocator@U?$pair@$$CBKUPLAYERINFO@CChannelMgr@@@_STL@@@2@@_STL@@QAE@XZ 004065e0 f i ChannelMgr.obj
 0001:00005630       ?_M_create_node@?$list@UtagPlusSrcInfo@@V?$allocator@UtagPlusSrcInfo@@@_STL@@@_STL@@IAEPAU?$_List_node@UtagPlusSrcInfo@@@2@ABUtagPlusSrcInfo@@@Z 00406630 f i ChannelMgr.obj
 0001:00005660       ?deallocate@?$_STLP_alloc_proxy@PAU?$_List_node@UtagPlusSrcInfo@@@_STL@@U12@V?$allocator@UtagPlusSrcInfo@@@2@@_STL@@QAEXPAU?$_List_node@UtagPlusSrcInfo@@@2@I@Z 00406660 f i ChannelMgr.obj
 0001:00005690       ??1?$_STLP_alloc_proxy@PAU?$_Rb_tree_node@U?$pair@$$CBKV?$map@KUPLAYERINFO@CChannelMgr@@U?$less@K@_STL@@V?$allocator@U?$pair@$$CBKUPLAYERINFO@CChannelMgr@@@_STL@@@4@@_STL@@@_STL@@@_STL@@U12@V?$allocator@U?$pair@$$CBKV?$map@KUPLAYERINFO@CChannelMgr@@U?$less@K@_STL@@V?$allocator@U?$pair@$$CBKUPLAYERINFO@CChannelMgr@@@_STL@@@4@@_STL@@@_STL@@@2@@_STL@@QAE@XZ 00406690 f i ChannelMgr.obj
 0001:000056a0       ??1?$_STLP_alloc_proxy@PAU?$_Rb_tree_node@U?$pair@$$CBKUPLAYERINFO@CChannelMgr@@@_STL@@@_STL@@U12@V?$allocator@U?$pair@$$CBKUPLAYERINFO@CChannelMgr@@@_STL@@@2@@_STL@@QAE@XZ 004066a0 f i ChannelMgr.obj
 0001:000056b0       ?deallocate@?$_STLP_alloc_proxy@PADDV?$allocator@D@_STL@@@_STL@@QAEXPADI@Z 004066b0 f i ChannelMgr.obj
 0001:000056e0       ?_M_lower_bound@?$_Rb_tree@KU?$pair@$$CBKV?$map@KUPLAYERINFO@CChannelMgr@@U?$less@K@_STL@@V?$allocator@U?$pair@$$CBKUPLAYERINFO@CChannelMgr@@@_STL@@@4@@_STL@@@_STL@@U?$_Select1st@U?$pair@$$CBKV?$map@KUPLAYERINFO@CChannelMgr@@U?$less@K@_STL@@V?$allocator@U?$pair@$$CBKUPLAYERINFO@CChannelMgr@@@_STL@@@4@@_STL@@@_STL@@@2@U?$less@K@2@V?$allocator@U?$pair@$$CBKV?$map@KUPLAYERINFO@CChannelMgr@@U?$less@K@_STL@@V?$allocator@U?$pair@$$CBKUPLAYERINFO@CChannelMgr@@@_STL@@@4@@_STL@@@_STL@@@2@@_STL@@ABEPAU?$_Rb_tree_node@U?$pair@$$CBKV?$map@KUPLAYERINFO@CChannelMgr@@U?$less@K@_STL@@V?$allocator@U?$pair@$$CBKUPLAYERINFO@CChannelMgr@@@_STL@@@4@@_STL@@@_STL@@@2@ABK@Z 004066e0 f i ChannelMgr.obj
 0001:00005710       ??1?$allocator@U?$pair@$$CBKV?$map@KUPLAYERINFO@CChannelMgr@@U?$less@K@_STL@@V?$allocator@U?$pair@$$CBKUPLAYERINFO@CChannelMgr@@@_STL@@@4@@_STL@@@_STL@@@_STL@@QAE@XZ 00406710 f i ChannelMgr.obj
 0001:00005720       ?_M_lower_bound@?$_Rb_tree@KU?$pair@$$CBKUCHANNINFO@CChannelMgr@@@_STL@@U?$_Select1st@U?$pair@$$CBKUCHANNINFO@CChannelMgr@@@_STL@@@2@U?$less@K@2@V?$allocator@U?$pair@$$CBKUCHANNINFO@CChannelMgr@@@_STL@@@2@@_STL@@ABEPAU?$_Rb_tree_node@U?$pair@$$CBKUCHANNINFO@CChannelMgr@@@_STL@@@2@ABK@Z 00406720 f i ChannelMgr.obj
 0001:00005750       ?erase@?$_Rb_tree@V?$basic_string@DV?$char_traits@D@_STL@@V?$allocator@D@2@@_STL@@U?$pair@$$CBV?$basic_string@DV?$char_traits@D@_STL@@V?$allocator@D@2@@_STL@@K@2@U?$_Select1st@U?$pair@$$CBV?$basic_string@DV?$char_traits@D@_STL@@V?$allocator@D@2@@_STL@@K@_STL@@@2@U_tstring_less@@V?$allocator@U?$pair@$$CBV?$basic_string@DV?$char_traits@D@_STL@@V?$allocator@D@2@@_STL@@K@_STL@@@2@@_STL@@QAEXU?$_Rb_tree_iterator@U?$pair@$$CBV?$basic_string@DV?$char_traits@D@_STL@@V?$allocator@D@2@@_STL@@K@_STL@@U?$_Nonconst_traits@U?$pair@$$CBV?$basic_string@DV?$char_traits@D@_STL@@V?$allocator@D@2@@_STL@@K@_STL@@@2@@2@@Z 00406750 f i ChannelMgr.obj
 0001:000057a0       ?_M_lower_bound@?$_Rb_tree@V?$basic_string@DV?$char_traits@D@_STL@@V?$allocator@D@2@@_STL@@U?$pair@$$CBV?$basic_string@DV?$char_traits@D@_STL@@V?$allocator@D@2@@_STL@@K@2@U?$_Select1st@U?$pair@$$CBV?$basic_string@DV?$char_traits@D@_STL@@V?$allocator@D@2@@_STL@@K@_STL@@@2@U_tstring_less@@V?$allocator@U?$pair@$$CBV?$basic_string@DV?$char_traits@D@_STL@@V?$allocator@D@2@@_STL@@K@_STL@@@2@@_STL@@ABEPAU?$_Rb_tree_node@U?$pair@$$CBV?$basic_string@DV?$char_traits@D@_STL@@V?$allocator@D@2@@_STL@@K@_STL@@@2@ABV?$basic_string@DV?$char_traits@D@_STL@@V?$allocator@D@2@@2@@Z 004067a0 f i ChannelMgr.obj
 0001:00005800       ??0?$_Rb_tree@KU?$pair@$$CBKUPLAYERINFO@CChannelMgr@@@_STL@@U?$_Select1st@U?$pair@$$CBKUPLAYERINFO@CChannelMgr@@@_STL@@@2@U?$less@K@2@V?$allocator@U?$pair@$$CBKUPLAYERINFO@CChannelMgr@@@_STL@@@2@@_STL@@QAE@ABV01@@Z 00406800 f i ChannelMgr.obj
 0001:000058f0       ?erase@?$_Rb_tree@KU?$pair@$$CBKUPLAYERINFO@CChannelMgr@@@_STL@@U?$_Select1st@U?$pair@$$CBKUPLAYERINFO@CChannelMgr@@@_STL@@@2@U?$less@K@2@V?$allocator@U?$pair@$$CBKUPLAYERINFO@CChannelMgr@@@_STL@@@2@@_STL@@QAEXU?$_Rb_tree_iterator@U?$pair@$$CBKUPLAYERINFO@CChannelMgr@@@_STL@@U?$_Nonconst_traits@U?$pair@$$CBKUPLAYERINFO@CChannelMgr@@@_STL@@@2@@2@@Z 004068f0 f i ChannelMgr.obj
 0001:00005930       ?_M_lower_bound@?$_Rb_tree@KU?$pair@$$CBKUPLAYERINFO@CChannelMgr@@@_STL@@U?$_Select1st@U?$pair@$$CBKUPLAYERINFO@CChannelMgr@@@_STL@@@2@U?$less@K@2@V?$allocator@U?$pair@$$CBKUPLAYERINFO@CChannelMgr@@@_STL@@@2@@_STL@@ABEPAU?$_Rb_tree_node@U?$pair@$$CBKUPLAYERINFO@CChannelMgr@@@_STL@@@2@ABK@Z 00406930 f i ChannelMgr.obj
 0001:00005960       ??1?$allocator@U?$pair@$$CBKUPLAYERINFO@CChannelMgr@@@_STL@@@_STL@@QAE@XZ 00406960 f i ChannelMgr.obj
 0001:00005970       ??0?$pair@U?$_Rb_tree_iterator@U?$pair@$$CBV?$basic_string@DV?$char_traits@D@_STL@@V?$allocator@D@2@@_STL@@K@_STL@@U?$_Nonconst_traits@U?$pair@$$CBV?$basic_string@DV?$char_traits@D@_STL@@V?$allocator@D@2@@_STL@@K@_STL@@@2@@_STL@@U12@@_STL@@QAE@ABU?$_Rb_tree_iterator@U?$pair@$$CBV?$basic_string@DV?$char_traits@D@_STL@@V?$allocator@D@2@@_STL@@K@_STL@@U?$_Nonconst_traits@U?$pair@$$CBV?$basic_string@DV?$char_traits@D@_STL@@V?$allocator@D@2@@_STL@@K@_STL@@@2@@1@0@Z 00406970 f i ChannelMgr.obj
 0001:00005990       ?deallocate@?$allocator@U?$_Rb_tree_node@U?$pair@$$CBV?$basic_string@DV?$char_traits@D@_STL@@V?$allocator@D@2@@_STL@@K@_STL@@@_STL@@@_STL@@QBEXPAU?$_Rb_tree_node@U?$pair@$$CBV?$basic_string@DV?$char_traits@D@_STL@@V?$allocator@D@2@@_STL@@K@_STL@@@2@I@Z 00406990 f i ChannelMgr.obj
 0001:000059c0       ?deallocate@?$allocator@U?$_List_node@UtagPlusSrcInfo@@@_STL@@@_STL@@QBEXPAU?$_List_node@UtagPlusSrcInfo@@@2@I@Z 004069c0 f i ChannelMgr.obj
 0001:000059f0       ?deallocate@?$allocator@D@_STL@@QBEXPADI@Z 004069f0 f i ChannelMgr.obj
 0001:00005a20       ?_M_empty_initialize@?$_Rb_tree@KU?$pair@$$CBKV?$map@KUPLAYERINFO@CChannelMgr@@U?$less@K@_STL@@V?$allocator@U?$pair@$$CBKUPLAYERINFO@CChannelMgr@@@_STL@@@4@@_STL@@@_STL@@U?$_Select1st@U?$pair@$$CBKV?$map@KUPLAYERINFO@CChannelMgr@@U?$less@K@_STL@@V?$allocator@U?$pair@$$CBKUPLAYERINFO@CChannelMgr@@@_STL@@@4@@_STL@@@_STL@@@2@U?$less@K@2@V?$allocator@U?$pair@$$CBKV?$map@KUPLAYERINFO@CChannelMgr@@U?$less@K@_STL@@V?$allocator@U?$pair@$$CBKUPLAYERINFO@CChannelMgr@@@_STL@@@4@@_STL@@@_STL@@@2@@_STL@@AAEXXZ 00406a20 f i ChannelMgr.obj
 0001:00005a40       ??0?$_Rb_tree_base@U?$pair@$$CBKV?$map@KUPLAYERINFO@CChannelMgr@@U?$less@K@_STL@@V?$allocator@U?$pair@$$CBKUPLAYERINFO@CChannelMgr@@@_STL@@@4@@_STL@@@_STL@@V?$allocator@U?$pair@$$CBKV?$map@KUPLAYERINFO@CChannelMgr@@U?$less@K@_STL@@V?$allocator@U?$pair@$$CBKUPLAYERINFO@CChannelMgr@@@_STL@@@4@@_STL@@@_STL@@@2@@_STL@@QAE@ABV?$allocator@U?$pair@$$CBKV?$map@KUPLAYERINFO@CChannelMgr@@U?$less@K@_STL@@V?$allocator@U?$pair@$$CBKUPLAYERINFO@CChannelMgr@@@_STL@@@4@@_STL@@@_STL@@@1@@Z 00406a40 f i ChannelMgr.obj
 0001:00005a90       ?get_allocator@?$_Rb_tree_base@U?$pair@$$CBKV?$map@KUPLAYERINFO@CChannelMgr@@U?$less@K@_STL@@V?$allocator@U?$pair@$$CBKUPLAYERINFO@CChannelMgr@@@_STL@@@4@@_STL@@@_STL@@V?$allocator@U?$pair@$$CBKV?$map@KUPLAYERINFO@CChannelMgr@@U?$less@K@_STL@@V?$allocator@U?$pair@$$CBKUPLAYERINFO@CChannelMgr@@@_STL@@@4@@_STL@@@_STL@@@2@@_STL@@QBE?AV?$allocator@U?$pair@$$CBKV?$map@KUPLAYERINFO@CChannelMgr@@U?$less@K@_STL@@V?$allocator@U?$pair@$$CBKUPLAYERINFO@CChannelMgr@@@_STL@@@4@@_STL@@@_STL@@@2@XZ 00406a90 f i ChannelMgr.obj
 0001:00005ab0       ?_M_upper_bound@?$_Rb_tree@V?$basic_string@DV?$char_traits@D@_STL@@V?$allocator@D@2@@_STL@@U?$pair@$$CBV?$basic_string@DV?$char_traits@D@_STL@@V?$allocator@D@2@@_STL@@K@2@U?$_Select1st@U?$pair@$$CBV?$basic_string@DV?$char_traits@D@_STL@@V?$allocator@D@2@@_STL@@K@_STL@@@2@U_tstring_less@@V?$allocator@U?$pair@$$CBV?$basic_string@DV?$char_traits@D@_STL@@V?$allocator@D@2@@_STL@@K@_STL@@@2@@_STL@@ABEPAU?$_Rb_tree_node@U?$pair@$$CBV?$basic_string@DV?$char_traits@D@_STL@@V?$allocator@D@2@@_STL@@K@_STL@@@2@ABV?$basic_string@DV?$char_traits@D@_STL@@V?$allocator@D@2@@2@@Z 00406ab0 f i ChannelMgr.obj
 0001:00005b10       ?_M_upper_bound@?$_Rb_tree@KU?$pair@$$CBKUPLAYERINFO@CChannelMgr@@@_STL@@U?$_Select1st@U?$pair@$$CBKUPLAYERINFO@CChannelMgr@@@_STL@@@2@U?$less@K@2@V?$allocator@U?$pair@$$CBKUPLAYERINFO@CChannelMgr@@@_STL@@@2@@_STL@@ABEPAU?$_Rb_tree_node@U?$pair@$$CBKUPLAYERINFO@CChannelMgr@@@_STL@@@2@ABK@Z 00406b10 f i ChannelMgr.obj
 0001:00005b40       ?get_allocator@?$_Rb_tree_base@U?$pair@$$CBKUPLAYERINFO@CChannelMgr@@@_STL@@V?$allocator@U?$pair@$$CBKUPLAYERINFO@CChannelMgr@@@_STL@@@2@@_STL@@QBE?AV?$allocator@U?$pair@$$CBKUPLAYERINFO@CChannelMgr@@@_STL@@@2@XZ 00406b40 f i ChannelMgr.obj
 0001:00005b60       ?deallocate@?$allocator@U?$_Rb_tree_node@U?$pair@$$CBKUPLAYERINFO@CChannelMgr@@@_STL@@@_STL@@@_STL@@QBEXPAU?$_Rb_tree_node@U?$pair@$$CBKUPLAYERINFO@CChannelMgr@@@_STL@@@2@I@Z 00406b60 f i ChannelMgr.obj
 0001:00005ba0       ??0?$_STLP_alloc_proxy@PAU?$_Rb_tree_node@U?$pair@$$CBKV?$map@KUPLAYERINFO@CChannelMgr@@U?$less@K@_STL@@V?$allocator@U?$pair@$$CBKUPLAYERINFO@CChannelMgr@@@_STL@@@4@@_STL@@@_STL@@@_STL@@U12@V?$allocator@U?$pair@$$CBKV?$map@KUPLAYERINFO@CChannelMgr@@U?$less@K@_STL@@V?$allocator@U?$pair@$$CBKUPLAYERINFO@CChannelMgr@@@_STL@@@4@@_STL@@@_STL@@@2@@_STL@@QAE@ABV?$allocator@U?$pair@$$CBKV?$map@KUPLAYERINFO@CChannelMgr@@U?$less@K@_STL@@V?$allocator@U?$pair@$$CBKUPLAYERINFO@CChannelMgr@@@_STL@@@4@@_STL@@@_STL@@@1@PAU?$_Rb_tree_node@U?$pair@$$CBKV?$map@KUPLAYERINFO@CChannelMgr@@U?$less@K@_STL@@V?$allocator@U?$pair@$$CBKUPLAYERINFO@CChannelMgr@@@_STL@@@4@@_STL@@@_STL@@@1@@Z 00406ba0 f i ChannelMgr.obj
 0001:00005bb0       ??0?$basic_string@DV?$char_traits@D@_STL@@V?$allocator@D@2@@_STL@@QAE@ABV01@@Z 00406bb0 f i ChannelMgr.obj
 0001:00005c70       ?reserve@?$basic_string@DV?$char_traits@D@_STL@@V?$allocator@D@2@@_STL@@QAEXI@Z 00406c70 f i ChannelMgr.obj
 0001:00005d90       ?rfind@?$basic_string@DV?$char_traits@D@_STL@@V?$allocator@D@2@@_STL@@QBEIDI@Z 00406d90 f i ChannelMgr.obj
 0001:00005e10       ?find_last_not_of@?$basic_string@DV?$char_traits@D@_STL@@V?$allocator@D@2@@_STL@@QBEIPBDII@Z 00406e10 f i ChannelMgr.obj
 0001:00005ea0       ?_M_copy@?$_Rb_tree@KU?$pair@$$CBKV?$map@KUPLAYERINFO@CChannelMgr@@U?$less@K@_STL@@V?$allocator@U?$pair@$$CBKUPLAYERINFO@CChannelMgr@@@_STL@@@4@@_STL@@@_STL@@U?$_Select1st@U?$pair@$$CBKV?$map@KUPLAYERINFO@CChannelMgr@@U?$less@K@_STL@@V?$allocator@U?$pair@$$CBKUPLAYERINFO@CChannelMgr@@@_STL@@@4@@_STL@@@_STL@@@2@U?$less@K@2@V?$allocator@U?$pair@$$CBKV?$map@KUPLAYERINFO@CChannelMgr@@U?$less@K@_STL@@V?$allocator@U?$pair@$$CBKUPLAYERINFO@CChannelMgr@@@_STL@@@4@@_STL@@@_STL@@@2@@_STL@@AAEPAU?$_Rb_tree_node@U?$pair@$$CBKV?$map@KUPLAYERINFO@CChannelMgr@@U?$less@K@_STL@@V?$allocator@U?$pair@$$CBKUPLAYERINFO@CChannelMgr@@@_STL@@@4@@_STL@@@_STL@@@2@PAU32@0@Z 00406ea0 f i ChannelMgr.obj
 0001:00006030       ?deallocate@?$_STLP_alloc_proxy@PAU?$_Rb_tree_node@U?$pair@$$CBKUPLAYERINFO@CChannelMgr@@@_STL@@@_STL@@U12@V?$allocator@U?$pair@$$CBKUPLAYERINFO@CChannelMgr@@@_STL@@@2@@_STL@@QAEXPAU?$_Rb_tree_node@U?$pair@$$CBKUPLAYERINFO@CChannelMgr@@@_STL@@@2@I@Z 00407030 f i ChannelMgr.obj
 0001:00006070       ?_S_left@?$_Rb_tree@KU?$pair@$$CBKUPLAYERINFO@CChannelMgr@@@_STL@@U?$_Select1st@U?$pair@$$CBKUPLAYERINFO@CChannelMgr@@@_STL@@@2@U?$less@K@2@V?$allocator@U?$pair@$$CBKUPLAYERINFO@CChannelMgr@@@_STL@@@2@@_STL@@KAAAPAU?$_Rb_tree_node@U?$pair@$$CBKUPLAYERINFO@CChannelMgr@@@_STL@@@2@PAU32@@Z 00407070 f i ChannelMgr.obj
 0001:00006080       ?_S_right@?$_Rb_tree@KU?$pair@$$CBKUPLAYERINFO@CChannelMgr@@@_STL@@U?$_Select1st@U?$pair@$$CBKUPLAYERINFO@CChannelMgr@@@_STL@@@2@U?$less@K@2@V?$allocator@U?$pair@$$CBKUPLAYERINFO@CChannelMgr@@@_STL@@@2@@_STL@@KAAAPAU?$_Rb_tree_node@U?$pair@$$CBKUPLAYERINFO@CChannelMgr@@@_STL@@@2@PAU32@@Z 00407080 f i ChannelMgr.obj
 0001:00006090       ?_M_erase@?$_Rb_tree@KU?$pair@$$CBKV?$map@KUPLAYERINFO@CChannelMgr@@U?$less@K@_STL@@V?$allocator@U?$pair@$$CBKUPLAYERINFO@CChannelMgr@@@_STL@@@4@@_STL@@@_STL@@U?$_Select1st@U?$pair@$$CBKV?$map@KUPLAYERINFO@CChannelMgr@@U?$less@K@_STL@@V?$allocator@U?$pair@$$CBKUPLAYERINFO@CChannelMgr@@@_STL@@@4@@_STL@@@_STL@@@2@U?$less@K@2@V?$allocator@U?$pair@$$CBKV?$map@KUPLAYERINFO@CChannelMgr@@U?$less@K@_STL@@V?$allocator@U?$pair@$$CBKUPLAYERINFO@CChannelMgr@@@_STL@@@4@@_STL@@@_STL@@@2@@_STL@@AAEXPAU?$_Rb_tree_node@U?$pair@$$CBKV?$map@KUPLAYERINFO@CChannelMgr@@U?$less@K@_STL@@V?$allocator@U?$pair@$$CBKUPLAYERINFO@CChannelMgr@@@_STL@@@4@@_STL@@@_STL@@@2@@Z 00407090 f i ChannelMgr.obj
 0001:000060d0       ?insert_unique@?$_Rb_tree@KU?$pair@$$CBKV?$map@KUPLAYERINFO@CChannelMgr@@U?$less@K@_STL@@V?$allocator@U?$pair@$$CBKUPLAYERINFO@CChannelMgr@@@_STL@@@4@@_STL@@@_STL@@U?$_Select1st@U?$pair@$$CBKV?$map@KUPLAYERINFO@CChannelMgr@@U?$less@K@_STL@@V?$allocator@U?$pair@$$CBKUPLAYERINFO@CChannelMgr@@@_STL@@@4@@_STL@@@_STL@@@2@U?$less@K@2@V?$allocator@U?$pair@$$CBKV?$map@KUPLAYERINFO@CChannelMgr@@U?$less@K@_STL@@V?$allocator@U?$pair@$$CBKUPLAYERINFO@CChannelMgr@@@_STL@@@4@@_STL@@@_STL@@@2@@_STL@@QAE?AU?$_Rb_tree_iterator@U?$pair@$$CBKV?$map@KUPLAYERINFO@CChannelMgr@@U?$less@K@_STL@@V?$allocator@U?$pair@$$CBKUPLAYERINFO@CChannelMgr@@@_STL@@@4@@_STL@@@_STL@@U?$_Nonconst_traits@U?$pair@$$CBKV?$map@KUPLAYERINFO@CChannelMgr@@U?$less@K@_STL@@V?$allocator@U?$pair@$$CBKUPLAYERINFO@CChannelMgr@@@_STL@@@4@@_STL@@@_STL@@@2@@2@U32@ABU?$pair@$$CBKV?$map@KUPLAYERINFO@CChannelMgr@@U?$less@K@_STL@@V?$allocator@U?$pair@$$CBKUPLAYERINFO@CChannelMgr@@@_STL@@@4@@_STL@@@2@@Z 004070d0 f i ChannelMgr.obj
 0001:000065b0       ?begin@?$_Rb_tree@KU?$pair@$$CBKV?$map@KUPLAYERINFO@CChannelMgr@@U?$less@K@_STL@@V?$allocator@U?$pair@$$CBKUPLAYERINFO@CChannelMgr@@@_STL@@@4@@_STL@@@_STL@@U?$_Select1st@U?$pair@$$CBKV?$map@KUPLAYERINFO@CChannelMgr@@U?$less@K@_STL@@V?$allocator@U?$pair@$$CBKUPLAYERINFO@CChannelMgr@@@_STL@@@4@@_STL@@@_STL@@@2@U?$less@K@2@V?$allocator@U?$pair@$$CBKV?$map@KUPLAYERINFO@CChannelMgr@@U?$less@K@_STL@@V?$allocator@U?$pair@$$CBKUPLAYERINFO@CChannelMgr@@@_STL@@@4@@_STL@@@_STL@@@2@@_STL@@QAE?AU?$_Rb_tree_iterator@U?$pair@$$CBKV?$map@KUPLAYERINFO@CChannelMgr@@U?$less@K@_STL@@V?$allocator@U?$pair@$$CBKUPLAYERINFO@CChannelMgr@@@_STL@@@4@@_STL@@@_STL@@U?$_Nonconst_traits@U?$pair@$$CBKV?$map@KUPLAYERINFO@CChannelMgr@@U?$less@K@_STL@@V?$allocator@U?$pair@$$CBKUPLAYERINFO@CChannelMgr@@@_STL@@@4@@_STL@@@_STL@@@2@@2@XZ 004075b0 f i ChannelMgr.obj
 0001:000065c0       ?_M_erase@?$_Rb_tree@KU?$pair@$$CBKUCHANNINFO@CChannelMgr@@@_STL@@U?$_Select1st@U?$pair@$$CBKUCHANNINFO@CChannelMgr@@@_STL@@@2@U?$less@K@2@V?$allocator@U?$pair@$$CBKUCHANNINFO@CChannelMgr@@@_STL@@@2@@_STL@@AAEXPAU?$_Rb_tree_node@U?$pair@$$CBKUCHANNINFO@CChannelMgr@@@_STL@@@2@@Z 004075c0 f i ChannelMgr.obj
 0001:00006600       ?insert_unique@?$_Rb_tree@KU?$pair@$$CBKUCHANNINFO@CChannelMgr@@@_STL@@U?$_Select1st@U?$pair@$$CBKUCHANNINFO@CChannelMgr@@@_STL@@@2@U?$less@K@2@V?$allocator@U?$pair@$$CBKUCHANNINFO@CChannelMgr@@@_STL@@@2@@_STL@@QAE?AU?$_Rb_tree_iterator@U?$pair@$$CBKUCHANNINFO@CChannelMgr@@@_STL@@U?$_Nonconst_traits@U?$pair@$$CBKUCHANNINFO@CChannelMgr@@@_STL@@@2@@2@U32@ABU?$pair@$$CBKUCHANNINFO@CChannelMgr@@@2@@Z 00407600 f i ChannelMgr.obj
 0001:00006ae0       ?begin@?$_Rb_tree@KU?$pair@$$CBKUCHANNINFO@CChannelMgr@@@_STL@@U?$_Select1st@U?$pair@$$CBKUCHANNINFO@CChannelMgr@@@_STL@@@2@U?$less@K@2@V?$allocator@U?$pair@$$CBKUCHANNINFO@CChannelMgr@@@_STL@@@2@@_STL@@QAE?AU?$_Rb_tree_iterator@U?$pair@$$CBKUCHANNINFO@CChannelMgr@@@_STL@@U?$_Nonconst_traits@U?$pair@$$CBKUCHANNINFO@CChannelMgr@@@_STL@@@2@@2@XZ 00407ae0 f i ChannelMgr.obj
 0001:00006af0       ?_M_erase@?$_Rb_tree@V?$basic_string@DV?$char_traits@D@_STL@@V?$allocator@D@2@@_STL@@U?$pair@$$CBV?$basic_string@DV?$char_traits@D@_STL@@V?$allocator@D@2@@_STL@@K@2@U?$_Select1st@U?$pair@$$CBV?$basic_string@DV?$char_traits@D@_STL@@V?$allocator@D@2@@_STL@@K@_STL@@@2@U_tstring_less@@V?$allocator@U?$pair@$$CBV?$basic_string@DV?$char_traits@D@_STL@@V?$allocator@D@2@@_STL@@K@_STL@@@2@@_STL@@AAEXPAU?$_Rb_tree_node@U?$pair@$$CBV?$basic_string@DV?$char_traits@D@_STL@@V?$allocator@D@2@@_STL@@K@_STL@@@2@@Z 00407af0 f i ChannelMgr.obj
 0001:00006b30       ?insert_unique@?$_Rb_tree@V?$basic_string@DV?$char_traits@D@_STL@@V?$allocator@D@2@@_STL@@U?$pair@$$CBV?$basic_string@DV?$char_traits@D@_STL@@V?$allocator@D@2@@_STL@@K@2@U?$_Select1st@U?$pair@$$CBV?$basic_string@DV?$char_traits@D@_STL@@V?$allocator@D@2@@_STL@@K@_STL@@@2@U_tstring_less@@V?$allocator@U?$pair@$$CBV?$basic_string@DV?$char_traits@D@_STL@@V?$allocator@D@2@@_STL@@K@_STL@@@2@@_STL@@QAE?AU?$_Rb_tree_iterator@U?$pair@$$CBV?$basic_string@DV?$char_traits@D@_STL@@V?$allocator@D@2@@_STL@@K@_STL@@U?$_Nonconst_traits@U?$pair@$$CBV?$basic_string@DV?$char_traits@D@_STL@@V?$allocator@D@2@@_STL@@K@_STL@@@2@@2@U32@ABU?$pair@$$CBV?$basic_string@DV?$char_traits@D@_STL@@V?$allocator@D@2@@_STL@@K@2@@Z 00407b30 f i ChannelMgr.obj
 0001:00007090       ?begin@?$_Rb_tree@V?$basic_string@DV?$char_traits@D@_STL@@V?$allocator@D@2@@_STL@@U?$pair@$$CBV?$basic_string@DV?$char_traits@D@_STL@@V?$allocator@D@2@@_STL@@K@2@U?$_Select1st@U?$pair@$$CBV?$basic_string@DV?$char_traits@D@_STL@@V?$allocator@D@2@@_STL@@K@_STL@@@2@U_tstring_less@@V?$allocator@U?$pair@$$CBV?$basic_string@DV?$char_traits@D@_STL@@V?$allocator@D@2@@_STL@@K@_STL@@@2@@_STL@@QAE?AU?$_Rb_tree_iterator@U?$pair@$$CBV?$basic_string@DV?$char_traits@D@_STL@@V?$allocator@D@2@@_STL@@K@_STL@@U?$_Nonconst_traits@U?$pair@$$CBV?$basic_string@DV?$char_traits@D@_STL@@V?$allocator@D@2@@_STL@@K@_STL@@@2@@2@XZ 00408090 f i ChannelMgr.obj
 0001:000070a0       ?_M_erase@?$_Rb_tree@KU?$pair@$$CBKV?$list@PAU_BLOCKCHANNELOP@CChannelMgr@@V?$allocator@PAU_BLOCKCHANNELOP@CChannelMgr@@@_STL@@@_STL@@@_STL@@U?$_Select1st@U?$pair@$$CBKV?$list@PAU_BLOCKCHANNELOP@CChannelMgr@@V?$allocator@PAU_BLOCKCHANNELOP@CChannelMgr@@@_STL@@@_STL@@@_STL@@@2@U?$less@K@2@V?$allocator@U?$pair@$$CBKV?$list@PAU_BLOCKCHANNELOP@CChannelMgr@@V?$allocator@PAU_BLOCKCHANNELOP@CChannelMgr@@@_STL@@@_STL@@@_STL@@@2@@_STL@@AAEXPAU?$_Rb_tree_node@U?$pair@$$CBKV?$list@PAU_BLOCKCHANNELOP@CChannelMgr@@V?$allocator@PAU_BLOCKCHANNELOP@CChannelMgr@@@_STL@@@_STL@@@_STL@@@2@@Z 004080a0 f i ChannelMgr.obj
 0001:000070e0       ??1?$pair@$$CBKV?$list@PAU_BLOCKCHANNELOP@CChannelMgr@@V?$allocator@PAU_BLOCKCHANNELOP@CChannelMgr@@@_STL@@@_STL@@@_STL@@QAE@XZ 004080e0 f i ChannelMgr.obj
 0001:00007160       ??1?$_STLP_alloc_proxy@PAU?$_List_node@PAU_BLOCKCHANNELOP@CChannelMgr@@@_STL@@U12@V?$allocator@PAU_BLOCKCHANNELOP@CChannelMgr@@@2@@_STL@@QAE@XZ 00408160 f i ChannelMgr.obj
 0001:00007170       ?_M_copy@?$_Rb_tree@KU?$pair@$$CBKUPLAYERINFO@CChannelMgr@@@_STL@@U?$_Select1st@U?$pair@$$CBKUPLAYERINFO@CChannelMgr@@@_STL@@@2@U?$less@K@2@V?$allocator@U?$pair@$$CBKUPLAYERINFO@CChannelMgr@@@_STL@@@2@@_STL@@AAEPAU?$_Rb_tree_node@U?$pair@$$CBKUPLAYERINFO@CChannelMgr@@@_STL@@@2@PAU32@0@Z 00408170 f i ChannelMgr.obj
 0001:00007260       ?_M_erase@?$_Rb_tree@KU?$pair@$$CBKUPLAYERINFO@CChannelMgr@@@_STL@@U?$_Select1st@U?$pair@$$CBKUPLAYERINFO@CChannelMgr@@@_STL@@@2@U?$less@K@2@V?$allocator@U?$pair@$$CBKUPLAYERINFO@CChannelMgr@@@_STL@@@2@@_STL@@AAEXPAU?$_Rb_tree_node@U?$pair@$$CBKUPLAYERINFO@CChannelMgr@@@_STL@@@2@@Z 00408260 f i ChannelMgr.obj
 0001:000072a0       ?insert_unique@?$_Rb_tree@KU?$pair@$$CBKUPLAYERINFO@CChannelMgr@@@_STL@@U?$_Select1st@U?$pair@$$CBKUPLAYERINFO@CChannelMgr@@@_STL@@@2@U?$less@K@2@V?$allocator@U?$pair@$$CBKUPLAYERINFO@CChannelMgr@@@_STL@@@2@@_STL@@QAE?AU?$_Rb_tree_iterator@U?$pair@$$CBKUPLAYERINFO@CChannelMgr@@@_STL@@U?$_Nonconst_traits@U?$pair@$$CBKUPLAYERINFO@CChannelMgr@@@_STL@@@2@@2@U32@ABU?$pair@$$CBKUPLAYERINFO@CChannelMgr@@@2@@Z 004082a0 f i ChannelMgr.obj
 0001:00007780       ?begin@?$_Rb_tree@KU?$pair@$$CBKUPLAYERINFO@CChannelMgr@@@_STL@@U?$_Select1st@U?$pair@$$CBKUPLAYERINFO@CChannelMgr@@@_STL@@@2@U?$less@K@2@V?$allocator@U?$pair@$$CBKUPLAYERINFO@CChannelMgr@@@_STL@@@2@@_STL@@QAE?AU?$_Rb_tree_iterator@U?$pair@$$CBKUPLAYERINFO@CChannelMgr@@@_STL@@U?$_Nonconst_traits@U?$pair@$$CBKUPLAYERINFO@CChannelMgr@@@_STL@@@2@@2@XZ 00408780 f i ChannelMgr.obj
 0001:00007790       ?_M_range_initialize@?$basic_string@DV?$char_traits@D@_STL@@V?$allocator@D@2@@_STL@@AAEXPBD0@Z 00408790 f i ChannelMgr.obj
 0001:00007810       ?__default_constructed@_STL@@YA?AV?$map@KUPLAYERINFO@CChannelMgr@@U?$less@K@_STL@@V?$allocator@U?$pair@$$CBKUPLAYERINFO@CChannelMgr@@@_STL@@@4@@1@PAV21@@Z 00408810 f i ChannelMgr.obj
 0001:00007840       ?__default_constructed@_STL@@YA?AUCHANNINFO@CChannelMgr@@PAU23@@Z 00408840 f i ChannelMgr.obj
 0001:00007870       ?_Destroy@_STL@@YAXPAU?$pair@$$CBKUPLAYERINFO@CChannelMgr@@@1@@Z 00408870 f i ChannelMgr.obj
 0001:00007880       ?__stl_alloc_rebind@_STL@@YAAAV?$allocator@U?$_Rb_tree_node@U?$pair@$$CBKUPLAYERINFO@CChannelMgr@@@_STL@@@_STL@@@1@AAV?$allocator@U?$pair@$$CBKUPLAYERINFO@CChannelMgr@@@_STL@@@1@PBU?$_Rb_tree_node@U?$pair@$$CBKUPLAYERINFO@CChannelMgr@@@_STL@@@1@@Z 00408880 f i ChannelMgr.obj
 0001:00007890       ??_G?$pair@$$CBKV?$map@KUPLAYERINFO@CChannelMgr@@U?$less@K@_STL@@V?$allocator@U?$pair@$$CBKUPLAYERINFO@CChannelMgr@@@_STL@@@4@@_STL@@@_STL@@QAEPAXI@Z 00408890 f i ChannelMgr.obj
 0001:000078b0       ??_G?$pair@$$CBKUCHANNINFO@CChannelMgr@@@_STL@@QAEPAXI@Z 004088b0 f i ChannelMgr.obj
 0001:000078d0       ??_G?$pair@$$CBV?$basic_string@DV?$char_traits@D@_STL@@V?$allocator@D@2@@_STL@@K@_STL@@QAEPAXI@Z 004088d0 f i ChannelMgr.obj
 0001:000078f0       ?get_allocator@?$basic_string@DV?$char_traits@D@_STL@@V?$allocator@D@2@@_STL@@QBE?AV?$allocator@D@2@XZ 004088f0 f i ChannelMgr.obj
 0001:00007910       ?rend@?$basic_string@DV?$char_traits@D@_STL@@V?$allocator@D@2@@_STL@@QBE?AV?$reverse_iterator@PBDDABDPBDH@2@XZ 00408910 f i ChannelMgr.obj
 0001:00007920       ??0?$reverse_iterator@PBDDABDPBDH@_STL@@QAE@ABV01@@Z 00408920 f i ChannelMgr.obj
 0001:00007930       ??0?$reverse_iterator@PBDDABDPBDH@_STL@@QAE@PBD@Z 00408930 f i ChannelMgr.obj
 0001:00007940       ?_M_create_node@?$_Rb_tree@KU?$pair@$$CBKV?$map@KUPLAYERINFO@CChannelMgr@@U?$less@K@_STL@@V?$allocator@U?$pair@$$CBKUPLAYERINFO@CChannelMgr@@@_STL@@@4@@_STL@@@_STL@@U?$_Select1st@U?$pair@$$CBKV?$map@KUPLAYERINFO@CChannelMgr@@U?$less@K@_STL@@V?$allocator@U?$pair@$$CBKUPLAYERINFO@CChannelMgr@@@_STL@@@4@@_STL@@@_STL@@@2@U?$less@K@2@V?$allocator@U?$pair@$$CBKV?$map@KUPLAYERINFO@CChannelMgr@@U?$less@K@_STL@@V?$allocator@U?$pair@$$CBKUPLAYERINFO@CChannelMgr@@@_STL@@@4@@_STL@@@_STL@@@2@@_STL@@IAEPAU?$_Rb_tree_node@U?$pair@$$CBKV?$map@KUPLAYERINFO@CChannelMgr@@U?$less@K@_STL@@V?$allocator@U?$pair@$$CBKUPLAYERINFO@CChannelMgr@@@_STL@@@4@@_STL@@@_STL@@@2@ABU?$pair@$$CBKV?$map@KUPLAYERINFO@CChannelMgr@@U?$less@K@_STL@@V?$allocator@U?$pair@$$CBKUPLAYERINFO@CChannelMgr@@@_STL@@@4@@_STL@@@2@@Z 00408940 f i ChannelMgr.obj
 0001:00007a60       ??3@YAXPAX0@Z              00408a60 f i ChannelMgr.obj
 0001:00007a70       ?_M_empty_initialize@?$_Rb_tree@KU?$pair@$$CBKUPLAYERINFO@CChannelMgr@@@_STL@@U?$_Select1st@U?$pair@$$CBKUPLAYERINFO@CChannelMgr@@@_STL@@@2@U?$less@K@2@V?$allocator@U?$pair@$$CBKUPLAYERINFO@CChannelMgr@@@_STL@@@2@@_STL@@AAEXXZ 00408a70 f i ChannelMgr.obj
 0001:00007a90       ??0?$_Rb_tree_base@U?$pair@$$CBKUPLAYERINFO@CChannelMgr@@@_STL@@V?$allocator@U?$pair@$$CBKUPLAYERINFO@CChannelMgr@@@_STL@@@2@@_STL@@QAE@ABV?$allocator@U?$pair@$$CBKUPLAYERINFO@CChannelMgr@@@_STL@@@1@@Z 00408a90 f i ChannelMgr.obj
 0001:00007ae0       ?_M_create_node@?$_Rb_tree@KU?$pair@$$CBKUPLAYERINFO@CChannelMgr@@@_STL@@U?$_Select1st@U?$pair@$$CBKUPLAYERINFO@CChannelMgr@@@_STL@@@2@U?$less@K@2@V?$allocator@U?$pair@$$CBKUPLAYERINFO@CChannelMgr@@@_STL@@@2@@_STL@@IAEPAU?$_Rb_tree_node@U?$pair@$$CBKUPLAYERINFO@CChannelMgr@@@_STL@@@2@ABU?$pair@$$CBKUPLAYERINFO@CChannelMgr@@@2@@Z 00408ae0 f i ChannelMgr.obj
 0001:00007b10       ?_M_range_initialize@?$basic_string@DV?$char_traits@D@_STL@@V?$allocator@D@2@@_STL@@AAEXPAD0@Z 00408b10 f i ChannelMgr.obj
 0001:00007b90       ?find_if@_STL@@YA?AV?$reverse_iterator@PBDDABDPBDH@1@V21@0U?$_Eq_char_bound@V?$char_traits@D@_STL@@@1@@Z 00408b90 f i ChannelMgr.obj
 0001:00007bd0       ?find_if@_STL@@YA?AV?$reverse_iterator@PBDDABDPBDH@1@V21@0U?$_Not_within_traits@V?$char_traits@D@_STL@@@1@@Z 00408bd0 f i ChannelMgr.obj
 0001:00007c20       ?_M_insert@?$_Rb_tree@KU?$pair@$$CBKV?$map@KUPLAYERINFO@CChannelMgr@@U?$less@K@_STL@@V?$allocator@U?$pair@$$CBKUPLAYERINFO@CChannelMgr@@@_STL@@@4@@_STL@@@_STL@@U?$_Select1st@U?$pair@$$CBKV?$map@KUPLAYERINFO@CChannelMgr@@U?$less@K@_STL@@V?$allocator@U?$pair@$$CBKUPLAYERINFO@CChannelMgr@@@_STL@@@4@@_STL@@@_STL@@@2@U?$less@K@2@V?$allocator@U?$pair@$$CBKV?$map@KUPLAYERINFO@CChannelMgr@@U?$less@K@_STL@@V?$allocator@U?$pair@$$CBKUPLAYERINFO@CChannelMgr@@@_STL@@@4@@_STL@@@_STL@@@2@@_STL@@AAE?AU?$_Rb_tree_iterator@U?$pair@$$CBKV?$map@KUPLAYERINFO@CChannelMgr@@U?$less@K@_STL@@V?$allocator@U?$pair@$$CBKUPLAYERINFO@CChannelMgr@@@_STL@@@4@@_STL@@@_STL@@U?$_Nonconst_traits@U?$pair@$$CBKV?$map@KUPLAYERINFO@CChannelMgr@@U?$less@K@_STL@@V?$allocator@U?$pair@$$CBKUPLAYERINFO@CChannelMgr@@@_STL@@@4@@_STL@@@_STL@@@2@@2@PAU_Rb_tree_node_base@2@0ABU?$pair@$$CBKV?$map@KUPLAYERINFO@CChannelMgr@@U?$less@K@_STL@@V?$allocator@U?$pair@$$CBKUPLAYERINFO@CChannelMgr@@@_STL@@@4@@_STL@@@2@0@Z 00408c20 f i ChannelMgr.obj
 0001:00007cc0       ?insert_unique@?$_Rb_tree@KU?$pair@$$CBKV?$map@KUPLAYERINFO@CChannelMgr@@U?$less@K@_STL@@V?$allocator@U?$pair@$$CBKUPLAYERINFO@CChannelMgr@@@_STL@@@4@@_STL@@@_STL@@U?$_Select1st@U?$pair@$$CBKV?$map@KUPLAYERINFO@CChannelMgr@@U?$less@K@_STL@@V?$allocator@U?$pair@$$CBKUPLAYERINFO@CChannelMgr@@@_STL@@@4@@_STL@@@_STL@@@2@U?$less@K@2@V?$allocator@U?$pair@$$CBKV?$map@KUPLAYERINFO@CChannelMgr@@U?$less@K@_STL@@V?$allocator@U?$pair@$$CBKUPLAYERINFO@CChannelMgr@@@_STL@@@4@@_STL@@@_STL@@@2@@_STL@@QAE?AU?$pair@U?$_Rb_tree_iterator@U?$pair@$$CBKV?$map@KUPLAYERINFO@CChannelMgr@@U?$less@K@_STL@@V?$allocator@U?$pair@$$CBKUPLAYERINFO@CChannelMgr@@@_STL@@@4@@_STL@@@_STL@@U?$_Nonconst_traits@U?$pair@$$CBKV?$map@KUPLAYERINFO@CChannelMgr@@U?$less@K@_STL@@V?$allocator@U?$pair@$$CBKUPLAYERINFO@CChannelMgr@@@_STL@@@4@@_STL@@@_STL@@@2@@_STL@@_N@2@ABU?$pair@$$CBKV?$map@KUPLAYERINFO@CChannelMgr@@U?$less@K@_STL@@V?$allocator@U?$pair@$$CBKUPLAYERINFO@CChannelMgr@@@_STL@@@4@@_STL@@@2@@Z 00408cc0 f i ChannelMgr.obj
 0001:00007e30       ?_M_insert@?$_Rb_tree@KU?$pair@$$CBKUCHANNINFO@CChannelMgr@@@_STL@@U?$_Select1st@U?$pair@$$CBKUCHANNINFO@CChannelMgr@@@_STL@@@2@U?$less@K@2@V?$allocator@U?$pair@$$CBKUCHANNINFO@CChannelMgr@@@_STL@@@2@@_STL@@AAE?AU?$_Rb_tree_iterator@U?$pair@$$CBKUCHANNINFO@CChannelMgr@@@_STL@@U?$_Nonconst_traits@U?$pair@$$CBKUCHANNINFO@CChannelMgr@@@_STL@@@2@@2@PAU_Rb_tree_node_base@2@0ABU?$pair@$$CBKUCHANNINFO@CChannelMgr@@@2@0@Z 00408e30 f i ChannelMgr.obj
 0001:00007ed0       ?insert_unique@?$_Rb_tree@KU?$pair@$$CBKUCHANNINFO@CChannelMgr@@@_STL@@U?$_Select1st@U?$pair@$$CBKUCHANNINFO@CChannelMgr@@@_STL@@@2@U?$less@K@2@V?$allocator@U?$pair@$$CBKUCHANNINFO@CChannelMgr@@@_STL@@@2@@_STL@@QAE?AU?$pair@U?$_Rb_tree_iterator@U?$pair@$$CBKUCHANNINFO@CChannelMgr@@@_STL@@U?$_Nonconst_traits@U?$pair@$$CBKUCHANNINFO@CChannelMgr@@@_STL@@@2@@_STL@@_N@2@ABU?$pair@$$CBKUCHANNINFO@CChannelMgr@@@2@@Z 00408ed0 f i ChannelMgr.obj
 0001:00008040       ?_M_insert@?$_Rb_tree@V?$basic_string@DV?$char_traits@D@_STL@@V?$allocator@D@2@@_STL@@U?$pair@$$CBV?$basic_string@DV?$char_traits@D@_STL@@V?$allocator@D@2@@_STL@@K@2@U?$_Select1st@U?$pair@$$CBV?$basic_string@DV?$char_traits@D@_STL@@V?$allocator@D@2@@_STL@@K@_STL@@@2@U_tstring_less@@V?$allocator@U?$pair@$$CBV?$basic_string@DV?$char_traits@D@_STL@@V?$allocator@D@2@@_STL@@K@_STL@@@2@@_STL@@AAE?AU?$_Rb_tree_iterator@U?$pair@$$CBV?$basic_string@DV?$char_traits@D@_STL@@V?$allocator@D@2@@_STL@@K@_STL@@U?$_Nonconst_traits@U?$pair@$$CBV?$basic_string@DV?$char_traits@D@_STL@@V?$allocator@D@2@@_STL@@K@_STL@@@2@@2@PAU_Rb_tree_node_base@2@0ABU?$pair@$$CBV?$basic_string@DV?$char_traits@D@_STL@@V?$allocator@D@2@@_STL@@K@2@0@Z 00409040 f i ChannelMgr.obj
 0001:00008100       ?insert_unique@?$_Rb_tree@V?$basic_string@DV?$char_traits@D@_STL@@V?$allocator@D@2@@_STL@@U?$pair@$$CBV?$basic_string@DV?$char_traits@D@_STL@@V?$allocator@D@2@@_STL@@K@2@U?$_Select1st@U?$pair@$$CBV?$basic_string@DV?$char_traits@D@_STL@@V?$allocator@D@2@@_STL@@K@_STL@@@2@U_tstring_less@@V?$allocator@U?$pair@$$CBV?$basic_string@DV?$char_traits@D@_STL@@V?$allocator@D@2@@_STL@@K@_STL@@@2@@_STL@@QAE?AU?$pair@U?$_Rb_tree_iterator@U?$pair@$$CBV?$basic_string@DV?$char_traits@D@_STL@@V?$allocator@D@2@@_STL@@K@_STL@@U?$_Nonconst_traits@U?$pair@$$CBV?$basic_string@DV?$char_traits@D@_STL@@V?$allocator@D@2@@_STL@@K@_STL@@@2@@_STL@@_N@2@ABU?$pair@$$CBV?$basic_string@DV?$char_traits@D@_STL@@V?$allocator@D@2@@_STL@@K@2@@Z 00409100 f i ChannelMgr.obj
 0001:000082f0       ?_M_insert@?$_Rb_tree@KU?$pair@$$CBKUPLAYERINFO@CChannelMgr@@@_STL@@U?$_Select1st@U?$pair@$$CBKUPLAYERINFO@CChannelMgr@@@_STL@@@2@U?$less@K@2@V?$allocator@U?$pair@$$CBKUPLAYERINFO@CChannelMgr@@@_STL@@@2@@_STL@@AAE?AU?$_Rb_tree_iterator@U?$pair@$$CBKUPLAYERINFO@CChannelMgr@@@_STL@@U?$_Nonconst_traits@U?$pair@$$CBKUPLAYERINFO@CChannelMgr@@@_STL@@@2@@2@PAU_Rb_tree_node_base@2@0ABU?$pair@$$CBKUPLAYERINFO@CChannelMgr@@@2@0@Z 004092f0 f i ChannelMgr.obj
 0001:00008390       ?insert_unique@?$_Rb_tree@KU?$pair@$$CBKUPLAYERINFO@CChannelMgr@@@_STL@@U?$_Select1st@U?$pair@$$CBKUPLAYERINFO@CChannelMgr@@@_STL@@@2@U?$less@K@2@V?$allocator@U?$pair@$$CBKUPLAYERINFO@CChannelMgr@@@_STL@@@2@@_STL@@QAE?AU?$pair@U?$_Rb_tree_iterator@U?$pair@$$CBKUPLAYERINFO@CChannelMgr@@@_STL@@U?$_Nonconst_traits@U?$pair@$$CBKUPLAYERINFO@CChannelMgr@@@_STL@@@2@@_STL@@_N@2@ABU?$pair@$$CBKUPLAYERINFO@CChannelMgr@@@2@@Z 00409390 f i ChannelMgr.obj
 0001:00008500       ?_M_range_initialize@?$basic_string@DV?$char_traits@D@_STL@@V?$allocator@D@2@@_STL@@AAEXPBD0ABUforward_iterator_tag@2@@Z 00409500 f i ChannelMgr.obj
 0001:00008580       ?_M_assign_dispatch@?$basic_string@DV?$char_traits@D@_STL@@V?$allocator@D@2@@_STL@@AAEAAV12@PAD0ABU__false_type@2@@Z 00409580 f i ChannelMgr.obj
 0001:00008600       ?__default_constructed_aux@_STL@@YA?AV?$map@KUPLAYERINFO@CChannelMgr@@U?$less@K@_STL@@V?$allocator@U?$pair@$$CBKUPLAYERINFO@CChannelMgr@@@_STL@@@4@@1@PAV21@ABU__false_type@1@@Z 00409600 f i ChannelMgr.obj
 0001:00008670       ?_M_find@?$_Rb_tree@KU?$pair@$$CBKV?$map@KUPLAYERINFO@CChannelMgr@@U?$less@K@_STL@@V?$allocator@U?$pair@$$CBKUPLAYERINFO@CChannelMgr@@@_STL@@@4@@_STL@@@_STL@@U?$_Select1st@U?$pair@$$CBKV?$map@KUPLAYERINFO@CChannelMgr@@U?$less@K@_STL@@V?$allocator@U?$pair@$$CBKUPLAYERINFO@CChannelMgr@@@_STL@@@4@@_STL@@@_STL@@@2@U?$less@K@2@V?$allocator@U?$pair@$$CBKV?$map@KUPLAYERINFO@CChannelMgr@@U?$less@K@_STL@@V?$allocator@U?$pair@$$CBKUPLAYERINFO@CChannelMgr@@@_STL@@@4@@_STL@@@_STL@@@2@@_STL@@ABEPAU?$_Rb_tree_node@U?$pair@$$CBKV?$map@KUPLAYERINFO@CChannelMgr@@U?$less@K@_STL@@V?$allocator@U?$pair@$$CBKUPLAYERINFO@CChannelMgr@@@_STL@@@4@@_STL@@@_STL@@@2@ABK@Z 00409670 f i ChannelMgr.obj
 0001:000086b0       ?__default_constructed_aux@_STL@@YA?AUCHANNINFO@CChannelMgr@@PAU23@ABU__false_type@1@@Z 004096b0 f i ChannelMgr.obj
 0001:00008750       ?_M_find@?$_Rb_tree@KU?$pair@$$CBKUCHANNINFO@CChannelMgr@@@_STL@@U?$_Select1st@U?$pair@$$CBKUCHANNINFO@CChannelMgr@@@_STL@@@2@U?$less@K@2@V?$allocator@U?$pair@$$CBKUCHANNINFO@CChannelMgr@@@_STL@@@2@@_STL@@ABEPAU?$_Rb_tree_node@U?$pair@$$CBKUCHANNINFO@CChannelMgr@@@_STL@@@2@ABK@Z 00409750 f i ChannelMgr.obj
 0001:00008790       ?_M_find@?$_Rb_tree@V?$basic_string@DV?$char_traits@D@_STL@@V?$allocator@D@2@@_STL@@U?$pair@$$CBV?$basic_string@DV?$char_traits@D@_STL@@V?$allocator@D@2@@_STL@@K@2@U?$_Select1st@U?$pair@$$CBV?$basic_string@DV?$char_traits@D@_STL@@V?$allocator@D@2@@_STL@@K@_STL@@@2@U_tstring_less@@V?$allocator@U?$pair@$$CBV?$basic_string@DV?$char_traits@D@_STL@@V?$allocator@D@2@@_STL@@K@_STL@@@2@@_STL@@ABEPAU?$_Rb_tree_node@U?$pair@$$CBV?$basic_string@DV?$char_traits@D@_STL@@V?$allocator@D@2@@_STL@@K@_STL@@@2@ABV?$basic_string@DV?$char_traits@D@_STL@@V?$allocator@D@2@@2@@Z 00409790 f i ChannelMgr.obj
 0001:00008830       ?_M_find@?$_Rb_tree@KU?$pair@$$CBKUPLAYERINFO@CChannelMgr@@@_STL@@U?$_Select1st@U?$pair@$$CBKUPLAYERINFO@CChannelMgr@@@_STL@@@2@U?$less@K@2@V?$allocator@U?$pair@$$CBKUPLAYERINFO@CChannelMgr@@@_STL@@@2@@_STL@@ABEPAU?$_Rb_tree_node@U?$pair@$$CBKUPLAYERINFO@CChannelMgr@@@_STL@@@2@ABK@Z 00409830 f i ChannelMgr.obj
 0001:00008870       ?_M_append_dispatch@?$basic_string@DV?$char_traits@D@_STL@@V?$allocator@D@2@@_STL@@AAEAAV12@PBD0ABU__false_type@2@@Z 00409870 f i ChannelMgr.obj
 0001:000088a0       ?__distance@_STL@@YAHABU?$_Rb_tree_iterator@U?$pair@$$CBV?$basic_string@DV?$char_traits@D@_STL@@V?$allocator@D@2@@_STL@@K@_STL@@U?$_Nonconst_traits@U?$pair@$$CBV?$basic_string@DV?$char_traits@D@_STL@@V?$allocator@D@2@@_STL@@K@_STL@@@2@@1@0ABUinput_iterator_tag@1@@Z 004098a0 f i ChannelMgr.obj
 0001:000088d0       ?__distance@_STL@@YAHABU?$_Rb_tree_iterator@U?$pair@$$CBKUPLAYERINFO@CChannelMgr@@@_STL@@U?$_Nonconst_traits@U?$pair@$$CBKUPLAYERINFO@CChannelMgr@@@_STL@@@2@@1@0ABUinput_iterator_tag@1@@Z 004098d0 f i ChannelMgr.obj
 0001:00008900       ??_G?$pair@$$CBKV?$list@PAU_BLOCKCHANNELOP@CChannelMgr@@V?$allocator@PAU_BLOCKCHANNELOP@CChannelMgr@@@_STL@@@_STL@@@_STL@@QAEPAXI@Z 00409900 f i ChannelMgr.obj
 0001:00008920       ?_M_create_node@?$_Rb_tree@KU?$pair@$$CBKUCHANNINFO@CChannelMgr@@@_STL@@U?$_Select1st@U?$pair@$$CBKUCHANNINFO@CChannelMgr@@@_STL@@@2@U?$less@K@2@V?$allocator@U?$pair@$$CBKUCHANNINFO@CChannelMgr@@@_STL@@@2@@_STL@@IAEPAU?$_Rb_tree_node@U?$pair@$$CBKUCHANNINFO@CChannelMgr@@@_STL@@@2@ABU?$pair@$$CBKUCHANNINFO@CChannelMgr@@@2@@Z 00409920 f i ChannelMgr.obj
 0001:00008a10       ??0?$_Rb_tree@KU?$pair@$$CBKV?$map@KUPLAYERINFO@CChannelMgr@@U?$less@K@_STL@@V?$allocator@U?$pair@$$CBKUPLAYERINFO@CChannelMgr@@@_STL@@@4@@_STL@@@_STL@@U?$_Select1st@U?$pair@$$CBKV?$map@KUPLAYERINFO@CChannelMgr@@U?$less@K@_STL@@V?$allocator@U?$pair@$$CBKUPLAYERINFO@CChannelMgr@@@_STL@@@4@@_STL@@@_STL@@@2@U?$less@K@2@V?$allocator@U?$pair@$$CBKV?$map@KUPLAYERINFO@CChannelMgr@@U?$less@K@_STL@@V?$allocator@U?$pair@$$CBKUPLAYERINFO@CChannelMgr@@@_STL@@@4@@_STL@@@_STL@@@2@@_STL@@QAE@ABV01@@Z 00409a10 f i ChannelMgr.obj
 0001:00008b00       ?_M_create_node@?$_Rb_tree@V?$basic_string@DV?$char_traits@D@_STL@@V?$allocator@D@2@@_STL@@U?$pair@$$CBV?$basic_string@DV?$char_traits@D@_STL@@V?$allocator@D@2@@_STL@@K@2@U?$_Select1st@U?$pair@$$CBV?$basic_string@DV?$char_traits@D@_STL@@V?$allocator@D@2@@_STL@@K@_STL@@@2@U_tstring_less@@V?$allocator@U?$pair@$$CBV?$basic_string@DV?$char_traits@D@_STL@@V?$allocator@D@2@@_STL@@K@_STL@@@2@@_STL@@IAEPAU?$_Rb_tree_node@U?$pair@$$CBV?$basic_string@DV?$char_traits@D@_STL@@V?$allocator@D@2@@_STL@@K@_STL@@@2@ABU?$pair@$$CBV?$basic_string@DV?$char_traits@D@_STL@@V?$allocator@D@2@@_STL@@K@2@@Z 00409b00 f i ChannelMgr.obj
 0001:00008bc0       ?uninitialized_copy@_STL@@YAPADPAD00@Z 00409bc0 f i ChannelMgr.obj
 0001:00008bf0       ??0?$pair@U?$_Rb_tree_iterator@U?$pair@$$CBKV?$map@KUPLAYERINFO@CChannelMgr@@U?$less@K@_STL@@V?$allocator@U?$pair@$$CBKUPLAYERINFO@CChannelMgr@@@_STL@@@4@@_STL@@@_STL@@U?$_Nonconst_traits@U?$pair@$$CBKV?$map@KUPLAYERINFO@CChannelMgr@@U?$less@K@_STL@@V?$allocator@U?$pair@$$CBKUPLAYERINFO@CChannelMgr@@@_STL@@@4@@_STL@@@_STL@@@2@@_STL@@_N@_STL@@QAE@ABU?$_Rb_tree_iterator@U?$pair@$$CBKV?$map@KUPLAYERINFO@CChannelMgr@@U?$less@K@_STL@@V?$allocator@U?$pair@$$CBKUPLAYERINFO@CChannelMgr@@@_STL@@@4@@_STL@@@_STL@@U?$_Nonconst_traits@U?$pair@$$CBKV?$map@KUPLAYERINFO@CChannelMgr@@U?$less@K@_STL@@V?$allocator@U?$pair@$$CBKUPLAYERINFO@CChannelMgr@@@_STL@@@4@@_STL@@@_STL@@@2@@1@AB_N@Z 00409bf0 f i ChannelMgr.obj
 0001:00008c10       ??0?$pair@U?$_Rb_tree_iterator@U?$pair@$$CBKUCHANNINFO@CChannelMgr@@@_STL@@U?$_Nonconst_traits@U?$pair@$$CBKUCHANNINFO@CChannelMgr@@@_STL@@@2@@_STL@@_N@_STL@@QAE@ABU?$_Rb_tree_iterator@U?$pair@$$CBKUCHANNINFO@CChannelMgr@@@_STL@@U?$_Nonconst_traits@U?$pair@$$CBKUCHANNINFO@CChannelMgr@@@_STL@@@2@@1@AB_N@Z 00409c10 f i ChannelMgr.obj
 0001:00008c30       ??0?$pair@U?$_Rb_tree_iterator@U?$pair@$$CBV?$basic_string@DV?$char_traits@D@_STL@@V?$allocator@D@2@@_STL@@K@_STL@@U?$_Nonconst_traits@U?$pair@$$CBV?$basic_string@DV?$char_traits@D@_STL@@V?$allocator@D@2@@_STL@@K@_STL@@@2@@_STL@@_N@_STL@@QAE@ABU?$_Rb_tree_iterator@U?$pair@$$CBV?$basic_string@DV?$char_traits@D@_STL@@V?$allocator@D@2@@_STL@@K@_STL@@U?$_Nonconst_traits@U?$pair@$$CBV?$basic_string@DV?$char_traits@D@_STL@@V?$allocator@D@2@@_STL@@K@_STL@@@2@@1@AB_N@Z 00409c30 f i ChannelMgr.obj
 0001:00008c50       ??0?$pair@U?$_Rb_tree_iterator@U?$pair@$$CBKUPLAYERINFO@CChannelMgr@@@_STL@@U?$_Nonconst_traits@U?$pair@$$CBKUPLAYERINFO@CChannelMgr@@@_STL@@@2@@_STL@@_N@_STL@@QAE@ABU?$_Rb_tree_iterator@U?$pair@$$CBKUPLAYERINFO@CChannelMgr@@@_STL@@U?$_Nonconst_traits@U?$pair@$$CBKUPLAYERINFO@CChannelMgr@@@_STL@@@2@@1@AB_N@Z 00409c50 f i ChannelMgr.obj
 0001:00008c70       ?move@?$__char_traits_base@DH@_STL@@SAPADPADPBDI@Z 00409c70 f i ChannelMgr.obj
 0001:00008ca0       ?_M_allocate_block@?$_String_base@DV?$allocator@D@_STL@@@_STL@@QAEXI@Z 00409ca0 f i ChannelMgr.obj
 0001:00008d00       ?__find_if@_STL@@YA?AV?$reverse_iterator@PBDDABDPBDH@1@V21@0U?$_Eq_char_bound@V?$char_traits@D@_STL@@@1@ABUrandom_access_iterator_tag@1@@Z 00409d00 f i ChannelMgr.obj
 0001:00008da0       ?__find_if@_STL@@YA?AV?$reverse_iterator@PBDDABDPBDH@1@V21@0U?$_Not_within_traits@V?$char_traits@D@_STL@@@1@ABUrandom_access_iterator_tag@1@@Z 00409da0 f i ChannelMgr.obj
 0001:00008f60       ?append@?$basic_string@DV?$char_traits@D@_STL@@V?$allocator@D@2@@_STL@@AAEAAV12@PBD0ABUforward_iterator_tag@2@@Z 00409f60 f i ChannelMgr.obj
 0001:000090f0       ?__copy_aux@_STL@@YAPADPAD00ABU__true_type@1@@Z 0040a0f0 f i ChannelMgr.obj
 0001:00009120       ?__copy_ptrs@_STL@@YAPADPAD00ABU__false_type@1@@Z 0040a120 f i ChannelMgr.obj
 0001:00009150       ?append@?$basic_string@DV?$char_traits@D@_STL@@V?$allocator@D@2@@_STL@@AAEAAV12@PAD0ABUforward_iterator_tag@2@@Z 0040a150 f i ChannelMgr.obj
 0001:000092a0       ?__find_if@_STL@@YAPADPAD0U?$_Eq_char_bound@V?$char_traits@D@_STL@@@1@ABUrandom_access_iterator_tag@1@@Z 0040a2a0 f i ChannelMgr.obj
 0001:00009300       ?__copy@_STL@@YAPADPAD00ABUrandom_access_iterator_tag@1@PAH@Z 0040a300 f i ChannelMgr.obj
 0001:00009330       ??0CChatConnect@@QAE@PAVCChatServer@@K@Z 0040a330 f   ChatConnect.obj
 0001:00009360       ?BeginRoute@CNetConnect@@MAEXXZ 0040a360 f i ChatConnect.obj
 0001:00009370       ?EndRoute@CNetConnect@@MAEXXZ 0040a370 f i ChatConnect.obj
 0001:00009380       ??_ECChatConnect@@UAEPAXI@Z 0040a380 f i ChatConnect.obj
 0001:00009380       ??_GCChatConnect@@UAEPAXI@Z 0040a380 f i ChatConnect.obj
 0001:000093a0       ??1CChatConnect@@UAE@XZ    0040a3a0 f   ChatConnect.obj
 0001:000093c0       ?OnClientConnectCreate@CChatConnect@@MAEXXZ 0040a3c0 f   ChatConnect.obj
 0001:000093e0       ?OnClientConnectClose@CChatConnect@@MAEXXZ 0040a3e0 f   ChatConnect.obj
 0001:00009400       ?RecvPackage@CChatConnect@@MAEXPBXI@Z 0040a400 f   ChatConnect.obj
 0001:00009440       ?Proc0_SomeoneChat@CChatConnect@@AAEXPBXI@Z 0040a440 f   ChatConnect.obj
 0001:00009460       ?Proc0_ChannelChat@CChatConnect@@AAEXPBXI@Z 0040a460 f   ChatConnect.obj
 0001:00009480       ?Proc0_GroupMan@CChatConnect@@AAEXPBXI@Z 0040a480 f   ChatConnect.obj
 0001:00009590       ??0CChatServer@@QAE@XZ     0040a590 f   ChatServer.obj
 0001:00009630       ??_GCChatServer@@UAEPAXI@Z 0040a630 f i ChatServer.obj
 0001:00009630       ??_ECChatServer@@UAEPAXI@Z 0040a630 f i ChatServer.obj
 0001:00009650       ??1?$map@KPAVCChatConnect@@U?$less@K@_STL@@V?$allocator@U?$pair@$$CBKPAVCChatConnect@@@_STL@@@3@@_STL@@QAE@XZ 0040a650 f i ChatServer.obj
 0001:000096f0       ??1CChatServer@@UAE@XZ     0040a6f0 f   ChatServer.obj
 0001:000097c0       ?CreateConnect@CChatServer@@MAEPAVCNetConnect@@PAVCNetServer@@K@Z 0040a7c0 f   ChatServer.obj
 0001:00009830       ?DestroyConnect@CChatServer@@MAEXPAVCNetConnect@@@Z 0040a830 f   ChatServer.obj
 0001:00009850       ?OnBuildup@CChatServer@@MAEXXZ 0040a850 f   ChatServer.obj
 0001:000098b0       ??1KAutoLockWrite@@QAE@XZ  0040a8b0 f i ChatServer.obj
 0001:000098c0       ?OnClearup@CChatServer@@MAEXXZ 0040a8c0 f   ChatServer.obj
 0001:00009970       ?OnClientConnectCreate@CChatServer@@MAEXPAVCNetConnect@@@Z 0040a970 f   ChatServer.obj
 0001:00009a30       ?OnClientConnectClose@CChatServer@@MAEXPAVCNetConnect@@@Z 0040aa30 f   ChatServer.obj
 0001:00009b00       ?FindChatConnectByIP@CChatServer@@QAE?AVCNetConnectDup@@K@Z 0040ab00 f   ChatServer.obj
 0001:00009bd0       ??1KAutoLockRead@@QAE@XZ   0040abd0 f i ChatServer.obj
 0001:00009be0       ?TraceInfo@CChatServer@@QAEHXZ 0040abe0 f   ChatServer.obj
 0001:00009db0       ?insert@?$map@KPAVCChatConnect@@U?$less@K@_STL@@V?$allocator@U?$pair@$$CBKPAVCChatConnect@@@_STL@@@3@@_STL@@QAE?AU?$_Rb_tree_iterator@U?$pair@$$CBKPAVCChatConnect@@@_STL@@U?$_Nonconst_traits@U?$pair@$$CBKPAVCChatConnect@@@_STL@@@2@@2@U32@ABU?$pair@$$CBKPAVCChatConnect@@@2@@Z 0040adb0 f i ChatServer.obj
 0001:00009de0       ??1?$_Rb_tree_base@U?$pair@$$CBKPAVCChatConnect@@@_STL@@V?$allocator@U?$pair@$$CBKPAVCChatConnect@@@_STL@@@2@@_STL@@QAE@XZ 0040ade0 f i ChatServer.obj
 0001:00009e30       ??1?$allocator@U?$pair@$$CBKPAVCChatConnect@@@_STL@@@_STL@@QAE@XZ 0040ae30 f i ChatServer.obj
 0001:00009e40       ??0?$_Rb_tree_iterator@U?$pair@$$CBKPAVCChatConnect@@@_STL@@U?$_Nonconst_traits@U?$pair@$$CBKPAVCChatConnect@@@_STL@@@2@@_STL@@QAE@ABU01@@Z 0040ae40 f i ChatServer.obj
 0001:00009e50       ??1?$_STLP_alloc_proxy@PAU?$_Rb_tree_node@U?$pair@$$CBKPAVCChatConnect@@@_STL@@@_STL@@U12@V?$allocator@U?$pair@$$CBKPAVCChatConnect@@@_STL@@@2@@_STL@@QAE@XZ 0040ae50 f i ChatServer.obj
 0001:00009e60       ?erase@?$_Rb_tree@KU?$pair@$$CBKPAVCChatConnect@@@_STL@@U?$_Select1st@U?$pair@$$CBKPAVCChatConnect@@@_STL@@@2@U?$less@K@2@V?$allocator@U?$pair@$$CBKPAVCChatConnect@@@_STL@@@2@@_STL@@QAEXU?$_Rb_tree_iterator@U?$pair@$$CBKPAVCChatConnect@@@_STL@@U?$_Nonconst_traits@U?$pair@$$CBKPAVCChatConnect@@@_STL@@@2@@2@0@Z 0040ae60 f i ChatServer.obj
 0001:00009ef0       ?lower_bound@?$_Rb_tree@KU?$pair@$$CBKPAVCChatConnect@@@_STL@@U?$_Select1st@U?$pair@$$CBKPAVCChatConnect@@@_STL@@@2@U?$less@K@2@V?$allocator@U?$pair@$$CBKPAVCChatConnect@@@_STL@@@2@@_STL@@QAE?AU?$_Rb_tree_iterator@U?$pair@$$CBKPAVCChatConnect@@@_STL@@U?$_Nonconst_traits@U?$pair@$$CBKPAVCChatConnect@@@_STL@@@2@@2@ABK@Z 0040aef0 f i ChatServer.obj
 0001:00009f30       ?erase@?$_Rb_tree@KU?$pair@$$CBKPAVCChatConnect@@@_STL@@U?$_Select1st@U?$pair@$$CBKPAVCChatConnect@@@_STL@@@2@U?$less@K@2@V?$allocator@U?$pair@$$CBKPAVCChatConnect@@@_STL@@@2@@_STL@@QAEXU?$_Rb_tree_iterator@U?$pair@$$CBKPAVCChatConnect@@@_STL@@U?$_Nonconst_traits@U?$pair@$$CBKPAVCChatConnect@@@_STL@@@2@@2@@Z 0040af30 f i ChatServer.obj
 0001:00009f70       ??0?$pair@U?$_Rb_tree_iterator@U?$pair@$$CBKPAVCChatConnect@@@_STL@@U?$_Nonconst_traits@U?$pair@$$CBKPAVCChatConnect@@@_STL@@@2@@_STL@@U12@@_STL@@QAE@ABU?$_Rb_tree_iterator@U?$pair@$$CBKPAVCChatConnect@@@_STL@@U?$_Nonconst_traits@U?$pair@$$CBKPAVCChatConnect@@@_STL@@@2@@1@0@Z 0040af70 f i ChatServer.obj
 0001:00009f90       ?deallocate@?$allocator@U?$_Rb_tree_node@U?$pair@$$CBKPAVCChatConnect@@@_STL@@@_STL@@@_STL@@QBEXPAU?$_Rb_tree_node@U?$pair@$$CBKPAVCChatConnect@@@_STL@@@2@I@Z 0040af90 f i ChatServer.obj
 0001:00009fd0       ?_M_upper_bound@?$_Rb_tree@KU?$pair@$$CBKPAVCChatConnect@@@_STL@@U?$_Select1st@U?$pair@$$CBKPAVCChatConnect@@@_STL@@@2@U?$less@K@2@V?$allocator@U?$pair@$$CBKPAVCChatConnect@@@_STL@@@2@@_STL@@ABEPAU?$_Rb_tree_node@U?$pair@$$CBKPAVCChatConnect@@@_STL@@@2@ABK@Z 0040afd0 f i ChatServer.obj
 0001:0000a000       ?_M_erase@?$_Rb_tree@KU?$pair@$$CBKPAVCChatConnect@@@_STL@@U?$_Select1st@U?$pair@$$CBKPAVCChatConnect@@@_STL@@@2@U?$less@K@2@V?$allocator@U?$pair@$$CBKPAVCChatConnect@@@_STL@@@2@@_STL@@AAEXPAU?$_Rb_tree_node@U?$pair@$$CBKPAVCChatConnect@@@_STL@@@2@@Z 0040b000 f i ChatServer.obj
 0001:0000a040       ?insert_unique@?$_Rb_tree@KU?$pair@$$CBKPAVCChatConnect@@@_STL@@U?$_Select1st@U?$pair@$$CBKPAVCChatConnect@@@_STL@@@2@U?$less@K@2@V?$allocator@U?$pair@$$CBKPAVCChatConnect@@@_STL@@@2@@_STL@@QAE?AU?$_Rb_tree_iterator@U?$pair@$$CBKPAVCChatConnect@@@_STL@@U?$_Nonconst_traits@U?$pair@$$CBKPAVCChatConnect@@@_STL@@@2@@2@U32@ABU?$pair@$$CBKPAVCChatConnect@@@2@@Z 0040b040 f i ChatServer.obj
 0001:0000a520       ?begin@?$_Rb_tree@KU?$pair@$$CBKPAVCChatConnect@@@_STL@@U?$_Select1st@U?$pair@$$CBKPAVCChatConnect@@@_STL@@@2@U?$less@K@2@V?$allocator@U?$pair@$$CBKPAVCChatConnect@@@_STL@@@2@@_STL@@QAE?AU?$_Rb_tree_iterator@U?$pair@$$CBKPAVCChatConnect@@@_STL@@U?$_Nonconst_traits@U?$pair@$$CBKPAVCChatConnect@@@_STL@@@2@@2@XZ 0040b520 f i ChatServer.obj
 0001:0000a530       ?_M_insert@?$_Rb_tree@KU?$pair@$$CBKPAVCChatConnect@@@_STL@@U?$_Select1st@U?$pair@$$CBKPAVCChatConnect@@@_STL@@@2@U?$less@K@2@V?$allocator@U?$pair@$$CBKPAVCChatConnect@@@_STL@@@2@@_STL@@AAE?AU?$_Rb_tree_iterator@U?$pair@$$CBKPAVCChatConnect@@@_STL@@U?$_Nonconst_traits@U?$pair@$$CBKPAVCChatConnect@@@_STL@@@2@@2@PAU_Rb_tree_node_base@2@0ABU?$pair@$$CBKPAVCChatConnect@@@2@0@Z 0040b530 f i ChatServer.obj
 0001:0000a5d0       ?insert_unique@?$_Rb_tree@KU?$pair@$$CBKPAVCChatConnect@@@_STL@@U?$_Select1st@U?$pair@$$CBKPAVCChatConnect@@@_STL@@@2@U?$less@K@2@V?$allocator@U?$pair@$$CBKPAVCChatConnect@@@_STL@@@2@@_STL@@QAE?AU?$pair@U?$_Rb_tree_iterator@U?$pair@$$CBKPAVCChatConnect@@@_STL@@U?$_Nonconst_traits@U?$pair@$$CBKPAVCChatConnect@@@_STL@@@2@@_STL@@_N@2@ABU?$pair@$$CBKPAVCChatConnect@@@2@@Z 0040b5d0 f i ChatServer.obj
 0001:0000a740       ?_M_find@?$_Rb_tree@KU?$pair@$$CBKPAVCChatConnect@@@_STL@@U?$_Select1st@U?$pair@$$CBKPAVCChatConnect@@@_STL@@@2@U?$less@K@2@V?$allocator@U?$pair@$$CBKPAVCChatConnect@@@_STL@@@2@@_STL@@ABEPAU?$_Rb_tree_node@U?$pair@$$CBKPAVCChatConnect@@@_STL@@@2@ABK@Z 0040b740 f i ChatServer.obj
 0001:0000a780       ?_M_create_node@?$_Rb_tree@KU?$pair@$$CBKPAVCChatConnect@@@_STL@@U?$_Select1st@U?$pair@$$CBKPAVCChatConnect@@@_STL@@@2@U?$less@K@2@V?$allocator@U?$pair@$$CBKPAVCChatConnect@@@_STL@@@2@@_STL@@IAEPAU?$_Rb_tree_node@U?$pair@$$CBKPAVCChatConnect@@@_STL@@@2@ABU?$pair@$$CBKPAVCChatConnect@@@2@@Z 0040b780 f i ChatServer.obj
 0001:0000a7b0       ??0?$pair@U?$_Rb_tree_iterator@U?$pair@$$CBKPAVCChatConnect@@@_STL@@U?$_Nonconst_traits@U?$pair@$$CBKPAVCChatConnect@@@_STL@@@2@@_STL@@_N@_STL@@QAE@ABU?$_Rb_tree_iterator@U?$pair@$$CBKPAVCChatConnect@@@_STL@@U?$_Nonconst_traits@U?$pair@$$CBKPAVCChatConnect@@@_STL@@@2@@1@AB_N@Z 0040b7b0 f i ChatServer.obj
 0001:0000a7d0       ??0CDBCenter@@QAE@XZ       0040b7d0 f   DBConnect.obj
 0001:0000a7f0       ?OnBuildup@CNetCenter@@MAEXXZ 0040b7f0 f i DBConnect.obj
 0001:0000a800       ?OnClearup@CNetCenter@@MAEXXZ 0040b800 f i DBConnect.obj
 0001:0000a810       ?OnServerEventCreate@CNetCenter@@MAEXPAVCNetClient@@@Z 0040b810 f i DBConnect.obj
 0001:0000a820       ?OnServerEventClose@CNetCenter@@MAEXPAVCNetClient@@@Z 0040b820 f i DBConnect.obj
 0001:0000a830       ??_ECDBCenter@@UAEPAXI@Z   0040b830 f i DBConnect.obj
 0001:0000a830       ??_GCDBCenter@@UAEPAXI@Z   0040b830 f i DBConnect.obj
 0001:0000a850       ??1CDBCenter@@UAE@XZ       0040b850 f   DBConnect.obj
 0001:0000a860       ?TraceInfo@CDBCenter@@QAEHXZ 0040b860 f   DBConnect.obj
 0001:0000aa00       ??0CDBClient@@QAE@PAVCDBCenter@@H@Z 0040ba00 f   DBConnect.obj
 0001:0000aa20       ?OnStartupFail@CNetClient@@MAEXXZ 0040ba20 f i DBConnect.obj
 0001:0000aa30       ?OnShutdownFail@CNetClient@@MAEXXZ 0040ba30 f i DBConnect.obj
 0001:0000aa40       ?BeginRoute@CNetClient@@MAEXXZ 0040ba40 f i DBConnect.obj
 0001:0000aa50       ?EndRoute@CNetClient@@MAEXXZ 0040ba50 f i DBConnect.obj
 0001:0000aa60       ?DeleteThis@CNetClient@@MAEXXZ 0040ba60 f i DBConnect.obj
 0001:0000aa70       ??_ECDBClient@@UAEPAXI@Z   0040ba70 f i DBConnect.obj
 0001:0000aa70       ??_GCDBClient@@UAEPAXI@Z   0040ba70 f i DBConnect.obj
 0001:0000aa90       ??1CDBClient@@UAE@XZ       0040ba90 f   DBConnect.obj
 0001:0000aaa0       ?OnServerEventCreate@CDBClient@@MAEXXZ 0040baa0 f   DBConnect.obj
 0001:0000aad0       ?OnServerEventClose@CDBClient@@MAEXXZ 0040bad0 f   DBConnect.obj
 0001:0000aaf0       ?RecvPackage@CDBClient@@MAEXPBXI@Z 0040baf0 f   DBConnect.obj
 0001:0000abe0       ??0ZDBTable@@QAE@PBD0@Z    0040bbe0 f   DBTable.obj
 0001:0000acf0       ??_EZDBTable@@UAEPAXI@Z    0040bcf0 f i DBTable.obj
 0001:0000acf0       ??_GZDBTable@@UAEPAXI@Z    0040bcf0 f i DBTable.obj
 0001:0000ad10       ??1ZDBTable@@UAE@XZ        0040bd10 f   DBTable.obj
 0001:0000ad30       ?addIndex@ZDBTable@@QAEHP6AHPAU__db@@PBU__db_dbt@@1PAU3@@Z_N@Z 0040bd30 f   DBTable.obj
 0001:0000ad80       ?open@ZDBTable@@QAE_NXZ    0040bd80 f   DBTable.obj
 0001:0000af00       ?close@ZDBTable@@QAEXXZ    0040bf00 f   DBTable.obj
 0001:0000af50       ?commit@ZDBTable@@QAE_NXZ  0040bf50 f   DBTable.obj
 0001:0000af60       ?add@ZDBTable@@QAE_NPBDH0H@Z 0040bf60 f   DBTable.obj
 0001:0000afd0       ?remove@ZDBTable@@QAE_NPBDHH@Z 0040bfd0 f   DBTable.obj
 0001:0000b020       ?_search@ZDBTable@@IAEPAD_NPBDHAAHH@Z 0040c020 f   DBTable.obj
 0001:0000b1f0       ?_next@ZDBTable@@IAEPAD_NAAH@Z 0040c1f0 f   DBTable.obj
 0001:0000b300       ?GetRecord@ZDBTable@@QAEPADAAHW4CursorPointer@1@H@Z 0040c300 f   DBTable.obj
 0001:0000b3d0       ?GetRecord_key@ZDBTable@@QAEPADAAHW4CursorPointer@1@H@Z 0040c3d0 f   DBTable.obj
 0001:0000b4a0       ?GetRecordEx@ZDBTable@@QAE_NPADAAH01W4CursorPointer@1@H@Z 0040c4a0 f   DBTable.obj
 0001:0000b580       ??0CDBTableReadOnly@@QAE@PBD0@Z 0040c580 f   DBTable.obj
 0001:0000b680       ??_GCDBTableReadOnly@@UAEPAXI@Z 0040c680 f i DBTable.obj
 0001:0000b680       ??_ECDBTableReadOnly@@UAEPAXI@Z 0040c680 f i DBTable.obj
 0001:0000b6a0       ??1CDBTableReadOnly@@UAE@XZ 0040c6a0 f   DBTable.obj
 0001:0000b6c0       ?open@CDBTableReadOnly@@QAE_NXZ 0040c6c0 f   DBTable.obj
 0001:0000b710       ?close@CDBTableReadOnly@@QAEXXZ 0040c710 f   DBTable.obj
 0001:0000b730       ?_search@CDBTableReadOnly@@IAEPAD_NPBDHAAH@Z 0040c730 f   DBTable.obj
 0001:0000b800       ?_next@CDBTableReadOnly@@IAEPAD_NAAH@Z 0040c800 f   DBTable.obj
 0001:0000b920       ?GetRecord@CDBTableReadOnly@@QAEPADAAHW4CursorPointer@1@@Z 0040c920 f   DBTable.obj
 0001:0000b9e0       ?GetRecord_key@CDBTableReadOnly@@QAEPADAAHW4CursorPointer@1@@Z 0040c9e0 f   DBTable.obj
 0001:0000baa0       ?GetRecordEx@CDBTableReadOnly@@QAE_NPADAAH01W4CursorPointer@1@@Z 0040caa0 f   DBTable.obj
 0001:0000bb70       ?_Proc2_Relay_AskWay_AccountRoleID@dealrelay@@YAXABVCNetSockDupEx@@PBXI@Z 0040cb70 f   DealRelay.obj
 0001:0000bd40       ?_Proc1_Relay_Data@dealrelay@@YAXABVCNetSockDupEx@@PBXI@Z 0040cd40 f   DealRelay.obj
 0001:0000be40       ?_Proc1_Relay_AskWay@dealrelay@@YAXABVCNetSockDupEx@@PBXI@Z 0040ce40 f   DealRelay.obj
 0001:0000be60       ?_Proc1_Relay_LoseWay@dealrelay@@YAXABVCNetSockDupEx@@PBXI@Z 0040ce60 f   DealRelay.obj
 0001:0000bf40       ?_Proc0_Relay@dealrelay@@YAXABVCNetSockDupEx@@PBXI@Z 0040cf40 f   DealRelay.obj
 0001:0000bf90       ?_RecvPackage@dealrelay@@YAXABVCNetSockDupEx@@PBXI@Z 0040cf90 f   DealRelay.obj
 0001:0000bfb0       ?DoRecvPackage@dealrelay@@YAXPAVCRelayConnect@@PBXI@Z 0040cfb0 f   DealRelay.obj
 0001:0000c040       ?DoRecvPackage@dealrelay@@YAXPAVCRelayClient@@PBXI@Z 0040d040 f   DealRelay.obj
 0001:0000c0d0       ??1CNetClientDup@@UAE@XZ   0040d0d0 f i DealRelay.obj
 0001:0000c0f0       ??_GCNetClientDup@@UAEPAXI@Z 0040d0f0 f i DealRelay.obj
 0001:0000c0f0       ??_ECNetClientDup@@UAEPAXI@Z 0040d0f0 f i DealRelay.obj
 0001:0000c130       ?FindRelaySockByIP@dealrelay@@YA?AVCNetSockDupEx@@K@Z 0040d130 f   DealRelay.obj
 0001:0000c290       ?BroadPackage@dealrelay@@YAHPBXI@Z 0040d290 f   DealRelay.obj
 0001:0000c2c0       ?BroadGlobal@@YAXPBXIKK@Z  0040d2c0 f   DoScript.obj
 0001:0000c350       ?BroadGame@@YAXKPBXIKK@Z   0040d350 f   DoScript.obj
 0001:0000c440       ?RootSend@@YAXKKPBXI@Z     0040d440 f   DoScript.obj
 0001:0000c510       ?LuaGlobalExecute@@YAHPAUlua_State@@@Z 0040d510 f   DoScript.obj
 0001:0000c5f0       ?LuaGameExecute@@YAHPAUlua_State@@@Z 0040d5f0 f   DoScript.obj
 0001:0000c6e0       ?LuaMsg2IP@@YAHPAUlua_State@@@Z 0040d6e0 f   DoScript.obj
 0001:0000c840       ?LuaGetIP@@YAHPAUlua_State@@@Z 0040d840 f   DoScript.obj
 0001:0000c8f0       ?g_GetGameScriptFunNum@@YAHXZ 0040d8f0 f   DoScript.obj
 0001:0000c900       ?InitScript@@YAHXZ         0040d900 f   DoScript.obj
 0001:0000c940       ?ExcuteScript@@YAHKKPBD@Z  0040d940 f   DoScript.obj
 0001:0000c990       ?UninitScript@@YAHXZ       0040d990 f   DoScript.obj
 0001:0000ca60       ??0CFriendMgr@@QAE@XZ      0040da60 f   FriendMgr.obj
 0001:0000cb70       ??_GCFriendMgr@@UAEPAXI@Z  0040db70 f i FriendMgr.obj
 0001:0000cb70       ??_ECFriendMgr@@UAEPAXI@Z  0040db70 f i FriendMgr.obj
 0001:0000cb90       ??1?$map@V?$basic_string@DV?$char_traits@D@_STL@@V?$allocator@D@2@@_STL@@UPLAYERINFO@CFriendMgr@@U_tstring_less@@V?$allocator@U?$pair@$$CBV?$basic_string@DV?$char_traits@D@_STL@@V?$allocator@D@2@@_STL@@UPLAYERINFO@CFriendMgr@@@_STL@@@2@@_STL@@QAE@XZ 0040db90 f i FriendMgr.obj
 0001:0000cc40       ??1?$map@UADDFRIENDKEY@CFriendMgr@@UADDFRIENDVALUE@2@U?$less@UADDFRIENDKEY@CFriendMgr@@@_STL@@V?$allocator@U?$pair@$$CBUADDFRIENDKEY@CFriendMgr@@UADDFRIENDVALUE@2@@_STL@@@5@@_STL@@QAE@XZ 0040dc40 f i FriendMgr.obj
 0001:0000ccf0       ??1CFriendMgr@@UAE@XZ      0040dcf0 f   FriendMgr.obj
 0001:0000ce60       ?Initialize@CFriendMgr@@QAEHXZ 0040de60 f   FriendMgr.obj
 0001:0000cff0       ?Uninitialize@CFriendMgr@@QAEHXZ 0040dff0 f   FriendMgr.obj
 0001:0000d170       ?SomeoneLogin@CFriendMgr@@QAEHABV?$basic_string@DV?$char_traits@D@_STL@@V?$allocator@D@2@@_STL@@@Z 0040e170 f   FriendMgr.obj
 0001:0000d6e0       ??1?$map@KV?$list@UtagPlusSrcInfo@@V?$allocator@UtagPlusSrcInfo@@@_STL@@@_STL@@U?$less@K@2@V?$allocator@U?$pair@$$CBKV?$list@UtagPlusSrcInfo@@V?$allocator@UtagPlusSrcInfo@@@_STL@@@_STL@@@_STL@@@2@@_STL@@QAE@XZ 0040e6e0 f i FriendMgr.obj
 0001:0000d790       ?SomeoneLogout@CFriendMgr@@QAEHABV?$basic_string@DV?$char_traits@D@_STL@@V?$allocator@D@2@@_STL@@@Z 0040e790 f   FriendMgr.obj
 0001:0000d9f0       ?SomeoneSyncFriends@CFriendMgr@@QAEHABV?$basic_string@DV?$char_traits@D@_STL@@V?$allocator@D@2@@_STL@@KKABVCNetConnectDup@@HE@Z 0040e9f0 f   FriendMgr.obj
 0001:0000dff0       ??1?$map@V?$basic_string@DV?$char_traits@D@_STL@@V?$allocator@D@2@@_STL@@V?$list@U?$pair@EV?$basic_string@DV?$char_traits@D@_STL@@V?$allocator@D@2@@_STL@@@_STL@@V?$allocator@U?$pair@EV?$basic_string@DV?$char_traits@D@_STL@@V?$allocator@D@2@@_STL@@@_STL@@@2@@2@U_tstring_less@@V?$allocator@U?$pair@$$CBV?$basic_string@DV?$char_traits@D@_STL@@V?$allocator@D@2@@_STL@@V?$list@U?$pair@EV?$basic_string@DV?$char_traits@D@_STL@@V?$allocator@D@2@@_STL@@@_STL@@V?$allocator@U?$pair@EV?$basic_string@DV?$char_traits@D@_STL@@V?$allocator@D@2@@_STL@@@_STL@@@2@@2@@_STL@@@2@@_STL@@QAE@XZ 0040eff0 f i FriendMgr.obj
 0001:0000e0a0       ??1?$pair@EV?$basic_string@DV?$char_traits@D@_STL@@V?$allocator@D@2@@_STL@@@_STL@@QAE@XZ 0040f0a0 f i FriendMgr.obj
 0001:0000e110       ?PlayerAddFriend@CFriendMgr@@QAEHABV?$basic_string@DV?$char_traits@D@_STL@@V?$allocator@D@2@@_STL@@0@Z 0040f110 f   FriendMgr.obj
 0001:0000e490       ?PlayerDelFriend@CFriendMgr@@QAEHABV?$basic_string@DV?$char_traits@D@_STL@@V?$allocator@D@2@@_STL@@0@Z 0040f490 f   FriendMgr.obj
 0001:0000e5f0       ?PlayerIsFriend@CFriendMgr@@QAEHABV?$basic_string@DV?$char_traits@D@_STL@@V?$allocator@D@2@@_STL@@0H@Z 0040f5f0 f   FriendMgr.obj
 0001:0000e6e0       ?SetFriendGroup@CFriendMgr@@QAEHABV?$basic_string@DV?$char_traits@D@_STL@@V?$allocator@D@2@@_STL@@00@Z 0040f6e0 f   FriendMgr.obj
 0001:0000e830       ?GetFriendGroup@CFriendMgr@@QAE?AV?$basic_string@DV?$char_traits@D@_STL@@V?$allocator@D@2@@_STL@@ABV23@0@Z 0040f830 f   FriendMgr.obj
 0001:0000ea60       ?TrackAddFriend@CFriendMgr@@QAEHABV?$basic_string@DV?$char_traits@D@_STL@@V?$allocator@D@2@@_STL@@0E@Z 0040fa60 f   FriendMgr.obj
 0001:0000ec30       ??MADDFRIENDKEY@CFriendMgr@@QBE_NABU01@@Z 0040fc30 f i FriendMgr.obj
 0001:0000ec80       ??1ADDFRIENDKEY@CFriendMgr@@QAE@XZ 0040fc80 f i FriendMgr.obj
 0001:0000ecf0       ?ExtractAddFriend@CFriendMgr@@QAEHABV?$basic_string@DV?$char_traits@D@_STL@@V?$allocator@D@2@@_STL@@0E@Z 0040fcf0 f   FriendMgr.obj
 0001:0000edf0       ?TidyAddFriend@CFriendMgr@@QAEHXZ 0040fdf0 f   FriendMgr.obj
 0001:0000ee00       ?_LoadSomeone@CFriendMgr@@AAE?AU?$_Rb_tree_iterator@U?$pair@$$CBV?$basic_string@DV?$char_traits@D@_STL@@V?$allocator@D@2@@_STL@@UPLAYERINFO@CFriendMgr@@@_STL@@U?$_Nonconst_traits@U?$pair@$$CBV?$basic_string@DV?$char_traits@D@_STL@@V?$allocator@D@2@@_STL@@UPLAYERINFO@CFriendMgr@@@_STL@@@2@@_STL@@ABV?$basic_string@DV?$char_traits@D@_STL@@V?$allocator@D@2@@3@@Z 0040fe00 f   FriendMgr.obj
 0001:0000f340       ??1PLAYERINFO@CFriendMgr@@QAE@XZ 00410340 f i FriendMgr.obj
 0001:0000f3f0       ??1?$pair@$$CBV?$basic_string@DV?$char_traits@D@_STL@@V?$allocator@D@2@@_STL@@UPLAYERINFO@CFriendMgr@@@_STL@@QAE@XZ 004103f0 f i FriendMgr.obj
 0001:0000f4e0       ??1FRIENDINFO@CFriendMgr@@QAE@XZ 004104e0 f i FriendMgr.obj
 0001:0000f550       ??1?$pair@$$CBV?$basic_string@DV?$char_traits@D@_STL@@V?$allocator@D@2@@_STL@@UFRIENDINFO@CFriendMgr@@@_STL@@QAE@XZ 00410550 f i FriendMgr.obj
 0001:0000f600       ?_StoreSomeone@CFriendMgr@@AAEHU?$_Rb_tree_iterator@U?$pair@$$CBV?$basic_string@DV?$char_traits@D@_STL@@V?$allocator@D@2@@_STL@@UPLAYERINFO@CFriendMgr@@@_STL@@U?$_Nonconst_traits@U?$pair@$$CBV?$basic_string@DV?$char_traits@D@_STL@@V?$allocator@D@2@@_STL@@UPLAYERINFO@CFriendMgr@@@_STL@@@2@@_STL@@@Z 00410600 f   FriendMgr.obj
 0001:0000f920       ??1MEM_FRIENDRECORD@CFriendMgr@@QAE@XZ 00410920 f i FriendMgr.obj
 0001:0000f9d0       ?NameToDBKey@CFriendMgr@@AAE?AV?$basic_string@DV?$char_traits@D@_STL@@V?$allocator@D@2@@_STL@@ABV23@@Z 004109d0 f   FriendMgr.obj
 0001:0000fa90       ?DB_AddSomeone@CFriendMgr@@AAEHABV?$basic_string@DV?$char_traits@D@_STL@@V?$allocator@D@2@@_STL@@ABV?$list@UMEM_FRIENDRECORD@CFriendMgr@@V?$allocator@UMEM_FRIENDRECORD@CFriendMgr@@@_STL@@@3@@Z 00410a90 f   FriendMgr.obj
 0001:0000fab0       ?DB_DeleteSomeone@CFriendMgr@@AAEHABV?$basic_string@DV?$char_traits@D@_STL@@V?$allocator@D@2@@_STL@@@Z 00410ab0 f   FriendMgr.obj
 0001:0000fb70       ?DB_LoadSomeone@CFriendMgr@@AAEHABV?$basic_string@DV?$char_traits@D@_STL@@V?$allocator@D@2@@_STL@@PAV?$list@UMEM_FRIENDRECORD@CFriendMgr@@V?$allocator@UMEM_FRIENDRECORD@CFriendMgr@@@_STL@@@3@@Z 00410b70 f   FriendMgr.obj
 0001:0000fd80       ?DB_StoreSomeone@CFriendMgr@@AAEHABV?$basic_string@DV?$char_traits@D@_STL@@V?$allocator@D@2@@_STL@@ABV?$list@UMEM_FRIENDRECORD@CFriendMgr@@V?$allocator@UMEM_FRIENDRECORD@CFriendMgr@@@_STL@@@3@@Z 00410d80 f   FriendMgr.obj
 0001:0000ff30       ?BkgrndUpdateDB@CFriendMgr@@QAEHXZ 00410f30 f   FriendMgr.obj
 0001:00010850       ??1ONEPLAYER@CFriendMgr@@QAE@XZ 00411850 f i FriendMgr.obj
 0001:00010920       ?GetPlayerCount@CFriendMgr@@QAEIXZ 00411920 f   FriendMgr.obj
 0001:00010940       ?GetAFQSize@CFriendMgr@@QAEIXZ 00411940 f   FriendMgr.obj
 0001:00010960       ?PlayerAssociate@CFriendMgr@@QAEHABV?$basic_string@DV?$char_traits@D@_STL@@V?$allocator@D@2@@_STL@@00E@Z 00411960 f   FriendMgr.obj
 0001:00010d10       ?PlayerAssociateBevy@CFriendMgr@@QAEHABV?$vector@V?$basic_string@DV?$char_traits@D@_STL@@V?$allocator@D@2@@_STL@@V?$allocator@V?$basic_string@DV?$char_traits@D@_STL@@V?$allocator@D@2@@_STL@@@2@@_STL@@ABV?$basic_string@DV?$char_traits@D@_STL@@V?$allocator@D@2@@3@@Z 00411d10 f   FriendMgr.obj
 0001:000111f0       ??0?$map@V?$basic_string@DV?$char_traits@D@_STL@@V?$allocator@D@2@@_STL@@UFRIENDINFO@CFriendMgr@@U_tstring_less@@V?$allocator@U?$pair@$$CBV?$basic_string@DV?$char_traits@D@_STL@@V?$allocator@D@2@@_STL@@UFRIENDINFO@CFriendMgr@@@_STL@@@2@@_STL@@QAE@XZ 004121f0 f i FriendMgr.obj
 0001:00011270       ??A?$map@V?$basic_string@DV?$char_traits@D@_STL@@V?$allocator@D@2@@_STL@@UFRIENDINFO@CFriendMgr@@U_tstring_less@@V?$allocator@U?$pair@$$CBV?$basic_string@DV?$char_traits@D@_STL@@V?$allocator@D@2@@_STL@@UFRIENDINFO@CFriendMgr@@@_STL@@@2@@_STL@@QAEAAUFRIENDINFO@CFriendMgr@@ABV?$basic_string@DV?$char_traits@D@_STL@@V?$allocator@D@2@@1@@Z 00412270 f i FriendMgr.obj
 0001:000113c0       ?erase@?$map@V?$basic_string@DV?$char_traits@D@_STL@@V?$allocator@D@2@@_STL@@UFRIENDINFO@CFriendMgr@@U_tstring_less@@V?$allocator@U?$pair@$$CBV?$basic_string@DV?$char_traits@D@_STL@@V?$allocator@D@2@@_STL@@UFRIENDINFO@CFriendMgr@@@_STL@@@2@@_STL@@QAEXU?$_Rb_tree_iterator@U?$pair@$$CBV?$basic_string@DV?$char_traits@D@_STL@@V?$allocator@D@2@@_STL@@UFRIENDINFO@CFriendMgr@@@_STL@@U?$_Nonconst_traits@U?$pair@$$CBV?$basic_string@DV?$char_traits@D@_STL@@V?$allocator@D@2@@_STL@@UFRIENDINFO@CFriendMgr@@@_STL@@@2@@2@@Z 004123c0 f i FriendMgr.obj
 0001:000113e0       ??1?$_Rb_tree@V?$basic_string@DV?$char_traits@D@_STL@@V?$allocator@D@2@@_STL@@U?$pair@$$CBV?$basic_string@DV?$char_traits@D@_STL@@V?$allocator@D@2@@_STL@@UFRIENDINFO@CFriendMgr@@@2@U?$_Select1st@U?$pair@$$CBV?$basic_string@DV?$char_traits@D@_STL@@V?$allocator@D@2@@_STL@@UFRIENDINFO@CFriendMgr@@@_STL@@@2@U_tstring_less@@V?$allocator@U?$pair@$$CBV?$basic_string@DV?$char_traits@D@_STL@@V?$allocator@D@2@@_STL@@UFRIENDINFO@CFriendMgr@@@_STL@@@2@@_STL@@QAE@XZ 004123e0 f i FriendMgr.obj
 0001:00011490       ??0?$_Rb_tree_iterator@U?$pair@$$CBV?$basic_string@DV?$char_traits@D@_STL@@V?$allocator@D@2@@_STL@@UFRIENDINFO@CFriendMgr@@@_STL@@U?$_Nonconst_traits@U?$pair@$$CBV?$basic_string@DV?$char_traits@D@_STL@@V?$allocator@D@2@@_STL@@UFRIENDINFO@CFriendMgr@@@_STL@@@2@@_STL@@QAE@ABU01@@Z 00412490 f i FriendMgr.obj
 0001:000114a0       ??0?$_Rb_tree_iterator@U?$pair@$$CBV?$basic_string@DV?$char_traits@D@_STL@@V?$allocator@D@2@@_STL@@UPLAYERINFO@CFriendMgr@@@_STL@@U?$_Nonconst_traits@U?$pair@$$CBV?$basic_string@DV?$char_traits@D@_STL@@V?$allocator@D@2@@_STL@@UPLAYERINFO@CFriendMgr@@@_STL@@@2@@_STL@@QAE@ABU01@@Z 004124a0 f i FriendMgr.obj
 0001:000114b0       ?erase@?$map@UADDFRIENDKEY@CFriendMgr@@UADDFRIENDVALUE@2@U?$less@UADDFRIENDKEY@CFriendMgr@@@_STL@@V?$allocator@U?$pair@$$CBUADDFRIENDKEY@CFriendMgr@@UADDFRIENDVALUE@2@@_STL@@@5@@_STL@@QAEXU?$_Rb_tree_iterator@U?$pair@$$CBUADDFRIENDKEY@CFriendMgr@@UADDFRIENDVALUE@2@@_STL@@U?$_Nonconst_traits@U?$pair@$$CBUADDFRIENDKEY@CFriendMgr@@UADDFRIENDVALUE@2@@_STL@@@2@@2@@Z 004124b0 f i FriendMgr.obj
 0001:000114d0       ??0?$_Rb_tree_iterator@U?$pair@$$CBUADDFRIENDKEY@CFriendMgr@@UADDFRIENDVALUE@2@@_STL@@U?$_Nonconst_traits@U?$pair@$$CBUADDFRIENDKEY@CFriendMgr@@UADDFRIENDVALUE@2@@_STL@@@2@@_STL@@QAE@ABU01@@Z 004124d0 f i FriendMgr.obj
 0001:000114e0       ??0?$list@UMEM_FRIENDRECORD@CFriendMgr@@V?$allocator@UMEM_FRIENDRECORD@CFriendMgr@@@_STL@@@_STL@@QAE@ABV?$allocator@UMEM_FRIENDRECORD@CFriendMgr@@@1@@Z 004124e0 f i FriendMgr.obj
 0001:00011530       ?begin@?$list@UMEM_FRIENDRECORD@CFriendMgr@@V?$allocator@UMEM_FRIENDRECORD@CFriendMgr@@@_STL@@@_STL@@QBE?AU?$_List_iterator@UMEM_FRIENDRECORD@CFriendMgr@@U?$_Const_traits@UMEM_FRIENDRECORD@CFriendMgr@@@_STL@@@2@XZ 00412530 f i FriendMgr.obj
 0001:00011540       ?end@?$list@UMEM_FRIENDRECORD@CFriendMgr@@V?$allocator@UMEM_FRIENDRECORD@CFriendMgr@@@_STL@@@_STL@@QAE?AU?$_List_iterator@UMEM_FRIENDRECORD@CFriendMgr@@U?$_Nonconst_traits@UMEM_FRIENDRECORD@CFriendMgr@@@_STL@@@2@XZ 00412540 f i FriendMgr.obj
 0001:00011550       ??1?$list@UMEM_FRIENDRECORD@CFriendMgr@@V?$allocator@UMEM_FRIENDRECORD@CFriendMgr@@@_STL@@@_STL@@QAE@XZ 00412550 f i FriendMgr.obj
 0001:000115f0       ??1?$allocator@UMEM_FRIENDRECORD@CFriendMgr@@@_STL@@QAE@XZ 004125f0 f i FriendMgr.obj
 0001:00011600       ??0?$pair@$$CBV?$basic_string@DV?$char_traits@D@_STL@@V?$allocator@D@2@@_STL@@UPLAYERINFO@CFriendMgr@@@_STL@@QAE@ABV?$basic_string@DV?$char_traits@D@_STL@@V?$allocator@D@2@@1@ABUPLAYERINFO@CFriendMgr@@@Z 00412600 f i FriendMgr.obj
 0001:00011770       ??1?$_Rb_tree@KU?$pair@$$CBKV?$list@UtagPlusSrcInfo@@V?$allocator@UtagPlusSrcInfo@@@_STL@@@_STL@@@_STL@@U?$_Select1st@U?$pair@$$CBKV?$list@UtagPlusSrcInfo@@V?$allocator@UtagPlusSrcInfo@@@_STL@@@_STL@@@_STL@@@2@U?$less@K@2@V?$allocator@U?$pair@$$CBKV?$list@UtagPlusSrcInfo@@V?$allocator@UtagPlusSrcInfo@@@_STL@@@_STL@@@_STL@@@2@@_STL@@QAE@XZ 00412770 f i FriendMgr.obj
 0001:00011820       ??0?$pair@$$CBV?$basic_string@DV?$char_traits@D@_STL@@V?$allocator@D@2@@_STL@@UFRIENDINFO@CFriendMgr@@@_STL@@QAE@ABV?$basic_string@DV?$char_traits@D@_STL@@V?$allocator@D@2@@1@ABUFRIENDINFO@CFriendMgr@@@Z 00412820 f i FriendMgr.obj
 0001:00011980       ??1?$_Rb_tree@V?$basic_string@DV?$char_traits@D@_STL@@V?$allocator@D@2@@_STL@@U?$pair@$$CBV?$basic_string@DV?$char_traits@D@_STL@@V?$allocator@D@2@@_STL@@V?$list@U?$pair@EV?$basic_string@DV?$char_traits@D@_STL@@V?$allocator@D@2@@_STL@@@_STL@@V?$allocator@U?$pair@EV?$basic_string@DV?$char_traits@D@_STL@@V?$allocator@D@2@@_STL@@@_STL@@@2@@2@@2@U?$_Select1st@U?$pair@$$CBV?$basic_string@DV?$char_traits@D@_STL@@V?$allocator@D@2@@_STL@@V?$list@U?$pair@EV?$basic_string@DV?$char_traits@D@_STL@@V?$allocator@D@2@@_STL@@@_STL@@V?$allocator@U?$pair@EV?$basic_string@DV?$char_traits@D@_STL@@V?$allocator@D@2@@_STL@@@_STL@@@2@@2@@_STL@@@2@U_tstring_less@@V?$allocator@U?$pair@$$CBV?$basic_string@DV?$char_traits@D@_STL@@V?$allocator@D@2@@_STL@@V?$list@U?$pair@EV?$basic_string@DV?$char_traits@D@_STL@@V?$allocator@D@2@@_STL@@@_STL@@V?$allocator@U?$pair@EV?$basic_string@DV?$char_traits@D@_STL@@V?$allocator@D@2@@_STL@@@_STL@@@2@@2@@_STL@@@2@@_STL@@QAE@XZ 00412980 f i FriendMgr.obj
 0001:00011a30       ?end@?$list@U?$pair@EV?$basic_string@DV?$char_traits@D@_STL@@V?$allocator@D@2@@_STL@@@_STL@@V?$allocator@U?$pair@EV?$basic_string@DV?$char_traits@D@_STL@@V?$allocator@D@2@@_STL@@@_STL@@@2@@_STL@@QAE?AU?$_List_iterator@U?$pair@EV?$basic_string@DV?$char_traits@D@_STL@@V?$allocator@D@2@@_STL@@@_STL@@U?$_Nonconst_traits@U?$pair@EV?$basic_string@DV?$char_traits@D@_STL@@V?$allocator@D@2@@_STL@@@_STL@@@2@@2@XZ 00412a30 f i FriendMgr.obj
 0001:00011a40       ?end@?$list@UONEPLAYER@CFriendMgr@@V?$allocator@UONEPLAYER@CFriendMgr@@@_STL@@@_STL@@QAE?AU?$_List_iterator@UONEPLAYER@CFriendMgr@@U?$_Nonconst_traits@UONEPLAYER@CFriendMgr@@@_STL@@@2@XZ 00412a40 f i FriendMgr.obj
 0001:00011a50       ??1?$list@UONEPLAYER@CFriendMgr@@V?$allocator@UONEPLAYER@CFriendMgr@@@_STL@@@_STL@@QAE@XZ 00412a50 f i FriendMgr.obj
 0001:00011af0       ??1?$allocator@UONEPLAYER@CFriendMgr@@@_STL@@QAE@XZ 00412af0 f i FriendMgr.obj
 0001:00011b00       ?end@?$list@V?$basic_string@DV?$char_traits@D@_STL@@V?$allocator@D@2@@_STL@@V?$allocator@V?$basic_string@DV?$char_traits@D@_STL@@V?$allocator@D@2@@_STL@@@2@@_STL@@QAE?AU?$_List_iterator@V?$basic_string@DV?$char_traits@D@_STL@@V?$allocator@D@2@@_STL@@U?$_Nonconst_traits@V?$basic_string@DV?$char_traits@D@_STL@@V?$allocator@D@2@@_STL@@@2@@2@XZ 00412b00 f i FriendMgr.obj
 0001:00011b10       ??1?$list@V?$basic_string@DV?$char_traits@D@_STL@@V?$allocator@D@2@@_STL@@V?$allocator@V?$basic_string@DV?$char_traits@D@_STL@@V?$allocator@D@2@@_STL@@@2@@_STL@@QAE@XZ 00412b10 f i FriendMgr.obj
 0001:00011b90       ??1?$allocator@V?$basic_string@DV?$char_traits@D@_STL@@V?$allocator@D@2@@_STL@@@_STL@@QAE@XZ 00412b90 f i FriendMgr.obj
 0001:00011ba0       ??1?$vector@U?$_Rb_tree_iterator@U?$pair@$$CBV?$basic_string@DV?$char_traits@D@_STL@@V?$allocator@D@2@@_STL@@UPLAYERINFO@CFriendMgr@@@_STL@@U?$_Nonconst_traits@U?$pair@$$CBV?$basic_string@DV?$char_traits@D@_STL@@V?$allocator@D@2@@_STL@@UPLAYERINFO@CFriendMgr@@@_STL@@@2@@_STL@@V?$allocator@U?$_Rb_tree_iterator@U?$pair@$$CBV?$basic_string@DV?$char_traits@D@_STL@@V?$allocator@D@2@@_STL@@UPLAYERINFO@CFriendMgr@@@_STL@@U?$_Nonconst_traits@U?$pair@$$CBV?$basic_string@DV?$char_traits@D@_STL@@V?$allocator@D@2@@_STL@@UPLAYERINFO@CFriendMgr@@@_STL@@@2@@_STL@@@2@@_STL@@QAE@XZ 00412ba0 f i FriendMgr.obj
 0001:00011c20       ??1?$allocator@U?$_Rb_tree_iterator@U?$pair@$$CBV?$basic_string@DV?$char_traits@D@_STL@@V?$allocator@D@2@@_STL@@UPLAYERINFO@CFriendMgr@@@_STL@@U?$_Nonconst_traits@U?$pair@$$CBV?$basic_string@DV?$char_traits@D@_STL@@V?$allocator@D@2@@_STL@@UPLAYERINFO@CFriendMgr@@@_STL@@@2@@_STL@@@_STL@@QAE@XZ 00412c20 f i FriendMgr.obj
 0001:00011c30       ??1ADDFRIENDVALUE@CFriendMgr@@QAE@XZ 00412c30 f i FriendMgr.obj
 0001:00011ca0       ??1?$pair@$$CBUADDFRIENDKEY@CFriendMgr@@UADDFRIENDVALUE@2@@_STL@@QAE@XZ 00412ca0 f i FriendMgr.obj
 0001:00011d50       ??0PLAYERINFO@CFriendMgr@@QAE@ABU01@@Z 00412d50 f i FriendMgr.obj
 0001:00011e40       ??1?$pair@$$CBKV?$list@UtagPlusSrcInfo@@V?$allocator@UtagPlusSrcInfo@@@_STL@@@_STL@@@_STL@@QAE@XZ 00412e40 f i FriendMgr.obj
 0001:00011ec0       ??0FRIENDINFO@CFriendMgr@@QAE@ABU01@@Z 00412ec0 f i FriendMgr.obj
 0001:00011fa0       ??1?$pair@$$CBV?$basic_string@DV?$char_traits@D@_STL@@V?$allocator@D@2@@_STL@@V?$list@U?$pair@EV?$basic_string@DV?$char_traits@D@_STL@@V?$allocator@D@2@@_STL@@@_STL@@V?$allocator@U?$pair@EV?$basic_string@DV?$char_traits@D@_STL@@V?$allocator@D@2@@_STL@@@_STL@@@2@@2@@_STL@@QAE@XZ 00412fa0 f i FriendMgr.obj
 0001:00012070       ?assign@?$basic_string@DV?$char_traits@D@_STL@@V?$allocator@D@2@@_STL@@QAEAAV12@PBD0@Z 00413070 f i FriendMgr.obj
 0001:00012110       ?insert@?$map@V?$basic_string@DV?$char_traits@D@_STL@@V?$allocator@D@2@@_STL@@UFRIENDINFO@CFriendMgr@@U_tstring_less@@V?$allocator@U?$pair@$$CBV?$basic_string@DV?$char_traits@D@_STL@@V?$allocator@D@2@@_STL@@UFRIENDINFO@CFriendMgr@@@_STL@@@2@@_STL@@QAE?AU?$_Rb_tree_iterator@U?$pair@$$CBV?$basic_string@DV?$char_traits@D@_STL@@V?$allocator@D@2@@_STL@@UFRIENDINFO@CFriendMgr@@@_STL@@U?$_Nonconst_traits@U?$pair@$$CBV?$basic_string@DV?$char_traits@D@_STL@@V?$allocator@D@2@@_STL@@UFRIENDINFO@CFriendMgr@@@_STL@@@2@@2@U32@ABU?$pair@$$CBV?$basic_string@DV?$char_traits@D@_STL@@V?$allocator@D@2@@_STL@@UFRIENDINFO@CFriendMgr@@@2@@Z 00413110 f i FriendMgr.obj
 0001:00012140       ?lower_bound@?$map@V?$basic_string@DV?$char_traits@D@_STL@@V?$allocator@D@2@@_STL@@UFRIENDINFO@CFriendMgr@@U_tstring_less@@V?$allocator@U?$pair@$$CBV?$basic_string@DV?$char_traits@D@_STL@@V?$allocator@D@2@@_STL@@UFRIENDINFO@CFriendMgr@@@_STL@@@2@@_STL@@QAE?AU?$_Rb_tree_iterator@U?$pair@$$CBV?$basic_string@DV?$char_traits@D@_STL@@V?$allocator@D@2@@_STL@@UFRIENDINFO@CFriendMgr@@@_STL@@U?$_Nonconst_traits@U?$pair@$$CBV?$basic_string@DV?$char_traits@D@_STL@@V?$allocator@D@2@@_STL@@UFRIENDINFO@CFriendMgr@@@_STL@@@2@@2@ABV?$basic_string@DV?$char_traits@D@_STL@@V?$allocator@D@2@@2@@Z 00413140 f i FriendMgr.obj
 0001:000121a0       ?begin@?$_Rb_tree@V?$basic_string@DV?$char_traits@D@_STL@@V?$allocator@D@2@@_STL@@U?$pair@$$CBV?$basic_string@DV?$char_traits@D@_STL@@V?$allocator@D@2@@_STL@@UFRIENDINFO@CFriendMgr@@@2@U?$_Select1st@U?$pair@$$CBV?$basic_string@DV?$char_traits@D@_STL@@V?$allocator@D@2@@_STL@@UFRIENDINFO@CFriendMgr@@@_STL@@@2@U_tstring_less@@V?$allocator@U?$pair@$$CBV?$basic_string@DV?$char_traits@D@_STL@@V?$allocator@D@2@@_STL@@UFRIENDINFO@CFriendMgr@@@_STL@@@2@@_STL@@QAE?AU?$_Rb_tree_iterator@U?$pair@$$CBV?$basic_string@DV?$char_traits@D@_STL@@V?$allocator@D@2@@_STL@@UFRIENDINFO@CFriendMgr@@@_STL@@U?$_Nonconst_traits@U?$pair@$$CBV?$basic_string@DV?$char_traits@D@_STL@@V?$allocator@D@2@@_STL@@UFRIENDINFO@CFriendMgr@@@_STL@@@2@@2@XZ 004131a0 f i FriendMgr.obj
 0001:000121b0       ?erase@?$_Rb_tree@V?$basic_string@DV?$char_traits@D@_STL@@V?$allocator@D@2@@_STL@@U?$pair@$$CBV?$basic_string@DV?$char_traits@D@_STL@@V?$allocator@D@2@@_STL@@UFRIENDINFO@CFriendMgr@@@2@U?$_Select1st@U?$pair@$$CBV?$basic_string@DV?$char_traits@D@_STL@@V?$allocator@D@2@@_STL@@UFRIENDINFO@CFriendMgr@@@_STL@@@2@U_tstring_less@@V?$allocator@U?$pair@$$CBV?$basic_string@DV?$char_traits@D@_STL@@V?$allocator@D@2@@_STL@@UFRIENDINFO@CFriendMgr@@@_STL@@@2@@_STL@@QAEXU?$_Rb_tree_iterator@U?$pair@$$CBV?$basic_string@DV?$char_traits@D@_STL@@V?$allocator@D@2@@_STL@@UFRIENDINFO@CFriendMgr@@@_STL@@U?$_Nonconst_traits@U?$pair@$$CBV?$basic_string@DV?$char_traits@D@_STL@@V?$allocator@D@2@@_STL@@UFRIENDINFO@CFriendMgr@@@_STL@@@2@@2@@Z 004131b0 f i FriendMgr.obj
 0001:00012200       ?erase@?$_Rb_tree@V?$basic_string@DV?$char_traits@D@_STL@@V?$allocator@D@2@@_STL@@U?$pair@$$CBV?$basic_string@DV?$char_traits@D@_STL@@V?$allocator@D@2@@_STL@@UFRIENDINFO@CFriendMgr@@@2@U?$_Select1st@U?$pair@$$CBV?$basic_string@DV?$char_traits@D@_STL@@V?$allocator@D@2@@_STL@@UFRIENDINFO@CFriendMgr@@@_STL@@@2@U_tstring_less@@V?$allocator@U?$pair@$$CBV?$basic_string@DV?$char_traits@D@_STL@@V?$allocator@D@2@@_STL@@UFRIENDINFO@CFriendMgr@@@_STL@@@2@@_STL@@QAEIABV?$basic_string@DV?$char_traits@D@_STL@@V?$allocator@D@2@@2@@Z 00413200 f i FriendMgr.obj
 0001:00012270       ??1?$_Rb_tree_base@U?$pair@$$CBV?$basic_string@DV?$char_traits@D@_STL@@V?$allocator@D@2@@_STL@@UFRIENDINFO@CFriendMgr@@@_STL@@V?$allocator@U?$pair@$$CBV?$basic_string@DV?$char_traits@D@_STL@@V?$allocator@D@2@@_STL@@UFRIENDINFO@CFriendMgr@@@_STL@@@2@@_STL@@QAE@XZ 00413270 f i FriendMgr.obj
 0001:000122c0       ??1?$allocator@U?$pair@$$CBV?$basic_string@DV?$char_traits@D@_STL@@V?$allocator@D@2@@_STL@@UFRIENDINFO@CFriendMgr@@@_STL@@@_STL@@QAE@XZ 004132c0 f i FriendMgr.obj
 0001:000122d0       ?insert@?$map@V?$basic_string@DV?$char_traits@D@_STL@@V?$allocator@D@2@@_STL@@UPLAYERINFO@CFriendMgr@@U_tstring_less@@V?$allocator@U?$pair@$$CBV?$basic_string@DV?$char_traits@D@_STL@@V?$allocator@D@2@@_STL@@UPLAYERINFO@CFriendMgr@@@_STL@@@2@@_STL@@QAE?AU?$_Rb_tree_iterator@U?$pair@$$CBV?$basic_string@DV?$char_traits@D@_STL@@V?$allocator@D@2@@_STL@@UPLAYERINFO@CFriendMgr@@@_STL@@U?$_Nonconst_traits@U?$pair@$$CBV?$basic_string@DV?$char_traits@D@_STL@@V?$allocator@D@2@@_STL@@UPLAYERINFO@CFriendMgr@@@_STL@@@2@@2@U32@ABU?$pair@$$CBV?$basic_string@DV?$char_traits@D@_STL@@V?$allocator@D@2@@_STL@@UPLAYERINFO@CFriendMgr@@@2@@Z 004132d0 f i FriendMgr.obj
 0001:00012300       ?lower_bound@?$map@V?$basic_string@DV?$char_traits@D@_STL@@V?$allocator@D@2@@_STL@@UPLAYERINFO@CFriendMgr@@U_tstring_less@@V?$allocator@U?$pair@$$CBV?$basic_string@DV?$char_traits@D@_STL@@V?$allocator@D@2@@_STL@@UPLAYERINFO@CFriendMgr@@@_STL@@@2@@_STL@@QAE?AU?$_Rb_tree_iterator@U?$pair@$$CBV?$basic_string@DV?$char_traits@D@_STL@@V?$allocator@D@2@@_STL@@UPLAYERINFO@CFriendMgr@@@_STL@@U?$_Nonconst_traits@U?$pair@$$CBV?$basic_string@DV?$char_traits@D@_STL@@V?$allocator@D@2@@_STL@@UPLAYERINFO@CFriendMgr@@@_STL@@@2@@2@ABV?$basic_string@DV?$char_traits@D@_STL@@V?$allocator@D@2@@2@@Z 00413300 f i FriendMgr.obj
 0001:00012360       ??1?$_Rb_tree_base@U?$pair@$$CBV?$basic_string@DV?$char_traits@D@_STL@@V?$allocator@D@2@@_STL@@UPLAYERINFO@CFriendMgr@@@_STL@@V?$allocator@U?$pair@$$CBV?$basic_string@DV?$char_traits@D@_STL@@V?$allocator@D@2@@_STL@@UPLAYERINFO@CFriendMgr@@@_STL@@@2@@_STL@@QAE@XZ 00413360 f i FriendMgr.obj
 0001:000123b0       ??1?$allocator@U?$pair@$$CBV?$basic_string@DV?$char_traits@D@_STL@@V?$allocator@D@2@@_STL@@UPLAYERINFO@CFriendMgr@@@_STL@@@_STL@@QAE@XZ 004133b0 f i FriendMgr.obj
 0001:000123c0       ?insert@?$map@UADDFRIENDKEY@CFriendMgr@@UADDFRIENDVALUE@2@U?$less@UADDFRIENDKEY@CFriendMgr@@@_STL@@V?$allocator@U?$pair@$$CBUADDFRIENDKEY@CFriendMgr@@UADDFRIENDVALUE@2@@_STL@@@5@@_STL@@QAE?AU?$_Rb_tree_iterator@U?$pair@$$CBUADDFRIENDKEY@CFriendMgr@@UADDFRIENDVALUE@2@@_STL@@U?$_Nonconst_traits@U?$pair@$$CBUADDFRIENDKEY@CFriendMgr@@UADDFRIENDVALUE@2@@_STL@@@2@@2@U32@ABU?$pair@$$CBUADDFRIENDKEY@CFriendMgr@@UADDFRIENDVALUE@2@@2@@Z 004133c0 f i FriendMgr.obj
 0001:000123f0       ?erase@?$_Rb_tree@UADDFRIENDKEY@CFriendMgr@@U?$pair@$$CBUADDFRIENDKEY@CFriendMgr@@UADDFRIENDVALUE@2@@_STL@@U?$_Select1st@U?$pair@$$CBUADDFRIENDKEY@CFriendMgr@@UADDFRIENDVALUE@2@@_STL@@@4@U?$less@UADDFRIENDKEY@CFriendMgr@@@4@V?$allocator@U?$pair@$$CBUADDFRIENDKEY@CFriendMgr@@UADDFRIENDVALUE@2@@_STL@@@4@@_STL@@QAEXU?$_Rb_tree_iterator@U?$pair@$$CBUADDFRIENDKEY@CFriendMgr@@UADDFRIENDVALUE@2@@_STL@@U?$_Nonconst_traits@U?$pair@$$CBUADDFRIENDKEY@CFriendMgr@@UADDFRIENDVALUE@2@@_STL@@@2@@2@@Z 004133f0 f i FriendMgr.obj
 0001:00012440       ??1?$_Rb_tree_base@U?$pair@$$CBUADDFRIENDKEY@CFriendMgr@@UADDFRIENDVALUE@2@@_STL@@V?$allocator@U?$pair@$$CBUADDFRIENDKEY@CFriendMgr@@UADDFRIENDVALUE@2@@_STL@@@2@@_STL@@QAE@XZ 00413440 f i FriendMgr.obj
 0001:00012490       ??1?$allocator@U?$pair@$$CBUADDFRIENDKEY@CFriendMgr@@UADDFRIENDVALUE@2@@_STL@@@_STL@@QAE@XZ 00413490 f i FriendMgr.obj
 0001:000124a0       ?insert@?$list@UMEM_FRIENDRECORD@CFriendMgr@@V?$allocator@UMEM_FRIENDRECORD@CFriendMgr@@@_STL@@@_STL@@QAE?AU?$_List_iterator@UMEM_FRIENDRECORD@CFriendMgr@@U?$_Nonconst_traits@UMEM_FRIENDRECORD@CFriendMgr@@@_STL@@@2@U32@ABUMEM_FRIENDRECORD@CFriendMgr@@@Z 004134a0 f i FriendMgr.obj
 0001:000124d0       ??0?$_List_base@UMEM_FRIENDRECORD@CFriendMgr@@V?$allocator@UMEM_FRIENDRECORD@CFriendMgr@@@_STL@@@_STL@@QAE@ABV?$allocator@UMEM_FRIENDRECORD@CFriendMgr@@@1@@Z 004134d0 f i FriendMgr.obj
 0001:00012520       ??1?$_List_base@UMEM_FRIENDRECORD@CFriendMgr@@V?$allocator@UMEM_FRIENDRECORD@CFriendMgr@@@_STL@@@_STL@@QAE@XZ 00413520 f i FriendMgr.obj
 0001:000125c0       ?insert@?$map@KV?$list@UtagPlusSrcInfo@@V?$allocator@UtagPlusSrcInfo@@@_STL@@@_STL@@U?$less@K@2@V?$allocator@U?$pair@$$CBKV?$list@UtagPlusSrcInfo@@V?$allocator@UtagPlusSrcInfo@@@_STL@@@_STL@@@_STL@@@2@@_STL@@QAE?AU?$_Rb_tree_iterator@U?$pair@$$CBKV?$list@UtagPlusSrcInfo@@V?$allocator@UtagPlusSrcInfo@@@_STL@@@_STL@@@_STL@@U?$_Nonconst_traits@U?$pair@$$CBKV?$list@UtagPlusSrcInfo@@V?$allocator@UtagPlusSrcInfo@@@_STL@@@_STL@@@_STL@@@2@@2@U32@ABU?$pair@$$CBKV?$list@UtagPlusSrcInfo@@V?$allocator@UtagPlusSrcInfo@@@_STL@@@_STL@@@2@@Z 004135c0 f i FriendMgr.obj
 0001:000125f0       ??0?$_Rb_tree@KU?$pair@$$CBKV?$list@UtagPlusSrcInfo@@V?$allocator@UtagPlusSrcInfo@@@_STL@@@_STL@@@_STL@@U?$_Select1st@U?$pair@$$CBKV?$list@UtagPlusSrcInfo@@V?$allocator@UtagPlusSrcInfo@@@_STL@@@_STL@@@_STL@@@2@U?$less@K@2@V?$allocator@U?$pair@$$CBKV?$list@UtagPlusSrcInfo@@V?$allocator@UtagPlusSrcInfo@@@_STL@@@_STL@@@_STL@@@2@@_STL@@QAE@ABU?$less@K@1@ABV?$allocator@U?$pair@$$CBKV?$list@UtagPlusSrcInfo@@V?$allocator@UtagPlusSrcInfo@@@_STL@@@_STL@@@_STL@@@1@@Z 004135f0 f i FriendMgr.obj
 0001:00012670       ??1?$_Rb_tree_base@U?$pair@$$CBKV?$list@UtagPlusSrcInfo@@V?$allocator@UtagPlusSrcInfo@@@_STL@@@_STL@@@_STL@@V?$allocator@U?$pair@$$CBKV?$list@UtagPlusSrcInfo@@V?$allocator@UtagPlusSrcInfo@@@_STL@@@_STL@@@_STL@@@2@@_STL@@QAE@XZ 00413670 f i FriendMgr.obj
 0001:000126c0       ??1?$allocator@U?$pair@$$CBKV?$list@UtagPlusSrcInfo@@V?$allocator@UtagPlusSrcInfo@@@_STL@@@_STL@@@_STL@@@_STL@@QAE@XZ 004136c0 f i FriendMgr.obj
 0001:000126d0       ??0?$_Rb_tree_iterator@U?$pair@$$CBKV?$list@UtagPlusSrcInfo@@V?$allocator@UtagPlusSrcInfo@@@_STL@@@_STL@@@_STL@@U?$_Nonconst_traits@U?$pair@$$CBKV?$list@UtagPlusSrcInfo@@V?$allocator@UtagPlusSrcInfo@@@_STL@@@_STL@@@_STL@@@2@@_STL@@QAE@ABU01@@Z 004136d0 f i FriendMgr.obj
 0001:000126e0       ??0?$pair@$$CBKV?$list@UtagPlusSrcInfo@@V?$allocator@UtagPlusSrcInfo@@@_STL@@@_STL@@@_STL@@QAE@ABKABV?$list@UtagPlusSrcInfo@@V?$allocator@UtagPlusSrcInfo@@@_STL@@@1@@Z 004136e0 f i FriendMgr.obj
 0001:00012780       ?begin@?$list@UtagPlusSrcInfo@@V?$allocator@UtagPlusSrcInfo@@@_STL@@@_STL@@QAE?AU?$_List_iterator@UtagPlusSrcInfo@@U?$_Nonconst_traits@UtagPlusSrcInfo@@@_STL@@@2@XZ 00413780 f i FriendMgr.obj
 0001:00012790       ?insert@?$map@V?$basic_string@DV?$char_traits@D@_STL@@V?$allocator@D@2@@_STL@@V?$list@U?$pair@EV?$basic_string@DV?$char_traits@D@_STL@@V?$allocator@D@2@@_STL@@@_STL@@V?$allocator@U?$pair@EV?$basic_string@DV?$char_traits@D@_STL@@V?$allocator@D@2@@_STL@@@_STL@@@2@@2@U_tstring_less@@V?$allocator@U?$pair@$$CBV?$basic_string@DV?$char_traits@D@_STL@@V?$allocator@D@2@@_STL@@V?$list@U?$pair@EV?$basic_string@DV?$char_traits@D@_STL@@V?$allocator@D@2@@_STL@@@_STL@@V?$allocator@U?$pair@EV?$basic_string@DV?$char_traits@D@_STL@@V?$allocator@D@2@@_STL@@@_STL@@@2@@2@@_STL@@@2@@_STL@@QAE?AU?$_Rb_tree_iterator@U?$pair@$$CBV?$basic_string@DV?$char_traits@D@_STL@@V?$allocator@D@2@@_STL@@V?$list@U?$pair@EV?$basic_string@DV?$char_traits@D@_STL@@V?$allocator@D@2@@_STL@@@_STL@@V?$allocator@U?$pair@EV?$basic_string@DV?$char_traits@D@_STL@@V?$allocator@D@2@@_STL@@@_STL@@@2@@2@@_STL@@U?$_Nonconst_traits@U?$pair@$$CBV?$basic_string@DV?$char_traits@D@_STL@@V?$allocator@D@2@@_STL@@V?$list@U?$pair@EV?$basic_string@DV?$char_traits@D@_STL@@V?$allocator@D@2@@_STL@@@_STL@@V?$allocator@U?$pair@EV?$basic_string@DV?$char_traits@D@_STL@@V?$allocator@D@2@@_STL@@@_STL@@@2@@2@@_STL@@@2@@2@U32@ABU?$pair@$$CBV?$basic_string@DV?$char_traits@D@_STL@@V?$allocator@D@2@@_STL@@V?$list@U?$pair@EV?$basic_string@DV?$char_traits@D@_STL@@V?$allocator@D@2@@_STL@@@_STL@@V?$allocator@U?$pair@EV?$basic_string@DV?$char_traits@D@_STL@@V?$allocator@D@2@@_STL@@@_STL@@@2@@2@@2@@Z 00413790 f i FriendMgr.obj
 0001:000127c0       ?lower_bound@?$map@V?$basic_string@DV?$char_traits@D@_STL@@V?$allocator@D@2@@_STL@@V?$list@U?$pair@EV?$basic_string@DV?$char_traits@D@_STL@@V?$allocator@D@2@@_STL@@@_STL@@V?$allocator@U?$pair@EV?$basic_string@DV?$char_traits@D@_STL@@V?$allocator@D@2@@_STL@@@_STL@@@2@@2@U_tstring_less@@V?$allocator@U?$pair@$$CBV?$basic_string@DV?$char_traits@D@_STL@@V?$allocator@D@2@@_STL@@V?$list@U?$pair@EV?$basic_string@DV?$char_traits@D@_STL@@V?$allocator@D@2@@_STL@@@_STL@@V?$allocator@U?$pair@EV?$basic_string@DV?$char_traits@D@_STL@@V?$allocator@D@2@@_STL@@@_STL@@@2@@2@@_STL@@@2@@_STL@@QAE?AU?$_Rb_tree_iterator@U?$pair@$$CBV?$basic_string@DV?$char_traits@D@_STL@@V?$allocator@D@2@@_STL@@V?$list@U?$pair@EV?$basic_string@DV?$char_traits@D@_STL@@V?$allocator@D@2@@_STL@@@_STL@@V?$allocator@U?$pair@EV?$basic_string@DV?$char_traits@D@_STL@@V?$allocator@D@2@@_STL@@@_STL@@@2@@2@@_STL@@U?$_Nonconst_traits@U?$pair@$$CBV?$basic_string@DV?$char_traits@D@_STL@@V?$allocator@D@2@@_STL@@V?$list@U?$pair@EV?$basic_string@DV?$char_traits@D@_STL@@V?$allocator@D@2@@_STL@@@_STL@@V?$allocator@U?$pair@EV?$basic_string@DV?$char_traits@D@_STL@@V?$allocator@D@2@@_STL@@@_STL@@@2@@2@@_STL@@@2@@2@ABV?$basic_string@DV?$char_traits@D@_STL@@V?$allocator@D@2@@2@@Z 004137c0 f i FriendMgr.obj
 0001:00012820       ??0?$_Rb_tree@V?$basic_string@DV?$char_traits@D@_STL@@V?$allocator@D@2@@_STL@@U?$pair@$$CBV?$basic_string@DV?$char_traits@D@_STL@@V?$allocator@D@2@@_STL@@V?$list@U?$pair@EV?$basic_string@DV?$char_traits@D@_STL@@V?$allocator@D@2@@_STL@@@_STL@@V?$allocator@U?$pair@EV?$basic_string@DV?$char_traits@D@_STL@@V?$allocator@D@2@@_STL@@@_STL@@@2@@2@@2@U?$_Select1st@U?$pair@$$CBV?$basic_string@DV?$char_traits@D@_STL@@V?$allocator@D@2@@_STL@@V?$list@U?$pair@EV?$basic_string@DV?$char_traits@D@_STL@@V?$allocator@D@2@@_STL@@@_STL@@V?$allocator@U?$pair@EV?$basic_string@DV?$char_traits@D@_STL@@V?$allocator@D@2@@_STL@@@_STL@@@2@@2@@_STL@@@2@U_tstring_less@@V?$allocator@U?$pair@$$CBV?$basic_string@DV?$char_traits@D@_STL@@V?$allocator@D@2@@_STL@@V?$list@U?$pair@EV?$basic_string@DV?$char_traits@D@_STL@@V?$allocator@D@2@@_STL@@@_STL@@V?$allocator@U?$pair@EV?$basic_string@DV?$char_traits@D@_STL@@V?$allocator@D@2@@_STL@@@_STL@@@2@@2@@_STL@@@2@@_STL@@QAE@ABU_tstring_less@@ABV?$allocator@U?$pair@$$CBV?$basic_string@DV?$char_traits@D@_STL@@V?$allocator@D@2@@_STL@@V?$list@U?$pair@EV?$basic_string@DV?$char_traits@D@_STL@@V?$allocator@D@2@@_STL@@@_STL@@V?$allocator@U?$pair@EV?$basic_string@DV?$char_traits@D@_STL@@V?$allocator@D@2@@_STL@@@_STL@@@2@@2@@_STL@@@1@@Z 00413820 f i FriendMgr.obj
 0001:000128a0       ??1?$_Rb_tree_base@U?$pair@$$CBV?$basic_string@DV?$char_traits@D@_STL@@V?$allocator@D@2@@_STL@@V?$list@U?$pair@EV?$basic_string@DV?$char_traits@D@_STL@@V?$allocator@D@2@@_STL@@@_STL@@V?$allocator@U?$pair@EV?$basic_string@DV?$char_traits@D@_STL@@V?$allocator@D@2@@_STL@@@_STL@@@2@@2@@_STL@@V?$allocator@U?$pair@$$CBV?$basic_string@DV?$char_traits@D@_STL@@V?$allocator@D@2@@_STL@@V?$list@U?$pair@EV?$basic_string@DV?$char_traits@D@_STL@@V?$allocator@D@2@@_STL@@@_STL@@V?$allocator@U?$pair@EV?$basic_string@DV?$char_traits@D@_STL@@V?$allocator@D@2@@_STL@@@_STL@@@2@@2@@_STL@@@2@@_STL@@QAE@XZ 004138a0 f i FriendMgr.obj
 0001:000128f0       ??1?$allocator@U?$pair@$$CBV?$basic_string@DV?$char_traits@D@_STL@@V?$allocator@D@2@@_STL@@V?$list@U?$pair@EV?$basic_string@DV?$char_traits@D@_STL@@V?$allocator@D@2@@_STL@@@_STL@@V?$allocator@U?$pair@EV?$basic_string@DV?$char_traits@D@_STL@@V?$allocator@D@2@@_STL@@@_STL@@@2@@2@@_STL@@@_STL@@QAE@XZ 004138f0 f i FriendMgr.obj
 0001:00012900       ??0?$_Rb_tree_iterator@U?$pair@$$CBV?$basic_string@DV?$char_traits@D@_STL@@V?$allocator@D@2@@_STL@@V?$list@U?$pair@EV?$basic_string@DV?$char_traits@D@_STL@@V?$allocator@D@2@@_STL@@@_STL@@V?$allocator@U?$pair@EV?$basic_string@DV?$char_traits@D@_STL@@V?$allocator@D@2@@_STL@@@_STL@@@2@@2@@_STL@@U?$_Nonconst_traits@U?$pair@$$CBV?$basic_string@DV?$char_traits@D@_STL@@V?$allocator@D@2@@_STL@@V?$list@U?$pair@EV?$basic_string@DV?$char_traits@D@_STL@@V?$allocator@D@2@@_STL@@@_STL@@V?$allocator@U?$pair@EV?$basic_string@DV?$char_traits@D@_STL@@V?$allocator@D@2@@_STL@@@_STL@@@2@@2@@_STL@@@2@@_STL@@QAE@ABU01@@Z 00413900 f i FriendMgr.obj
 0001:00012910       ?insert@?$list@U?$pair@EV?$basic_string@DV?$char_traits@D@_STL@@V?$allocator@D@2@@_STL@@@_STL@@V?$allocator@U?$pair@EV?$basic_string@DV?$char_traits@D@_STL@@V?$allocator@D@2@@_STL@@@_STL@@@2@@_STL@@QAE?AU?$_List_iterator@U?$pair@EV?$basic_string@DV?$char_traits@D@_STL@@V?$allocator@D@2@@_STL@@@_STL@@U?$_Nonconst_traits@U?$pair@EV?$basic_string@DV?$char_traits@D@_STL@@V?$allocator@D@2@@_STL@@@_STL@@@2@@2@U32@ABU?$pair@EV?$basic_string@DV?$char_traits@D@_STL@@V?$allocator@D@2@@_STL@@@2@@Z 00413910 f i FriendMgr.obj
 0001:00012940       ??1?$list@U?$pair@EV?$basic_string@DV?$char_traits@D@_STL@@V?$allocator@D@2@@_STL@@@_STL@@V?$allocator@U?$pair@EV?$basic_string@DV?$char_traits@D@_STL@@V?$allocator@D@2@@_STL@@@_STL@@@2@@_STL@@QAE@XZ 00413940 f i FriendMgr.obj
 0001:000129c0       ??0?$pair@$$CBV?$basic_string@DV?$char_traits@D@_STL@@V?$allocator@D@2@@_STL@@V?$list@U?$pair@EV?$basic_string@DV?$char_traits@D@_STL@@V?$allocator@D@2@@_STL@@@_STL@@V?$allocator@U?$pair@EV?$basic_string@DV?$char_traits@D@_STL@@V?$allocator@D@2@@_STL@@@_STL@@@2@@2@@_STL@@QAE@ABV?$basic_string@DV?$char_traits@D@_STL@@V?$allocator@D@2@@1@ABV?$list@U?$pair@EV?$basic_string@DV?$char_traits@D@_STL@@V?$allocator@D@2@@_STL@@@_STL@@V?$allocator@U?$pair@EV?$basic_string@DV?$char_traits@D@_STL@@V?$allocator@D@2@@_STL@@@_STL@@@2@@1@@Z 004139c0 f i FriendMgr.obj
 0001:00012af0       ?begin@?$list@U?$pair@EV?$basic_string@DV?$char_traits@D@_STL@@V?$allocator@D@2@@_STL@@@_STL@@V?$allocator@U?$pair@EV?$basic_string@DV?$char_traits@D@_STL@@V?$allocator@D@2@@_STL@@@_STL@@@2@@_STL@@QAE?AU?$_List_iterator@U?$pair@EV?$basic_string@DV?$char_traits@D@_STL@@V?$allocator@D@2@@_STL@@@_STL@@U?$_Nonconst_traits@U?$pair@EV?$basic_string@DV?$char_traits@D@_STL@@V?$allocator@D@2@@_STL@@@_STL@@@2@@2@XZ 00413af0 f i FriendMgr.obj
 0001:00012b00       ??0?$pair@$$CBUADDFRIENDKEY@CFriendMgr@@UADDFRIENDVALUE@2@@_STL@@QAE@ABUADDFRIENDKEY@CFriendMgr@@ABUADDFRIENDVALUE@3@@Z 00413b00 f i FriendMgr.obj
 0001:00012c00       ?begin@?$list@UONEPLAYER@CFriendMgr@@V?$allocator@UONEPLAYER@CFriendMgr@@@_STL@@@_STL@@QBE?AU?$_List_iterator@UONEPLAYER@CFriendMgr@@U?$_Const_traits@UONEPLAYER@CFriendMgr@@@_STL@@@2@XZ 00413c00 f i FriendMgr.obj
 0001:00012c10       ?insert@?$list@UONEPLAYER@CFriendMgr@@V?$allocator@UONEPLAYER@CFriendMgr@@@_STL@@@_STL@@QAE?AU?$_List_iterator@UONEPLAYER@CFriendMgr@@U?$_Nonconst_traits@UONEPLAYER@CFriendMgr@@@_STL@@@2@U32@ABUONEPLAYER@CFriendMgr@@@Z 00413c10 f i FriendMgr.obj
 0001:00012c40       ?erase@?$list@UONEPLAYER@CFriendMgr@@V?$allocator@UONEPLAYER@CFriendMgr@@@_STL@@@_STL@@QAE?AU?$_List_iterator@UONEPLAYER@CFriendMgr@@U?$_Nonconst_traits@UONEPLAYER@CFriendMgr@@@_STL@@@2@U32@@Z 00413c40 f i FriendMgr.obj
 0001:00012c80       ??0?$_List_base@UONEPLAYER@CFriendMgr@@V?$allocator@UONEPLAYER@CFriendMgr@@@_STL@@@_STL@@QAE@ABV?$allocator@UONEPLAYER@CFriendMgr@@@1@@Z 00413c80 f i FriendMgr.obj
 0001:00012cd0       ??1?$_List_base@UONEPLAYER@CFriendMgr@@V?$allocator@UONEPLAYER@CFriendMgr@@@_STL@@@_STL@@QAE@XZ 00413cd0 f i FriendMgr.obj
 0001:00012d70       ??F?$_List_iterator@UONEPLAYER@CFriendMgr@@U?$_Nonconst_traits@UONEPLAYER@CFriendMgr@@@_STL@@@_STL@@QAEAAU01@XZ 00413d70 f i FriendMgr.obj
 0001:00012d80       ?begin@?$list@V?$basic_string@DV?$char_traits@D@_STL@@V?$allocator@D@2@@_STL@@V?$allocator@V?$basic_string@DV?$char_traits@D@_STL@@V?$allocator@D@2@@_STL@@@2@@_STL@@QBE?AU?$_List_iterator@V?$basic_string@DV?$char_traits@D@_STL@@V?$allocator@D@2@@_STL@@U?$_Const_traits@V?$basic_string@DV?$char_traits@D@_STL@@V?$allocator@D@2@@_STL@@@2@@2@XZ 00413d80 f i FriendMgr.obj
 0001:00012d90       ?insert@?$list@V?$basic_string@DV?$char_traits@D@_STL@@V?$allocator@D@2@@_STL@@V?$allocator@V?$basic_string@DV?$char_traits@D@_STL@@V?$allocator@D@2@@_STL@@@2@@_STL@@QAE?AU?$_List_iterator@V?$basic_string@DV?$char_traits@D@_STL@@V?$allocator@D@2@@_STL@@U?$_Nonconst_traits@V?$basic_string@DV?$char_traits@D@_STL@@V?$allocator@D@2@@_STL@@@2@@2@U32@ABV?$basic_string@DV?$char_traits@D@_STL@@V?$allocator@D@2@@2@@Z 00413d90 f i FriendMgr.obj
 0001:00012dc0       ??0?$_List_base@V?$basic_string@DV?$char_traits@D@_STL@@V?$allocator@D@2@@_STL@@V?$allocator@V?$basic_string@DV?$char_traits@D@_STL@@V?$allocator@D@2@@_STL@@@2@@_STL@@QAE@ABV?$allocator@V?$basic_string@DV?$char_traits@D@_STL@@V?$allocator@D@2@@_STL@@@1@@Z 00413dc0 f i FriendMgr.obj
 0001:00012e10       ??1?$_List_base@V?$basic_string@DV?$char_traits@D@_STL@@V?$allocator@D@2@@_STL@@V?$allocator@V?$basic_string@DV?$char_traits@D@_STL@@V?$allocator@D@2@@_STL@@@2@@_STL@@QAE@XZ 00413e10 f i FriendMgr.obj
 0001:00012e90       ?_M_insert_overflow@?$vector@U?$_Rb_tree_iterator@U?$pair@$$CBV?$basic_string@DV?$char_traits@D@_STL@@V?$allocator@D@2@@_STL@@UPLAYERINFO@CFriendMgr@@@_STL@@U?$_Nonconst_traits@U?$pair@$$CBV?$basic_string@DV?$char_traits@D@_STL@@V?$allocator@D@2@@_STL@@UPLAYERINFO@CFriendMgr@@@_STL@@@2@@_STL@@V?$allocator@U?$_Rb_tree_iterator@U?$pair@$$CBV?$basic_string@DV?$char_traits@D@_STL@@V?$allocator@D@2@@_STL@@UPLAYERINFO@CFriendMgr@@@_STL@@U?$_Nonconst_traits@U?$pair@$$CBV?$basic_string@DV?$char_traits@D@_STL@@V?$allocator@D@2@@_STL@@UPLAYERINFO@CFriendMgr@@@_STL@@@2@@_STL@@@2@@_STL@@IAEXPAU?$_Rb_tree_iterator@U?$pair@$$CBV?$basic_string@DV?$char_traits@D@_STL@@V?$allocator@D@2@@_STL@@UPLAYERINFO@CFriendMgr@@@_STL@@U?$_Nonconst_traits@U?$pair@$$CBV?$basic_string@DV?$char_traits@D@_STL@@V?$allocator@D@2@@_STL@@UPLAYERINFO@CFriendMgr@@@_STL@@@2@@2@ABU32@ABU__false_type@2@I_N@Z 00413e90 f i FriendMgr.obj
 0001:00013010       ??0?$_Vector_base@U?$_Rb_tree_iterator@U?$pair@$$CBV?$basic_string@DV?$char_traits@D@_STL@@V?$allocator@D@2@@_STL@@UPLAYERINFO@CFriendMgr@@@_STL@@U?$_Nonconst_traits@U?$pair@$$CBV?$basic_string@DV?$char_traits@D@_STL@@V?$allocator@D@2@@_STL@@UPLAYERINFO@CFriendMgr@@@_STL@@@2@@_STL@@V?$allocator@U?$_Rb_tree_iterator@U?$pair@$$CBV?$basic_string@DV?$char_traits@D@_STL@@V?$allocator@D@2@@_STL@@UPLAYERINFO@CFriendMgr@@@_STL@@U?$_Nonconst_traits@U?$pair@$$CBV?$basic_string@DV?$char_traits@D@_STL@@V?$allocator@D@2@@_STL@@UPLAYERINFO@CFriendMgr@@@_STL@@@2@@_STL@@@2@@_STL@@QAE@ABV?$allocator@U?$_Rb_tree_iterator@U?$pair@$$CBV?$basic_string@DV?$char_traits@D@_STL@@V?$allocator@D@2@@_STL@@UPLAYERINFO@CFriendMgr@@@_STL@@U?$_Nonconst_traits@U?$pair@$$CBV?$basic_string@DV?$char_traits@D@_STL@@V?$allocator@D@2@@_STL@@UPLAYERINFO@CFriendMgr@@@_STL@@@2@@_STL@@@1@@Z 00414010 f i FriendMgr.obj
 0001:00013020       ??1?$_Vector_base@U?$_Rb_tree_iterator@U?$pair@$$CBV?$basic_string@DV?$char_traits@D@_STL@@V?$allocator@D@2@@_STL@@UPLAYERINFO@CFriendMgr@@@_STL@@U?$_Nonconst_traits@U?$pair@$$CBV?$basic_string@DV?$char_traits@D@_STL@@V?$allocator@D@2@@_STL@@UPLAYERINFO@CFriendMgr@@@_STL@@@2@@_STL@@V?$allocator@U?$_Rb_tree_iterator@U?$pair@$$CBV?$basic_string@DV?$char_traits@D@_STL@@V?$allocator@D@2@@_STL@@UPLAYERINFO@CFriendMgr@@@_STL@@U?$_Nonconst_traits@U?$pair@$$CBV?$basic_string@DV?$char_traits@D@_STL@@V?$allocator@D@2@@_STL@@UPLAYERINFO@CFriendMgr@@@_STL@@@2@@_STL@@@2@@_STL@@QAE@XZ 00414020 f i FriendMgr.obj
 0001:00013090       ??1?$_STLP_alloc_proxy@PAU?$_Rb_tree_node@U?$pair@$$CBV?$basic_string@DV?$char_traits@D@_STL@@V?$allocator@D@2@@_STL@@UFRIENDINFO@CFriendMgr@@@_STL@@@_STL@@U12@V?$allocator@U?$pair@$$CBV?$basic_string@DV?$char_traits@D@_STL@@V?$allocator@D@2@@_STL@@UFRIENDINFO@CFriendMgr@@@_STL@@@2@@_STL@@QAE@XZ 00414090 f i FriendMgr.obj
 0001:000130a0       ??1?$_STLP_alloc_proxy@PAU?$_Rb_tree_node@U?$pair@$$CBV?$basic_string@DV?$char_traits@D@_STL@@V?$allocator@D@2@@_STL@@UPLAYERINFO@CFriendMgr@@@_STL@@@_STL@@U12@V?$allocator@U?$pair@$$CBV?$basic_string@DV?$char_traits@D@_STL@@V?$allocator@D@2@@_STL@@UPLAYERINFO@CFriendMgr@@@_STL@@@2@@_STL@@QAE@XZ 004140a0 f i FriendMgr.obj
 0001:000130b0       ??1?$_STLP_alloc_proxy@PAU?$_Rb_tree_node@U?$pair@$$CBUADDFRIENDKEY@CFriendMgr@@UADDFRIENDVALUE@2@@_STL@@@_STL@@U12@V?$allocator@U?$pair@$$CBUADDFRIENDKEY@CFriendMgr@@UADDFRIENDVALUE@2@@_STL@@@2@@_STL@@QAE@XZ 004140b0 f i FriendMgr.obj
 0001:000130c0       ??1?$_STLP_alloc_proxy@PAU?$_List_node@UMEM_FRIENDRECORD@CFriendMgr@@@_STL@@U12@V?$allocator@UMEM_FRIENDRECORD@CFriendMgr@@@2@@_STL@@QAE@XZ 004140c0 f i FriendMgr.obj
 0001:000130d0       ??1?$_STLP_alloc_proxy@PAU?$_Rb_tree_node@U?$pair@$$CBKV?$list@UtagPlusSrcInfo@@V?$allocator@UtagPlusSrcInfo@@@_STL@@@_STL@@@_STL@@@_STL@@U12@V?$allocator@U?$pair@$$CBKV?$list@UtagPlusSrcInfo@@V?$allocator@UtagPlusSrcInfo@@@_STL@@@_STL@@@_STL@@@2@@_STL@@QAE@XZ 004140d0 f i FriendMgr.obj
 0001:000130e0       ??1?$_STLP_alloc_proxy@PAU?$_Rb_tree_node@U?$pair@$$CBV?$basic_string@DV?$char_traits@D@_STL@@V?$allocator@D@2@@_STL@@V?$list@U?$pair@EV?$basic_string@DV?$char_traits@D@_STL@@V?$allocator@D@2@@_STL@@@_STL@@V?$allocator@U?$pair@EV?$basic_string@DV?$char_traits@D@_STL@@V?$allocator@D@2@@_STL@@@_STL@@@2@@2@@_STL@@@_STL@@U12@V?$allocator@U?$pair@$$CBV?$basic_string@DV?$char_traits@D@_STL@@V?$allocator@D@2@@_STL@@V?$list@U?$pair@EV?$basic_string@DV?$char_traits@D@_STL@@V?$allocator@D@2@@_STL@@@_STL@@V?$allocator@U?$pair@EV?$basic_string@DV?$char_traits@D@_STL@@V?$allocator@D@2@@_STL@@@_STL@@@2@@2@@_STL@@@2@@_STL@@QAE@XZ 004140e0 f i FriendMgr.obj
 0001:000130f0       ??1?$_STLP_alloc_proxy@PAU?$_List_node@UONEPLAYER@CFriendMgr@@@_STL@@U12@V?$allocator@UONEPLAYER@CFriendMgr@@@2@@_STL@@QAE@XZ 004140f0 f i FriendMgr.obj
 0001:00013100       ??1?$_STLP_alloc_proxy@PAU?$_List_node@V?$basic_string@DV?$char_traits@D@_STL@@V?$allocator@D@2@@_STL@@@_STL@@U12@V?$allocator@V?$basic_string@DV?$char_traits@D@_STL@@V?$allocator@D@2@@_STL@@@2@@_STL@@QAE@XZ 00414100 f i FriendMgr.obj
 0001:00013110       ??1?$_STLP_alloc_proxy@PAU?$_Rb_tree_iterator@U?$pair@$$CBV?$basic_string@DV?$char_traits@D@_STL@@V?$allocator@D@2@@_STL@@UPLAYERINFO@CFriendMgr@@@_STL@@U?$_Nonconst_traits@U?$pair@$$CBV?$basic_string@DV?$char_traits@D@_STL@@V?$allocator@D@2@@_STL@@UPLAYERINFO@CFriendMgr@@@_STL@@@2@@_STL@@U12@V?$allocator@U?$_Rb_tree_iterator@U?$pair@$$CBV?$basic_string@DV?$char_traits@D@_STL@@V?$allocator@D@2@@_STL@@UPLAYERINFO@CFriendMgr@@@_STL@@U?$_Nonconst_traits@U?$pair@$$CBV?$basic_string@DV?$char_traits@D@_STL@@V?$allocator@D@2@@_STL@@UPLAYERINFO@CFriendMgr@@@_STL@@@2@@_STL@@@2@@_STL@@QAE@XZ 00414110 f i FriendMgr.obj
 0001:00013120       ?copy@?$__char_traits_base@DH@_STL@@SAPADPADPBDI@Z 00414120 f i FriendMgr.obj
 0001:00013150       ?erase@?$basic_string@DV?$char_traits@D@_STL@@V?$allocator@D@2@@_STL@@QAEPADPAD0@Z 00414150 f i FriendMgr.obj
 0001:00013190       ?_M_empty_initialize@?$_Rb_tree@V?$basic_string@DV?$char_traits@D@_STL@@V?$allocator@D@2@@_STL@@U?$pair@$$CBV?$basic_string@DV?$char_traits@D@_STL@@V?$allocator@D@2@@_STL@@UFRIENDINFO@CFriendMgr@@@2@U?$_Select1st@U?$pair@$$CBV?$basic_string@DV?$char_traits@D@_STL@@V?$allocator@D@2@@_STL@@UFRIENDINFO@CFriendMgr@@@_STL@@@2@U_tstring_less@@V?$allocator@U?$pair@$$CBV?$basic_string@DV?$char_traits@D@_STL@@V?$allocator@D@2@@_STL@@UFRIENDINFO@CFriendMgr@@@_STL@@@2@@_STL@@AAEXXZ 00414190 f i FriendMgr.obj
 0001:000131b0       ?erase@?$_Rb_tree@V?$basic_string@DV?$char_traits@D@_STL@@V?$allocator@D@2@@_STL@@U?$pair@$$CBV?$basic_string@DV?$char_traits@D@_STL@@V?$allocator@D@2@@_STL@@UFRIENDINFO@CFriendMgr@@@2@U?$_Select1st@U?$pair@$$CBV?$basic_string@DV?$char_traits@D@_STL@@V?$allocator@D@2@@_STL@@UFRIENDINFO@CFriendMgr@@@_STL@@@2@U_tstring_less@@V?$allocator@U?$pair@$$CBV?$basic_string@DV?$char_traits@D@_STL@@V?$allocator@D@2@@_STL@@UFRIENDINFO@CFriendMgr@@@_STL@@@2@@_STL@@QAEXU?$_Rb_tree_iterator@U?$pair@$$CBV?$basic_string@DV?$char_traits@D@_STL@@V?$allocator@D@2@@_STL@@UFRIENDINFO@CFriendMgr@@@_STL@@U?$_Nonconst_traits@U?$pair@$$CBV?$basic_string@DV?$char_traits@D@_STL@@V?$allocator@D@2@@_STL@@UFRIENDINFO@CFriendMgr@@@_STL@@@2@@2@0@Z 004141b0 f i FriendMgr.obj
 0001:00013250       ?lower_bound@?$_Rb_tree@V?$basic_string@DV?$char_traits@D@_STL@@V?$allocator@D@2@@_STL@@U?$pair@$$CBV?$basic_string@DV?$char_traits@D@_STL@@V?$allocator@D@2@@_STL@@UFRIENDINFO@CFriendMgr@@@2@U?$_Select1st@U?$pair@$$CBV?$basic_string@DV?$char_traits@D@_STL@@V?$allocator@D@2@@_STL@@UFRIENDINFO@CFriendMgr@@@_STL@@@2@U_tstring_less@@V?$allocator@U?$pair@$$CBV?$basic_string@DV?$char_traits@D@_STL@@V?$allocator@D@2@@_STL@@UFRIENDINFO@CFriendMgr@@@_STL@@@2@@_STL@@QAE?AU?$_Rb_tree_iterator@U?$pair@$$CBV?$basic_string@DV?$char_traits@D@_STL@@V?$allocator@D@2@@_STL@@UFRIENDINFO@CFriendMgr@@@_STL@@U?$_Nonconst_traits@U?$pair@$$CBV?$basic_string@DV?$char_traits@D@_STL@@V?$allocator@D@2@@_STL@@UFRIENDINFO@CFriendMgr@@@_STL@@@2@@2@ABV?$basic_string@DV?$char_traits@D@_STL@@V?$allocator@D@2@@2@@Z 00414250 f i FriendMgr.obj
 0001:000132b0       ??0?$_Rb_tree_base@U?$pair@$$CBV?$basic_string@DV?$char_traits@D@_STL@@V?$allocator@D@2@@_STL@@UFRIENDINFO@CFriendMgr@@@_STL@@V?$allocator@U?$pair@$$CBV?$basic_string@DV?$char_traits@D@_STL@@V?$allocator@D@2@@_STL@@UFRIENDINFO@CFriendMgr@@@_STL@@@2@@_STL@@QAE@ABV?$allocator@U?$pair@$$CBV?$basic_string@DV?$char_traits@D@_STL@@V?$allocator@D@2@@_STL@@UFRIENDINFO@CFriendMgr@@@_STL@@@1@@Z 004142b0 f i FriendMgr.obj
 0001:00013300       ?deallocate@?$_STLP_alloc_proxy@PAU?$_Rb_tree_node@U?$pair@$$CBV?$basic_string@DV?$char_traits@D@_STL@@V?$allocator@D@2@@_STL@@UFRIENDINFO@CFriendMgr@@@_STL@@@_STL@@U12@V?$allocator@U?$pair@$$CBV?$basic_string@DV?$char_traits@D@_STL@@V?$allocator@D@2@@_STL@@UFRIENDINFO@CFriendMgr@@@_STL@@@2@@_STL@@QAEXPAU?$_Rb_tree_node@U?$pair@$$CBV?$basic_string@DV?$char_traits@D@_STL@@V?$allocator@D@2@@_STL@@UFRIENDINFO@CFriendMgr@@@_STL@@@2@I@Z 00414300 f i FriendMgr.obj
 0001:00013340       ?_M_empty_initialize@?$_Rb_tree@V?$basic_string@DV?$char_traits@D@_STL@@V?$allocator@D@2@@_STL@@U?$pair@$$CBV?$basic_string@DV?$char_traits@D@_STL@@V?$allocator@D@2@@_STL@@UPLAYERINFO@CFriendMgr@@@2@U?$_Select1st@U?$pair@$$CBV?$basic_string@DV?$char_traits@D@_STL@@V?$allocator@D@2@@_STL@@UPLAYERINFO@CFriendMgr@@@_STL@@@2@U_tstring_less@@V?$allocator@U?$pair@$$CBV?$basic_string@DV?$char_traits@D@_STL@@V?$allocator@D@2@@_STL@@UPLAYERINFO@CFriendMgr@@@_STL@@@2@@_STL@@AAEXXZ 00414340 f i FriendMgr.obj
 0001:00013360       ?lower_bound@?$_Rb_tree@V?$basic_string@DV?$char_traits@D@_STL@@V?$allocator@D@2@@_STL@@U?$pair@$$CBV?$basic_string@DV?$char_traits@D@_STL@@V?$allocator@D@2@@_STL@@UPLAYERINFO@CFriendMgr@@@2@U?$_Select1st@U?$pair@$$CBV?$basic_string@DV?$char_traits@D@_STL@@V?$allocator@D@2@@_STL@@UPLAYERINFO@CFriendMgr@@@_STL@@@2@U_tstring_less@@V?$allocator@U?$pair@$$CBV?$basic_string@DV?$char_traits@D@_STL@@V?$allocator@D@2@@_STL@@UPLAYERINFO@CFriendMgr@@@_STL@@@2@@_STL@@QAE?AU?$_Rb_tree_iterator@U?$pair@$$CBV?$basic_string@DV?$char_traits@D@_STL@@V?$allocator@D@2@@_STL@@UPLAYERINFO@CFriendMgr@@@_STL@@U?$_Nonconst_traits@U?$pair@$$CBV?$basic_string@DV?$char_traits@D@_STL@@V?$allocator@D@2@@_STL@@UPLAYERINFO@CFriendMgr@@@_STL@@@2@@2@ABV?$basic_string@DV?$char_traits@D@_STL@@V?$allocator@D@2@@2@@Z 00414360 f i FriendMgr.obj
 0001:000133c0       ??0?$_Rb_tree_base@U?$pair@$$CBV?$basic_string@DV?$char_traits@D@_STL@@V?$allocator@D@2@@_STL@@UPLAYERINFO@CFriendMgr@@@_STL@@V?$allocator@U?$pair@$$CBV?$basic_string@DV?$char_traits@D@_STL@@V?$allocator@D@2@@_STL@@UPLAYERINFO@CFriendMgr@@@_STL@@@2@@_STL@@QAE@ABV?$allocator@U?$pair@$$CBV?$basic_string@DV?$char_traits@D@_STL@@V?$allocator@D@2@@_STL@@UPLAYERINFO@CFriendMgr@@@_STL@@@1@@Z 004143c0 f i FriendMgr.obj
 0001:00013410       ?deallocate@?$_STLP_alloc_proxy@PAU?$_Rb_tree_node@U?$pair@$$CBV?$basic_string@DV?$char_traits@D@_STL@@V?$allocator@D@2@@_STL@@UPLAYERINFO@CFriendMgr@@@_STL@@@_STL@@U12@V?$allocator@U?$pair@$$CBV?$basic_string@DV?$char_traits@D@_STL@@V?$allocator@D@2@@_STL@@UPLAYERINFO@CFriendMgr@@@_STL@@@2@@_STL@@QAEXPAU?$_Rb_tree_node@U?$pair@$$CBV?$basic_string@DV?$char_traits@D@_STL@@V?$allocator@D@2@@_STL@@UPLAYERINFO@CFriendMgr@@@_STL@@@2@I@Z 00414410 f i FriendMgr.obj
 0001:00013450       ?_M_empty_initialize@?$_Rb_tree@UADDFRIENDKEY@CFriendMgr@@U?$pair@$$CBUADDFRIENDKEY@CFriendMgr@@UADDFRIENDVALUE@2@@_STL@@U?$_Select1st@U?$pair@$$CBUADDFRIENDKEY@CFriendMgr@@UADDFRIENDVALUE@2@@_STL@@@4@U?$less@UADDFRIENDKEY@CFriendMgr@@@4@V?$allocator@U?$pair@$$CBUADDFRIENDKEY@CFriendMgr@@UADDFRIENDVALUE@2@@_STL@@@4@@_STL@@AAEXXZ 00414450 f i FriendMgr.obj
 0001:00013470       ?lower_bound@?$_Rb_tree@UADDFRIENDKEY@CFriendMgr@@U?$pair@$$CBUADDFRIENDKEY@CFriendMgr@@UADDFRIENDVALUE@2@@_STL@@U?$_Select1st@U?$pair@$$CBUADDFRIENDKEY@CFriendMgr@@UADDFRIENDVALUE@2@@_STL@@@4@U?$less@UADDFRIENDKEY@CFriendMgr@@@4@V?$allocator@U?$pair@$$CBUADDFRIENDKEY@CFriendMgr@@UADDFRIENDVALUE@2@@_STL@@@4@@_STL@@QAE?AU?$_Rb_tree_iterator@U?$pair@$$CBUADDFRIENDKEY@CFriendMgr@@UADDFRIENDVALUE@2@@_STL@@U?$_Nonconst_traits@U?$pair@$$CBUADDFRIENDKEY@CFriendMgr@@UADDFRIENDVALUE@2@@_STL@@@2@@2@ABUADDFRIENDKEY@CFriendMgr@@@Z 00414470 f i FriendMgr.obj
 0001:000134d0       ??0?$_Rb_tree_base@U?$pair@$$CBUADDFRIENDKEY@CFriendMgr@@UADDFRIENDVALUE@2@@_STL@@V?$allocator@U?$pair@$$CBUADDFRIENDKEY@CFriendMgr@@UADDFRIENDVALUE@2@@_STL@@@2@@_STL@@QAE@ABV?$allocator@U?$pair@$$CBUADDFRIENDKEY@CFriendMgr@@UADDFRIENDVALUE@2@@_STL@@@1@@Z 004144d0 f i FriendMgr.obj
 0001:00013520       ?deallocate@?$_STLP_alloc_proxy@PAU?$_Rb_tree_node@U?$pair@$$CBUADDFRIENDKEY@CFriendMgr@@UADDFRIENDVALUE@2@@_STL@@@_STL@@U12@V?$allocator@U?$pair@$$CBUADDFRIENDKEY@CFriendMgr@@UADDFRIENDVALUE@2@@_STL@@@2@@_STL@@QAEXPAU?$_Rb_tree_node@U?$pair@$$CBUADDFRIENDKEY@CFriendMgr@@UADDFRIENDVALUE@2@@_STL@@@2@I@Z 00414520 f i FriendMgr.obj
 0001:00013560       ?_M_create_node@?$list@UMEM_FRIENDRECORD@CFriendMgr@@V?$allocator@UMEM_FRIENDRECORD@CFriendMgr@@@_STL@@@_STL@@IAEPAU?$_List_node@UMEM_FRIENDRECORD@CFriendMgr@@@2@ABUMEM_FRIENDRECORD@CFriendMgr@@@Z 00414560 f i FriendMgr.obj
 0001:00013660       ?deallocate@?$_STLP_alloc_proxy@PAU?$_List_node@UMEM_FRIENDRECORD@CFriendMgr@@@_STL@@U12@V?$allocator@UMEM_FRIENDRECORD@CFriendMgr@@@2@@_STL@@QAEXPAU?$_List_node@UMEM_FRIENDRECORD@CFriendMgr@@@2@I@Z 00414660 f i FriendMgr.obj
 0001:000136a0       ?lower_bound@?$_Rb_tree@KU?$pair@$$CBKV?$list@UtagPlusSrcInfo@@V?$allocator@UtagPlusSrcInfo@@@_STL@@@_STL@@@_STL@@U?$_Select1st@U?$pair@$$CBKV?$list@UtagPlusSrcInfo@@V?$allocator@UtagPlusSrcInfo@@@_STL@@@_STL@@@_STL@@@2@U?$less@K@2@V?$allocator@U?$pair@$$CBKV?$list@UtagPlusSrcInfo@@V?$allocator@UtagPlusSrcInfo@@@_STL@@@_STL@@@_STL@@@2@@_STL@@QAE?AU?$_Rb_tree_iterator@U?$pair@$$CBKV?$list@UtagPlusSrcInfo@@V?$allocator@UtagPlusSrcInfo@@@_STL@@@_STL@@@_STL@@U?$_Nonconst_traits@U?$pair@$$CBKV?$list@UtagPlusSrcInfo@@V?$allocator@UtagPlusSrcInfo@@@_STL@@@_STL@@@_STL@@@2@@2@ABK@Z 004146a0 f i FriendMgr.obj
 0001:000136e0       ?deallocate@?$_STLP_alloc_proxy@PAU?$_Rb_tree_node@U?$pair@$$CBKV?$list@UtagPlusSrcInfo@@V?$allocator@UtagPlusSrcInfo@@@_STL@@@_STL@@@_STL@@@_STL@@U12@V?$allocator@U?$pair@$$CBKV?$list@UtagPlusSrcInfo@@V?$allocator@UtagPlusSrcInfo@@@_STL@@@_STL@@@_STL@@@2@@_STL@@QAEXPAU?$_Rb_tree_node@U?$pair@$$CBKV?$list@UtagPlusSrcInfo@@V?$allocator@UtagPlusSrcInfo@@@_STL@@@_STL@@@_STL@@@2@I@Z 004146e0 f i FriendMgr.obj
 0001:00013720       ??1?$_List_base@UtagPlusSrcInfo@@V?$allocator@UtagPlusSrcInfo@@@_STL@@@_STL@@QAE@XZ 00414720 f i FriendMgr.obj
 0001:00013790       ?deallocate@?$_STLP_alloc_proxy@PAU?$_Rb_tree_node@U?$pair@$$CBV?$basic_string@DV?$char_traits@D@_STL@@V?$allocator@D@2@@_STL@@V?$list@U?$pair@EV?$basic_string@DV?$char_traits@D@_STL@@V?$allocator@D@2@@_STL@@@_STL@@V?$allocator@U?$pair@EV?$basic_string@DV?$char_traits@D@_STL@@V?$allocator@D@2@@_STL@@@_STL@@@2@@2@@_STL@@@_STL@@U12@V?$allocator@U?$pair@$$CBV?$basic_string@DV?$char_traits@D@_STL@@V?$allocator@D@2@@_STL@@V?$list@U?$pair@EV?$basic_string@DV?$char_traits@D@_STL@@V?$allocator@D@2@@_STL@@@_STL@@V?$allocator@U?$pair@EV?$basic_string@DV?$char_traits@D@_STL@@V?$allocator@D@2@@_STL@@@_STL@@@2@@2@@_STL@@@2@@_STL@@QAEXPAU?$_Rb_tree_node@U?$pair@$$CBV?$basic_string@DV?$char_traits@D@_STL@@V?$allocator@D@2@@_STL@@V?$list@U?$pair@EV?$basic_string@DV?$char_traits@D@_STL@@V?$allocator@D@2@@_STL@@@_STL@@V?$allocator@U?$pair@EV?$basic_string@DV?$char_traits@D@_STL@@V?$allocator@D@2@@_STL@@@_STL@@@2@@2@@_STL@@@2@I@Z 00414790 f i FriendMgr.obj
 0001:000137c0       ?_M_create_node@?$list@U?$pair@EV?$basic_string@DV?$char_traits@D@_STL@@V?$allocator@D@2@@_STL@@@_STL@@V?$allocator@U?$pair@EV?$basic_string@DV?$char_traits@D@_STL@@V?$allocator@D@2@@_STL@@@_STL@@@2@@_STL@@IAEPAU?$_List_node@U?$pair@EV?$basic_string@DV?$char_traits@D@_STL@@V?$allocator@D@2@@_STL@@@_STL@@@2@ABU?$pair@EV?$basic_string@DV?$char_traits@D@_STL@@V?$allocator@D@2@@_STL@@@2@@Z 004147c0 f i FriendMgr.obj
 0001:00013890       ??1?$_List_base@U?$pair@EV?$basic_string@DV?$char_traits@D@_STL@@V?$allocator@D@2@@_STL@@@_STL@@V?$allocator@U?$pair@EV?$basic_string@DV?$char_traits@D@_STL@@V?$allocator@D@2@@_STL@@@_STL@@@2@@_STL@@QAE@XZ 00414890 f i FriendMgr.obj
 0001:00013910       ?_M_create_node@?$list@UONEPLAYER@CFriendMgr@@V?$allocator@UONEPLAYER@CFriendMgr@@@_STL@@@_STL@@IAEPAU?$_List_node@UONEPLAYER@CFriendMgr@@@2@ABUONEPLAYER@CFriendMgr@@@Z 00414910 f i FriendMgr.obj
 0001:00013a30       ?begin@?$list@UMEM_FRIENDRECORD@CFriendMgr@@V?$allocator@UMEM_FRIENDRECORD@CFriendMgr@@@_STL@@@_STL@@QAE?AU?$_List_iterator@UMEM_FRIENDRECORD@CFriendMgr@@U?$_Nonconst_traits@UMEM_FRIENDRECORD@CFriendMgr@@@_STL@@@2@XZ 00414a30 f i FriendMgr.obj
 0001:00013a40       ?end@?$list@UMEM_FRIENDRECORD@CFriendMgr@@V?$allocator@UMEM_FRIENDRECORD@CFriendMgr@@@_STL@@@_STL@@QBE?AU?$_List_iterator@UMEM_FRIENDRECORD@CFriendMgr@@U?$_Const_traits@UMEM_FRIENDRECORD@CFriendMgr@@@_STL@@@2@XZ 00414a40 f i FriendMgr.obj
 0001:00013a50       ?_M_create_node@?$list@V?$basic_string@DV?$char_traits@D@_STL@@V?$allocator@D@2@@_STL@@V?$allocator@V?$basic_string@DV?$char_traits@D@_STL@@V?$allocator@D@2@@_STL@@@2@@_STL@@IAEPAU?$_List_node@V?$basic_string@DV?$char_traits@D@_STL@@V?$allocator@D@2@@_STL@@@2@ABV?$basic_string@DV?$char_traits@D@_STL@@V?$allocator@D@2@@2@@Z 00414a50 f i FriendMgr.obj
 0001:00013b10       ??1?$_STLP_alloc_proxy@PAU?$_List_node@U?$pair@EV?$basic_string@DV?$char_traits@D@_STL@@V?$allocator@D@2@@_STL@@@_STL@@@_STL@@U12@V?$allocator@U?$pair@EV?$basic_string@DV?$char_traits@D@_STL@@V?$allocator@D@2@@_STL@@@_STL@@@2@@_STL@@QAE@XZ 00414b10 f i FriendMgr.obj
 0001:00013b20       ?_M_lower_bound@?$_Rb_tree@V?$basic_string@DV?$char_traits@D@_STL@@V?$allocator@D@2@@_STL@@U?$pair@$$CBV?$basic_string@DV?$char_traits@D@_STL@@V?$allocator@D@2@@_STL@@UFRIENDINFO@CFriendMgr@@@2@U?$_Select1st@U?$pair@$$CBV?$basic_string@DV?$char_traits@D@_STL@@V?$allocator@D@2@@_STL@@UFRIENDINFO@CFriendMgr@@@_STL@@@2@U_tstring_less@@V?$allocator@U?$pair@$$CBV?$basic_string@DV?$char_traits@D@_STL@@V?$allocator@D@2@@_STL@@UFRIENDINFO@CFriendMgr@@@_STL@@@2@@_STL@@ABEPAU?$_Rb_tree_node@U?$pair@$$CBV?$basic_string@DV?$char_traits@D@_STL@@V?$allocator@D@2@@_STL@@UFRIENDINFO@CFriendMgr@@@_STL@@@2@ABV?$basic_string@DV?$char_traits@D@_STL@@V?$allocator@D@2@@2@@Z 00414b20 f i FriendMgr.obj
 0001:00013b80       ?get_allocator@?$_Rb_tree_base@U?$pair@$$CBV?$basic_string@DV?$char_traits@D@_STL@@V?$allocator@D@2@@_STL@@UFRIENDINFO@CFriendMgr@@@_STL@@V?$allocator@U?$pair@$$CBV?$basic_string@DV?$char_traits@D@_STL@@V?$allocator@D@2@@_STL@@UFRIENDINFO@CFriendMgr@@@_STL@@@2@@_STL@@QBE?AV?$allocator@U?$pair@$$CBV?$basic_string@DV?$char_traits@D@_STL@@V?$allocator@D@2@@_STL@@UFRIENDINFO@CFriendMgr@@@_STL@@@2@XZ 00414b80 f i FriendMgr.obj
 0001:00013ba0       ??0?$_STLP_alloc_proxy@PAU?$_Rb_tree_node@U?$pair@$$CBV?$basic_string@DV?$char_traits@D@_STL@@V?$allocator@D@2@@_STL@@UFRIENDINFO@CFriendMgr@@@_STL@@@_STL@@U12@V?$allocator@U?$pair@$$CBV?$basic_string@DV?$char_traits@D@_STL@@V?$allocator@D@2@@_STL@@UFRIENDINFO@CFriendMgr@@@_STL@@@2@@_STL@@QAE@ABV?$allocator@U?$pair@$$CBV?$basic_string@DV?$char_traits@D@_STL@@V?$allocator@D@2@@_STL@@UFRIENDINFO@CFriendMgr@@@_STL@@@1@PAU?$_Rb_tree_node@U?$pair@$$CBV?$basic_string@DV?$char_traits@D@_STL@@V?$allocator@D@2@@_STL@@UFRIENDINFO@CFriendMgr@@@_STL@@@1@@Z 00414ba0 f i FriendMgr.obj
 0001:00013bb0       ?get_allocator@?$_List_base@UtagPlusSrcInfo@@V?$allocator@UtagPlusSrcInfo@@@_STL@@@_STL@@QBE?AV?$allocator@UtagPlusSrcInfo@@@2@XZ 00414bb0 f i FriendMgr.obj
 0001:00013bd0       ?get_allocator@?$_List_base@U?$pair@EV?$basic_string@DV?$char_traits@D@_STL@@V?$allocator@D@2@@_STL@@@_STL@@V?$allocator@U?$pair@EV?$basic_string@DV?$char_traits@D@_STL@@V?$allocator@D@2@@_STL@@@_STL@@@2@@_STL@@QBE?AV?$allocator@U?$pair@EV?$basic_string@DV?$char_traits@D@_STL@@V?$allocator@D@2@@_STL@@@_STL@@@2@XZ 00414bd0 f i FriendMgr.obj
 0001:00013bf0       ??1?$allocator@U?$pair@EV?$basic_string@DV?$char_traits@D@_STL@@V?$allocator@D@2@@_STL@@@_STL@@@_STL@@QAE@XZ 00414bf0 f i FriendMgr.obj
 0001:00013c00       ?deallocate@?$allocator@U?$_Rb_tree_node@U?$pair@$$CBV?$basic_string@DV?$char_traits@D@_STL@@V?$allocator@D@2@@_STL@@UFRIENDINFO@CFriendMgr@@@_STL@@@_STL@@@_STL@@QBEXPAU?$_Rb_tree_node@U?$pair@$$CBV?$basic_string@DV?$char_traits@D@_STL@@V?$allocator@D@2@@_STL@@UFRIENDINFO@CFriendMgr@@@_STL@@@2@I@Z 00414c00 f i FriendMgr.obj
 0001:00013c40       ?deallocate@?$allocator@U?$_Rb_tree_node@U?$pair@$$CBV?$basic_string@DV?$char_traits@D@_STL@@V?$allocator@D@2@@_STL@@UPLAYERINFO@CFriendMgr@@@_STL@@@_STL@@@_STL@@QBEXPAU?$_Rb_tree_node@U?$pair@$$CBV?$basic_string@DV?$char_traits@D@_STL@@V?$allocator@D@2@@_STL@@UPLAYERINFO@CFriendMgr@@@_STL@@@2@I@Z 00414c40 f i FriendMgr.obj
 0001:00013c80       ?deallocate@?$allocator@U?$_List_node@UMEM_FRIENDRECORD@CFriendMgr@@@_STL@@@_STL@@QBEXPAU?$_List_node@UMEM_FRIENDRECORD@CFriendMgr@@@2@I@Z 00414c80 f i FriendMgr.obj
 0001:00013cc0       ?deallocate@?$allocator@U?$_Rb_tree_node@U?$pair@$$CBV?$basic_string@DV?$char_traits@D@_STL@@V?$allocator@D@2@@_STL@@V?$list@U?$pair@EV?$basic_string@DV?$char_traits@D@_STL@@V?$allocator@D@2@@_STL@@@_STL@@V?$allocator@U?$pair@EV?$basic_string@DV?$char_traits@D@_STL@@V?$allocator@D@2@@_STL@@@_STL@@@2@@2@@_STL@@@_STL@@@_STL@@QBEXPAU?$_Rb_tree_node@U?$pair@$$CBV?$basic_string@DV?$char_traits@D@_STL@@V?$allocator@D@2@@_STL@@V?$list@U?$pair@EV?$basic_string@DV?$char_traits@D@_STL@@V?$allocator@D@2@@_STL@@@_STL@@V?$allocator@U?$pair@EV?$basic_string@DV?$char_traits@D@_STL@@V?$allocator@D@2@@_STL@@@_STL@@@2@@2@@_STL@@@2@I@Z 00414cc0 f i FriendMgr.obj
 0001:00013cf0       ?deallocate@?$allocator@U?$_List_node@UONEPLAYER@CFriendMgr@@@_STL@@@_STL@@QBEXPAU?$_List_node@UONEPLAYER@CFriendMgr@@@2@I@Z 00414cf0 f i FriendMgr.obj
 0001:00013d30       ?_M_upper_bound@?$_Rb_tree@V?$basic_string@DV?$char_traits@D@_STL@@V?$allocator@D@2@@_STL@@U?$pair@$$CBV?$basic_string@DV?$char_traits@D@_STL@@V?$allocator@D@2@@_STL@@UFRIENDINFO@CFriendMgr@@@2@U?$_Select1st@U?$pair@$$CBV?$basic_string@DV?$char_traits@D@_STL@@V?$allocator@D@2@@_STL@@UFRIENDINFO@CFriendMgr@@@_STL@@@2@U_tstring_less@@V?$allocator@U?$pair@$$CBV?$basic_string@DV?$char_traits@D@_STL@@V?$allocator@D@2@@_STL@@UFRIENDINFO@CFriendMgr@@@_STL@@@2@@_STL@@ABEPAU?$_Rb_tree_node@U?$pair@$$CBV?$basic_string@DV?$char_traits@D@_STL@@V?$allocator@D@2@@_STL@@UFRIENDINFO@CFriendMgr@@@_STL@@@2@ABV?$basic_string@DV?$char_traits@D@_STL@@V?$allocator@D@2@@2@@Z 00414d30 f i FriendMgr.obj
 0001:00013d90       ??0?$_STLP_alloc_proxy@PAU?$_List_node@U?$pair@EV?$basic_string@DV?$char_traits@D@_STL@@V?$allocator@D@2@@_STL@@@_STL@@@_STL@@U12@V?$allocator@U?$pair@EV?$basic_string@DV?$char_traits@D@_STL@@V?$allocator@D@2@@_STL@@@_STL@@@2@@_STL@@QAE@ABV?$allocator@U?$pair@EV?$basic_string@DV?$char_traits@D@_STL@@V?$allocator@D@2@@_STL@@@_STL@@@1@PAU?$_List_node@U?$pair@EV?$basic_string@DV?$char_traits@D@_STL@@V?$allocator@D@2@@_STL@@@_STL@@@1@@Z 00414d90 f i FriendMgr.obj
 0001:00013da0       ?deallocate@?$allocator@U?$_List_node@U?$pair@EV?$basic_string@DV?$char_traits@D@_STL@@V?$allocator@D@2@@_STL@@@_STL@@@_STL@@@_STL@@QBEXPAU?$_List_node@U?$pair@EV?$basic_string@DV?$char_traits@D@_STL@@V?$allocator@D@2@@_STL@@@_STL@@@2@I@Z 00414da0 f i FriendMgr.obj
 0001:00013de0       ??0?$basic_string@DV?$char_traits@D@_STL@@V?$allocator@D@2@@_STL@@QAE@XZ 00414de0 f i FriendMgr.obj
 0001:00013e50       ?_M_copy@?$_Rb_tree@V?$basic_string@DV?$char_traits@D@_STL@@V?$allocator@D@2@@_STL@@U?$pair@$$CBV?$basic_string@DV?$char_traits@D@_STL@@V?$allocator@D@2@@_STL@@UFRIENDINFO@CFriendMgr@@@2@U?$_Select1st@U?$pair@$$CBV?$basic_string@DV?$char_traits@D@_STL@@V?$allocator@D@2@@_STL@@UFRIENDINFO@CFriendMgr@@@_STL@@@2@U_tstring_less@@V?$allocator@U?$pair@$$CBV?$basic_string@DV?$char_traits@D@_STL@@V?$allocator@D@2@@_STL@@UFRIENDINFO@CFriendMgr@@@_STL@@@2@@_STL@@AAEPAU?$_Rb_tree_node@U?$pair@$$CBV?$basic_string@DV?$char_traits@D@_STL@@V?$allocator@D@2@@_STL@@UFRIENDINFO@CFriendMgr@@@_STL@@@2@PAU32@0@Z 00414e50 f i FriendMgr.obj
 0001:00013f70       ?_M_erase@?$_Rb_tree@V?$basic_string@DV?$char_traits@D@_STL@@V?$allocator@D@2@@_STL@@U?$pair@$$CBV?$basic_string@DV?$char_traits@D@_STL@@V?$allocator@D@2@@_STL@@UFRIENDINFO@CFriendMgr@@@2@U?$_Select1st@U?$pair@$$CBV?$basic_string@DV?$char_traits@D@_STL@@V?$allocator@D@2@@_STL@@UFRIENDINFO@CFriendMgr@@@_STL@@@2@U_tstring_less@@V?$allocator@U?$pair@$$CBV?$basic_string@DV?$char_traits@D@_STL@@V?$allocator@D@2@@_STL@@UFRIENDINFO@CFriendMgr@@@_STL@@@2@@_STL@@AAEXPAU?$_Rb_tree_node@U?$pair@$$CBV?$basic_string@DV?$char_traits@D@_STL@@V?$allocator@D@2@@_STL@@UFRIENDINFO@CFriendMgr@@@_STL@@@2@@Z 00414f70 f i FriendMgr.obj
 0001:00013fb0       ?insert_unique@?$_Rb_tree@V?$basic_string@DV?$char_traits@D@_STL@@V?$allocator@D@2@@_STL@@U?$pair@$$CBV?$basic_string@DV?$char_traits@D@_STL@@V?$allocator@D@2@@_STL@@UFRIENDINFO@CFriendMgr@@@2@U?$_Select1st@U?$pair@$$CBV?$basic_string@DV?$char_traits@D@_STL@@V?$allocator@D@2@@_STL@@UFRIENDINFO@CFriendMgr@@@_STL@@@2@U_tstring_less@@V?$allocator@U?$pair@$$CBV?$basic_string@DV?$char_traits@D@_STL@@V?$allocator@D@2@@_STL@@UFRIENDINFO@CFriendMgr@@@_STL@@@2@@_STL@@QAE?AU?$_Rb_tree_iterator@U?$pair@$$CBV?$basic_string@DV?$char_traits@D@_STL@@V?$allocator@D@2@@_STL@@UFRIENDINFO@CFriendMgr@@@_STL@@U?$_Nonconst_traits@U?$pair@$$CBV?$basic_string@DV?$char_traits@D@_STL@@V?$allocator@D@2@@_STL@@UFRIENDINFO@CFriendMgr@@@_STL@@@2@@2@U32@ABU?$pair@$$CBV?$basic_string@DV?$char_traits@D@_STL@@V?$allocator@D@2@@_STL@@UFRIENDINFO@CFriendMgr@@@2@@Z 00414fb0 f i FriendMgr.obj
 0001:00014510       ?insert_unique@?$_Rb_tree@V?$basic_string@DV?$char_traits@D@_STL@@V?$allocator@D@2@@_STL@@U?$pair@$$CBV?$basic_string@DV?$char_traits@D@_STL@@V?$allocator@D@2@@_STL@@UFRIENDINFO@CFriendMgr@@@2@U?$_Select1st@U?$pair@$$CBV?$basic_string@DV?$char_traits@D@_STL@@V?$allocator@D@2@@_STL@@UFRIENDINFO@CFriendMgr@@@_STL@@@2@U_tstring_less@@V?$allocator@U?$pair@$$CBV?$basic_string@DV?$char_traits@D@_STL@@V?$allocator@D@2@@_STL@@UFRIENDINFO@CFriendMgr@@@_STL@@@2@@_STL@@QAE?AU?$pair@U?$_Rb_tree_iterator@U?$pair@$$CBV?$basic_string@DV?$char_traits@D@_STL@@V?$allocator@D@2@@_STL@@UFRIENDINFO@CFriendMgr@@@_STL@@U?$_Nonconst_traits@U?$pair@$$CBV?$basic_string@DV?$char_traits@D@_STL@@V?$allocator@D@2@@_STL@@UFRIENDINFO@CFriendMgr@@@_STL@@@2@@_STL@@_N@2@ABU?$pair@$$CBV?$basic_string@DV?$char_traits@D@_STL@@V?$allocator@D@2@@_STL@@UFRIENDINFO@CFriendMgr@@@2@@Z 00415510 f i FriendMgr.obj
 0001:00014700       ?_M_erase@?$_Rb_tree@V?$basic_string@DV?$char_traits@D@_STL@@V?$allocator@D@2@@_STL@@U?$pair@$$CBV?$basic_string@DV?$char_traits@D@_STL@@V?$allocator@D@2@@_STL@@UPLAYERINFO@CFriendMgr@@@2@U?$_Select1st@U?$pair@$$CBV?$basic_string@DV?$char_traits@D@_STL@@V?$allocator@D@2@@_STL@@UPLAYERINFO@CFriendMgr@@@_STL@@@2@U_tstring_less@@V?$allocator@U?$pair@$$CBV?$basic_string@DV?$char_traits@D@_STL@@V?$allocator@D@2@@_STL@@UPLAYERINFO@CFriendMgr@@@_STL@@@2@@_STL@@AAEXPAU?$_Rb_tree_node@U?$pair@$$CBV?$basic_string@DV?$char_traits@D@_STL@@V?$allocator@D@2@@_STL@@UPLAYERINFO@CFriendMgr@@@_STL@@@2@@Z 00415700 f i FriendMgr.obj
 0001:00014740       ?insert_unique@?$_Rb_tree@V?$basic_string@DV?$char_traits@D@_STL@@V?$allocator@D@2@@_STL@@U?$pair@$$CBV?$basic_string@DV?$char_traits@D@_STL@@V?$allocator@D@2@@_STL@@UPLAYERINFO@CFriendMgr@@@2@U?$_Select1st@U?$pair@$$CBV?$basic_string@DV?$char_traits@D@_STL@@V?$allocator@D@2@@_STL@@UPLAYERINFO@CFriendMgr@@@_STL@@@2@U_tstring_less@@V?$allocator@U?$pair@$$CBV?$basic_string@DV?$char_traits@D@_STL@@V?$allocator@D@2@@_STL@@UPLAYERINFO@CFriendMgr@@@_STL@@@2@@_STL@@QAE?AU?$_Rb_tree_iterator@U?$pair@$$CBV?$basic_string@DV?$char_traits@D@_STL@@V?$allocator@D@2@@_STL@@UPLAYERINFO@CFriendMgr@@@_STL@@U?$_Nonconst_traits@U?$pair@$$CBV?$basic_string@DV?$char_traits@D@_STL@@V?$allocator@D@2@@_STL@@UPLAYERINFO@CFriendMgr@@@_STL@@@2@@2@U32@ABU?$pair@$$CBV?$basic_string@DV?$char_traits@D@_STL@@V?$allocator@D@2@@_STL@@UPLAYERINFO@CFriendMgr@@@2@@Z 00415740 f i FriendMgr.obj
 0001:00014ca0       ?begin@?$_Rb_tree@V?$basic_string@DV?$char_traits@D@_STL@@V?$allocator@D@2@@_STL@@U?$pair@$$CBV?$basic_string@DV?$char_traits@D@_STL@@V?$allocator@D@2@@_STL@@UPLAYERINFO@CFriendMgr@@@2@U?$_Select1st@U?$pair@$$CBV?$basic_string@DV?$char_traits@D@_STL@@V?$allocator@D@2@@_STL@@UPLAYERINFO@CFriendMgr@@@_STL@@@2@U_tstring_less@@V?$allocator@U?$pair@$$CBV?$basic_string@DV?$char_traits@D@_STL@@V?$allocator@D@2@@_STL@@UPLAYERINFO@CFriendMgr@@@_STL@@@2@@_STL@@QAE?AU?$_Rb_tree_iterator@U?$pair@$$CBV?$basic_string@DV?$char_traits@D@_STL@@V?$allocator@D@2@@_STL@@UPLAYERINFO@CFriendMgr@@@_STL@@U?$_Nonconst_traits@U?$pair@$$CBV?$basic_string@DV?$char_traits@D@_STL@@V?$allocator@D@2@@_STL@@UPLAYERINFO@CFriendMgr@@@_STL@@@2@@2@XZ 00415ca0 f i FriendMgr.obj
 0001:00014cb0       ?insert_unique@?$_Rb_tree@V?$basic_string@DV?$char_traits@D@_STL@@V?$allocator@D@2@@_STL@@U?$pair@$$CBV?$basic_string@DV?$char_traits@D@_STL@@V?$allocator@D@2@@_STL@@UPLAYERINFO@CFriendMgr@@@2@U?$_Select1st@U?$pair@$$CBV?$basic_string@DV?$char_traits@D@_STL@@V?$allocator@D@2@@_STL@@UPLAYERINFO@CFriendMgr@@@_STL@@@2@U_tstring_less@@V?$allocator@U?$pair@$$CBV?$basic_string@DV?$char_traits@D@_STL@@V?$allocator@D@2@@_STL@@UPLAYERINFO@CFriendMgr@@@_STL@@@2@@_STL@@QAE?AU?$pair@U?$_Rb_tree_iterator@U?$pair@$$CBV?$basic_string@DV?$char_traits@D@_STL@@V?$allocator@D@2@@_STL@@UPLAYERINFO@CFriendMgr@@@_STL@@U?$_Nonconst_traits@U?$pair@$$CBV?$basic_string@DV?$char_traits@D@_STL@@V?$allocator@D@2@@_STL@@UPLAYERINFO@CFriendMgr@@@_STL@@@2@@_STL@@_N@2@ABU?$pair@$$CBV?$basic_string@DV?$char_traits@D@_STL@@V?$allocator@D@2@@_STL@@UPLAYERINFO@CFriendMgr@@@2@@Z 00415cb0 f i FriendMgr.obj
 0001:00014ea0       ?_M_erase@?$_Rb_tree@UADDFRIENDKEY@CFriendMgr@@U?$pair@$$CBUADDFRIENDKEY@CFriendMgr@@UADDFRIENDVALUE@2@@_STL@@U?$_Select1st@U?$pair@$$CBUADDFRIENDKEY@CFriendMgr@@UADDFRIENDVALUE@2@@_STL@@@4@U?$less@UADDFRIENDKEY@CFriendMgr@@@4@V?$allocator@U?$pair@$$CBUADDFRIENDKEY@CFriendMgr@@UADDFRIENDVALUE@2@@_STL@@@4@@_STL@@AAEXPAU?$_Rb_tree_node@U?$pair@$$CBUADDFRIENDKEY@CFriendMgr@@UADDFRIENDVALUE@2@@_STL@@@2@@Z 00415ea0 f i FriendMgr.obj
 0001:00014ee0       ?insert_unique@?$_Rb_tree@UADDFRIENDKEY@CFriendMgr@@U?$pair@$$CBUADDFRIENDKEY@CFriendMgr@@UADDFRIENDVALUE@2@@_STL@@U?$_Select1st@U?$pair@$$CBUADDFRIENDKEY@CFriendMgr@@UADDFRIENDVALUE@2@@_STL@@@4@U?$less@UADDFRIENDKEY@CFriendMgr@@@4@V?$allocator@U?$pair@$$CBUADDFRIENDKEY@CFriendMgr@@UADDFRIENDVALUE@2@@_STL@@@4@@_STL@@QAE?AU?$_Rb_tree_iterator@U?$pair@$$CBUADDFRIENDKEY@CFriendMgr@@UADDFRIENDVALUE@2@@_STL@@U?$_Nonconst_traits@U?$pair@$$CBUADDFRIENDKEY@CFriendMgr@@UADDFRIENDVALUE@2@@_STL@@@2@@2@U32@ABU?$pair@$$CBUADDFRIENDKEY@CFriendMgr@@UADDFRIENDVALUE@2@@2@@Z 00415ee0 f i FriendMgr.obj
 0001:00015440       ?_M_erase@?$_Rb_tree@KU?$pair@$$CBKV?$list@UtagPlusSrcInfo@@V?$allocator@UtagPlusSrcInfo@@@_STL@@@_STL@@@_STL@@U?$_Select1st@U?$pair@$$CBKV?$list@UtagPlusSrcInfo@@V?$allocator@UtagPlusSrcInfo@@@_STL@@@_STL@@@_STL@@@2@U?$less@K@2@V?$allocator@U?$pair@$$CBKV?$list@UtagPlusSrcInfo@@V?$allocator@UtagPlusSrcInfo@@@_STL@@@_STL@@@_STL@@@2@@_STL@@AAEXPAU?$_Rb_tree_node@U?$pair@$$CBKV?$list@UtagPlusSrcInfo@@V?$allocator@UtagPlusSrcInfo@@@_STL@@@_STL@@@_STL@@@2@@Z 00416440 f i FriendMgr.obj
 0001:00015480       ?insert_unique@?$_Rb_tree@KU?$pair@$$CBKV?$list@UtagPlusSrcInfo@@V?$allocator@UtagPlusSrcInfo@@@_STL@@@_STL@@@_STL@@U?$_Select1st@U?$pair@$$CBKV?$list@UtagPlusSrcInfo@@V?$allocator@UtagPlusSrcInfo@@@_STL@@@_STL@@@_STL@@@2@U?$less@K@2@V?$allocator@U?$pair@$$CBKV?$list@UtagPlusSrcInfo@@V?$allocator@UtagPlusSrcInfo@@@_STL@@@_STL@@@_STL@@@2@@_STL@@QAE?AU?$_Rb_tree_iterator@U?$pair@$$CBKV?$list@UtagPlusSrcInfo@@V?$allocator@UtagPlusSrcInfo@@@_STL@@@_STL@@@_STL@@U?$_Nonconst_traits@U?$pair@$$CBKV?$list@UtagPlusSrcInfo@@V?$allocator@UtagPlusSrcInfo@@@_STL@@@_STL@@@_STL@@@2@@2@U32@ABU?$pair@$$CBKV?$list@UtagPlusSrcInfo@@V?$allocator@UtagPlusSrcInfo@@@_STL@@@_STL@@@2@@Z 00416480 f i FriendMgr.obj
 0001:00015960       ?begin@?$_Rb_tree@KU?$pair@$$CBKV?$list@UtagPlusSrcInfo@@V?$allocator@UtagPlusSrcInfo@@@_STL@@@_STL@@@_STL@@U?$_Select1st@U?$pair@$$CBKV?$list@UtagPlusSrcInfo@@V?$allocator@UtagPlusSrcInfo@@@_STL@@@_STL@@@_STL@@@2@U?$less@K@2@V?$allocator@U?$pair@$$CBKV?$list@UtagPlusSrcInfo@@V?$allocator@UtagPlusSrcInfo@@@_STL@@@_STL@@@_STL@@@2@@_STL@@QAE?AU?$_Rb_tree_iterator@U?$pair@$$CBKV?$list@UtagPlusSrcInfo@@V?$allocator@UtagPlusSrcInfo@@@_STL@@@_STL@@@_STL@@U?$_Nonconst_traits@U?$pair@$$CBKV?$list@UtagPlusSrcInfo@@V?$allocator@UtagPlusSrcInfo@@@_STL@@@_STL@@@_STL@@@2@@2@XZ 00416960 f i FriendMgr.obj
 0001:00015970       ?_M_erase@?$_Rb_tree@V?$basic_string@DV?$char_traits@D@_STL@@V?$allocator@D@2@@_STL@@U?$pair@$$CBV?$basic_string@DV?$char_traits@D@_STL@@V?$allocator@D@2@@_STL@@V?$list@U?$pair@EV?$basic_string@DV?$char_traits@D@_STL@@V?$allocator@D@2@@_STL@@@_STL@@V?$allocator@U?$pair@EV?$basic_string@DV?$char_traits@D@_STL@@V?$allocator@D@2@@_STL@@@_STL@@@2@@2@@2@U?$_Select1st@U?$pair@$$CBV?$basic_string@DV?$char_traits@D@_STL@@V?$allocator@D@2@@_STL@@V?$list@U?$pair@EV?$basic_string@DV?$char_traits@D@_STL@@V?$allocator@D@2@@_STL@@@_STL@@V?$allocator@U?$pair@EV?$basic_string@DV?$char_traits@D@_STL@@V?$allocator@D@2@@_STL@@@_STL@@@2@@2@@_STL@@@2@U_tstring_less@@V?$allocator@U?$pair@$$CBV?$basic_string@DV?$char_traits@D@_STL@@V?$allocator@D@2@@_STL@@V?$list@U?$pair@EV?$basic_string@DV?$char_traits@D@_STL@@V?$allocator@D@2@@_STL@@@_STL@@V?$allocator@U?$pair@EV?$basic_string@DV?$char_traits@D@_STL@@V?$allocator@D@2@@_STL@@@_STL@@@2@@2@@_STL@@@2@@_STL@@AAEXPAU?$_Rb_tree_node@U?$pair@$$CBV?$basic_string@DV?$char_traits@D@_STL@@V?$allocator@D@2@@_STL@@V?$list@U?$pair@EV?$basic_string@DV?$char_traits@D@_STL@@V?$allocator@D@2@@_STL@@@_STL@@V?$allocator@U?$pair@EV?$basic_string@DV?$char_traits@D@_STL@@V?$allocator@D@2@@_STL@@@_STL@@@2@@2@@_STL@@@2@@Z 00416970 f i FriendMgr.obj
 0001:000159b0       ?insert_unique@?$_Rb_tree@V?$basic_string@DV?$char_traits@D@_STL@@V?$allocator@D@2@@_STL@@U?$pair@$$CBV?$basic_string@DV?$char_traits@D@_STL@@V?$allocator@D@2@@_STL@@V?$list@U?$pair@EV?$basic_string@DV?$char_traits@D@_STL@@V?$allocator@D@2@@_STL@@@_STL@@V?$allocator@U?$pair@EV?$basic_string@DV?$char_traits@D@_STL@@V?$allocator@D@2@@_STL@@@_STL@@@2@@2@@2@U?$_Select1st@U?$pair@$$CBV?$basic_string@DV?$char_traits@D@_STL@@V?$allocator@D@2@@_STL@@V?$list@U?$pair@EV?$basic_string@DV?$char_traits@D@_STL@@V?$allocator@D@2@@_STL@@@_STL@@V?$allocator@U?$pair@EV?$basic_string@DV?$char_traits@D@_STL@@V?$allocator@D@2@@_STL@@@_STL@@@2@@2@@_STL@@@2@U_tstring_less@@V?$allocator@U?$pair@$$CBV?$basic_string@DV?$char_traits@D@_STL@@V?$allocator@D@2@@_STL@@V?$list@U?$pair@EV?$basic_string@DV?$char_traits@D@_STL@@V?$allocator@D@2@@_STL@@@_STL@@V?$allocator@U?$pair@EV?$basic_string@DV?$char_traits@D@_STL@@V?$allocator@D@2@@_STL@@@_STL@@@2@@2@@_STL@@@2@@_STL@@QAE?AU?$_Rb_tree_iterator@U?$pair@$$CBV?$basic_string@DV?$char_traits@D@_STL@@V?$allocator@D@2@@_STL@@V?$list@U?$pair@EV?$basic_string@DV?$char_traits@D@_STL@@V?$allocator@D@2@@_STL@@@_STL@@V?$allocator@U?$pair@EV?$basic_string@DV?$char_traits@D@_STL@@V?$allocator@D@2@@_STL@@@_STL@@@2@@2@@_STL@@U?$_Nonconst_traits@U?$pair@$$CBV?$basic_string@DV?$char_traits@D@_STL@@V?$allocator@D@2@@_STL@@V?$list@U?$pair@EV?$basic_string@DV?$char_traits@D@_STL@@V?$allocator@D@2@@_STL@@@_STL@@V?$allocator@U?$pair@EV?$basic_string@DV?$char_traits@D@_STL@@V?$allocator@D@2@@_STL@@@_STL@@@2@@2@@_STL@@@2@@2@U32@ABU?$pair@$$CBV?$basic_string@DV?$char_traits@D@_STL@@V?$allocator@D@2@@_STL@@V?$list@U?$pair@EV?$basic_string@DV?$char_traits@D@_STL@@V?$allocator@D@2@@_STL@@@_STL@@V?$allocator@U?$pair@EV?$basic_string@DV?$char_traits@D@_STL@@V?$allocator@D@2@@_STL@@@_STL@@@2@@2@@2@@Z 004169b0 f i FriendMgr.obj
 0001:00015f10       ?begin@?$_Rb_tree@V?$basic_string@DV?$char_traits@D@_STL@@V?$allocator@D@2@@_STL@@U?$pair@$$CBV?$basic_string@DV?$char_traits@D@_STL@@V?$allocator@D@2@@_STL@@V?$list@U?$pair@EV?$basic_string@DV?$char_traits@D@_STL@@V?$allocator@D@2@@_STL@@@_STL@@V?$allocator@U?$pair@EV?$basic_string@DV?$char_traits@D@_STL@@V?$allocator@D@2@@_STL@@@_STL@@@2@@2@@2@U?$_Select1st@U?$pair@$$CBV?$basic_string@DV?$char_traits@D@_STL@@V?$allocator@D@2@@_STL@@V?$list@U?$pair@EV?$basic_string@DV?$char_traits@D@_STL@@V?$allocator@D@2@@_STL@@@_STL@@V?$allocator@U?$pair@EV?$basic_string@DV?$char_traits@D@_STL@@V?$allocator@D@2@@_STL@@@_STL@@@2@@2@@_STL@@@2@U_tstring_less@@V?$allocator@U?$pair@$$CBV?$basic_string@DV?$char_traits@D@_STL@@V?$allocator@D@2@@_STL@@V?$list@U?$pair@EV?$basic_string@DV?$char_traits@D@_STL@@V?$allocator@D@2@@_STL@@@_STL@@V?$allocator@U?$pair@EV?$basic_string@DV?$char_traits@D@_STL@@V?$allocator@D@2@@_STL@@@_STL@@@2@@2@@_STL@@@2@@_STL@@QAE?AU?$_Rb_tree_iterator@U?$pair@$$CBV?$basic_string@DV?$char_traits@D@_STL@@V?$allocator@D@2@@_STL@@V?$list@U?$pair@EV?$basic_string@DV?$char_traits@D@_STL@@V?$allocator@D@2@@_STL@@@_STL@@V?$allocator@U?$pair@EV?$basic_string@DV?$char_traits@D@_STL@@V?$allocator@D@2@@_STL@@@_STL@@@2@@2@@_STL@@U?$_Nonconst_traits@U?$pair@$$CBV?$basic_string@DV?$char_traits@D@_STL@@V?$allocator@D@2@@_STL@@V?$list@U?$pair@EV?$basic_string@DV?$char_traits@D@_STL@@V?$allocator@D@2@@_STL@@@_STL@@V?$allocator@U?$pair@EV?$basic_string@DV?$char_traits@D@_STL@@V?$allocator@D@2@@_STL@@@_STL@@@2@@2@@_STL@@@2@@2@XZ 00416f10 f i FriendMgr.obj
 0001:00015f20       ?clear@?$_List_base@UONEPLAYER@CFriendMgr@@V?$allocator@UONEPLAYER@CFriendMgr@@@_STL@@@_STL@@QAEXXZ 00416f20 f i FriendMgr.obj
 0001:00015f60       ?__default_constructed@_STL@@YA?AUFRIENDINFO@CFriendMgr@@PAU23@@Z 00416f60 f i FriendMgr.obj
 0001:00015f90       ?find@?$_Rb_tree@V?$basic_string@DV?$char_traits@D@_STL@@V?$allocator@D@2@@_STL@@U?$pair@$$CBV?$basic_string@DV?$char_traits@D@_STL@@V?$allocator@D@2@@_STL@@UFRIENDINFO@CFriendMgr@@@2@U?$_Select1st@U?$pair@$$CBV?$basic_string@DV?$char_traits@D@_STL@@V?$allocator@D@2@@_STL@@UFRIENDINFO@CFriendMgr@@@_STL@@@2@U_tstring_less@@V?$allocator@U?$pair@$$CBV?$basic_string@DV?$char_traits@D@_STL@@V?$allocator@D@2@@_STL@@UFRIENDINFO@CFriendMgr@@@_STL@@@2@@_STL@@QAE?AU?$_Rb_tree_iterator@U?$pair@$$CBV?$basic_string@DV?$char_traits@D@_STL@@V?$allocator@D@2@@_STL@@UFRIENDINFO@CFriendMgr@@@_STL@@U?$_Nonconst_traits@U?$pair@$$CBV?$basic_string@DV?$char_traits@D@_STL@@V?$allocator@D@2@@_STL@@UFRIENDINFO@CFriendMgr@@@_STL@@@2@@2@ABV?$basic_string@DV?$char_traits@D@_STL@@V?$allocator@D@2@@2@@Z 00416f90 f i FriendMgr.obj
 0001:00016030       ?__default_constructed@_STL@@YA?AUPLAYERINFO@CFriendMgr@@PAU23@@Z 00417030 f i FriendMgr.obj
 0001:00016060       ?find@?$_Rb_tree@V?$basic_string@DV?$char_traits@D@_STL@@V?$allocator@D@2@@_STL@@U?$pair@$$CBV?$basic_string@DV?$char_traits@D@_STL@@V?$allocator@D@2@@_STL@@UPLAYERINFO@CFriendMgr@@@2@U?$_Select1st@U?$pair@$$CBV?$basic_string@DV?$char_traits@D@_STL@@V?$allocator@D@2@@_STL@@UPLAYERINFO@CFriendMgr@@@_STL@@@2@U_tstring_less@@V?$allocator@U?$pair@$$CBV?$basic_string@DV?$char_traits@D@_STL@@V?$allocator@D@2@@_STL@@UPLAYERINFO@CFriendMgr@@@_STL@@@2@@_STL@@QAE?AU?$_Rb_tree_iterator@U?$pair@$$CBV?$basic_string@DV?$char_traits@D@_STL@@V?$allocator@D@2@@_STL@@UPLAYERINFO@CFriendMgr@@@_STL@@U?$_Nonconst_traits@U?$pair@$$CBV?$basic_string@DV?$char_traits@D@_STL@@V?$allocator@D@2@@_STL@@UPLAYERINFO@CFriendMgr@@@_STL@@@2@@2@ABV?$basic_string@DV?$char_traits@D@_STL@@V?$allocator@D@2@@2@@Z 00417060 f i FriendMgr.obj
 0001:00016100       ?__default_constructed@_STL@@YA?AUADDFRIENDVALUE@CFriendMgr@@PAU23@@Z 00417100 f i FriendMgr.obj
 0001:00016130       ?__default_constructed@_STL@@YA?AV?$list@UtagPlusSrcInfo@@V?$allocator@UtagPlusSrcInfo@@@_STL@@@1@PAV21@@Z 00417130 f i FriendMgr.obj
 0001:00016160       ?__default_constructed@_STL@@YA?AV?$list@U?$pair@EV?$basic_string@DV?$char_traits@D@_STL@@V?$allocator@D@2@@_STL@@@_STL@@V?$allocator@U?$pair@EV?$basic_string@DV?$char_traits@D@_STL@@V?$allocator@D@2@@_STL@@@_STL@@@2@@1@PAV21@@Z 00417160 f i FriendMgr.obj
 0001:00016190       ?_Construct@_STL@@YAXPAU?$_Rb_tree_iterator@U?$pair@$$CBV?$basic_string@DV?$char_traits@D@_STL@@V?$allocator@D@2@@_STL@@UPLAYERINFO@CFriendMgr@@@_STL@@U?$_Nonconst_traits@U?$pair@$$CBV?$basic_string@DV?$char_traits@D@_STL@@V?$allocator@D@2@@_STL@@UPLAYERINFO@CFriendMgr@@@_STL@@@2@@1@ABU21@@Z 00417190 f i FriendMgr.obj
 0001:000161b0       ?__uninitialized_copy@_STL@@YAPAU?$_Rb_tree_iterator@U?$pair@$$CBV?$basic_string@DV?$char_traits@D@_STL@@V?$allocator@D@2@@_STL@@UPLAYERINFO@CFriendMgr@@@_STL@@U?$_Nonconst_traits@U?$pair@$$CBV?$basic_string@DV?$char_traits@D@_STL@@V?$allocator@D@2@@_STL@@UPLAYERINFO@CFriendMgr@@@_STL@@@2@@1@PAU21@00ABU__false_type@1@@Z 004171b0 f i FriendMgr.obj
 0001:000161e0       ?__uninitialized_fill_n@_STL@@YAPAU?$_Rb_tree_iterator@U?$pair@$$CBV?$basic_string@DV?$char_traits@D@_STL@@V?$allocator@D@2@@_STL@@UPLAYERINFO@CFriendMgr@@@_STL@@U?$_Nonconst_traits@U?$pair@$$CBV?$basic_string@DV?$char_traits@D@_STL@@V?$allocator@D@2@@_STL@@UPLAYERINFO@CFriendMgr@@@_STL@@@2@@1@PAU21@IABU21@ABU__false_type@1@@Z 004171e0 f i FriendMgr.obj
 0001:00016210       ?insert@?$list@UtagPlusSrcInfo@@V?$allocator@UtagPlusSrcInfo@@@_STL@@@_STL@@QAEXU?$_List_iterator@UtagPlusSrcInfo@@U?$_Nonconst_traits@UtagPlusSrcInfo@@@_STL@@@2@U?$_List_iterator@UtagPlusSrcInfo@@U?$_Const_traits@UtagPlusSrcInfo@@@_STL@@@2@1@Z 00417210 f i FriendMgr.obj
 0001:00016240       ??0?$_List_iterator@UtagPlusSrcInfo@@U?$_Nonconst_traits@UtagPlusSrcInfo@@@_STL@@@_STL@@QAE@ABU01@@Z 00417240 f i FriendMgr.obj
 0001:00016250       ?insert@?$list@U?$pair@EV?$basic_string@DV?$char_traits@D@_STL@@V?$allocator@D@2@@_STL@@@_STL@@V?$allocator@U?$pair@EV?$basic_string@DV?$char_traits@D@_STL@@V?$allocator@D@2@@_STL@@@_STL@@@2@@_STL@@QAEXU?$_List_iterator@U?$pair@EV?$basic_string@DV?$char_traits@D@_STL@@V?$allocator@D@2@@_STL@@@_STL@@U?$_Nonconst_traits@U?$pair@EV?$basic_string@DV?$char_traits@D@_STL@@V?$allocator@D@2@@_STL@@@_STL@@@2@@2@U?$_List_iterator@U?$pair@EV?$basic_string@DV?$char_traits@D@_STL@@V?$allocator@D@2@@_STL@@@_STL@@U?$_Const_traits@U?$pair@EV?$basic_string@DV?$char_traits@D@_STL@@V?$allocator@D@2@@_STL@@@_STL@@@2@@2@1@Z 00417250 f i FriendMgr.obj
 0001:00016280       ??0?$_List_iterator@U?$pair@EV?$basic_string@DV?$char_traits@D@_STL@@V?$allocator@D@2@@_STL@@@_STL@@U?$_Nonconst_traits@U?$pair@EV?$basic_string@DV?$char_traits@D@_STL@@V?$allocator@D@2@@_STL@@@_STL@@@2@@_STL@@QAE@ABU01@@Z 00417280 f i FriendMgr.obj
 0001:00016290       ??_G?$pair@$$CBV?$basic_string@DV?$char_traits@D@_STL@@V?$allocator@D@2@@_STL@@UFRIENDINFO@CFriendMgr@@@_STL@@QAEPAXI@Z 00417290 f i FriendMgr.obj
 0001:000162b0       ??_G?$pair@$$CBUADDFRIENDKEY@CFriendMgr@@UADDFRIENDVALUE@2@@_STL@@QAEPAXI@Z 004172b0 f i FriendMgr.obj
 0001:000162d0       ??0?$pair@U?$_Rb_tree_iterator@U?$pair@$$CBV?$basic_string@DV?$char_traits@D@_STL@@V?$allocator@D@2@@_STL@@UPLAYERINFO@CFriendMgr@@@_STL@@U?$_Nonconst_traits@U?$pair@$$CBV?$basic_string@DV?$char_traits@D@_STL@@V?$allocator@D@2@@_STL@@UPLAYERINFO@CFriendMgr@@@_STL@@@2@@_STL@@_N@_STL@@QAE@ABU?$_Rb_tree_iterator@U?$pair@$$CBV?$basic_string@DV?$char_traits@D@_STL@@V?$allocator@D@2@@_STL@@UPLAYERINFO@CFriendMgr@@@_STL@@U?$_Nonconst_traits@U?$pair@$$CBV?$basic_string@DV?$char_traits@D@_STL@@V?$allocator@D@2@@_STL@@UPLAYERINFO@CFriendMgr@@@_STL@@@2@@1@AB_N@Z 004172d0 f i FriendMgr.obj
 0001:000162f0       ??0?$pair@U?$_Rb_tree_iterator@U?$pair@$$CBV?$basic_string@DV?$char_traits@D@_STL@@V?$allocator@D@2@@_STL@@UFRIENDINFO@CFriendMgr@@@_STL@@U?$_Nonconst_traits@U?$pair@$$CBV?$basic_string@DV?$char_traits@D@_STL@@V?$allocator@D@2@@_STL@@UFRIENDINFO@CFriendMgr@@@_STL@@@2@@_STL@@_N@_STL@@QAE@ABU?$_Rb_tree_iterator@U?$pair@$$CBV?$basic_string@DV?$char_traits@D@_STL@@V?$allocator@D@2@@_STL@@UFRIENDINFO@CFriendMgr@@@_STL@@U?$_Nonconst_traits@U?$pair@$$CBV?$basic_string@DV?$char_traits@D@_STL@@V?$allocator@D@2@@_STL@@UFRIENDINFO@CFriendMgr@@@_STL@@@2@@1@AB_N@Z 004172f0 f i FriendMgr.obj
 0001:00016310       ?_M_create_node@?$_Rb_tree@V?$basic_string@DV?$char_traits@D@_STL@@V?$allocator@D@2@@_STL@@U?$pair@$$CBV?$basic_string@DV?$char_traits@D@_STL@@V?$allocator@D@2@@_STL@@UFRIENDINFO@CFriendMgr@@@2@U?$_Select1st@U?$pair@$$CBV?$basic_string@DV?$char_traits@D@_STL@@V?$allocator@D@2@@_STL@@UFRIENDINFO@CFriendMgr@@@_STL@@@2@U_tstring_less@@V?$allocator@U?$pair@$$CBV?$basic_string@DV?$char_traits@D@_STL@@V?$allocator@D@2@@_STL@@UFRIENDINFO@CFriendMgr@@@_STL@@@2@@_STL@@IAEPAU?$_Rb_tree_node@U?$pair@$$CBV?$basic_string@DV?$char_traits@D@_STL@@V?$allocator@D@2@@_STL@@UFRIENDINFO@CFriendMgr@@@_STL@@@2@ABU?$pair@$$CBV?$basic_string@DV?$char_traits@D@_STL@@V?$allocator@D@2@@_STL@@UFRIENDINFO@CFriendMgr@@@2@@Z 00417310 f i FriendMgr.obj
 0001:000163f0       ?get_allocator@?$_List_base@UMEM_FRIENDRECORD@CFriendMgr@@V?$allocator@UMEM_FRIENDRECORD@CFriendMgr@@@_STL@@@_STL@@QBE?AV?$allocator@UMEM_FRIENDRECORD@CFriendMgr@@@2@XZ 004173f0 f i FriendMgr.obj
 0001:00016410       ?_M_insert@?$_Rb_tree@V?$basic_string@DV?$char_traits@D@_STL@@V?$allocator@D@2@@_STL@@U?$pair@$$CBV?$basic_string@DV?$char_traits@D@_STL@@V?$allocator@D@2@@_STL@@UFRIENDINFO@CFriendMgr@@@2@U?$_Select1st@U?$pair@$$CBV?$basic_string@DV?$char_traits@D@_STL@@V?$allocator@D@2@@_STL@@UFRIENDINFO@CFriendMgr@@@_STL@@@2@U_tstring_less@@V?$allocator@U?$pair@$$CBV?$basic_string@DV?$char_traits@D@_STL@@V?$allocator@D@2@@_STL@@UFRIENDINFO@CFriendMgr@@@_STL@@@2@@_STL@@AAE?AU?$_Rb_tree_iterator@U?$pair@$$CBV?$basic_string@DV?$char_traits@D@_STL@@V?$allocator@D@2@@_STL@@UFRIENDINFO@CFriendMgr@@@_STL@@U?$_Nonconst_traits@U?$pair@$$CBV?$basic_string@DV?$char_traits@D@_STL@@V?$allocator@D@2@@_STL@@UFRIENDINFO@CFriendMgr@@@_STL@@@2@@2@PAU_Rb_tree_node_base@2@0ABU?$pair@$$CBV?$basic_string@DV?$char_traits@D@_STL@@V?$allocator@D@2@@_STL@@UFRIENDINFO@CFriendMgr@@@2@0@Z 00417410 f i FriendMgr.obj
 0001:000164d0       ?_M_insert@?$_Rb_tree@V?$basic_string@DV?$char_traits@D@_STL@@V?$allocator@D@2@@_STL@@U?$pair@$$CBV?$basic_string@DV?$char_traits@D@_STL@@V?$allocator@D@2@@_STL@@UPLAYERINFO@CFriendMgr@@@2@U?$_Select1st@U?$pair@$$CBV?$basic_string@DV?$char_traits@D@_STL@@V?$allocator@D@2@@_STL@@UPLAYERINFO@CFriendMgr@@@_STL@@@2@U_tstring_less@@V?$allocator@U?$pair@$$CBV?$basic_string@DV?$char_traits@D@_STL@@V?$allocator@D@2@@_STL@@UPLAYERINFO@CFriendMgr@@@_STL@@@2@@_STL@@AAE?AU?$_Rb_tree_iterator@U?$pair@$$CBV?$basic_string@DV?$char_traits@D@_STL@@V?$allocator@D@2@@_STL@@UPLAYERINFO@CFriendMgr@@@_STL@@U?$_Nonconst_traits@U?$pair@$$CBV?$basic_string@DV?$char_traits@D@_STL@@V?$allocator@D@2@@_STL@@UPLAYERINFO@CFriendMgr@@@_STL@@@2@@2@PAU_Rb_tree_node_base@2@0ABU?$pair@$$CBV?$basic_string@DV?$char_traits@D@_STL@@V?$allocator@D@2@@_STL@@UPLAYERINFO@CFriendMgr@@@2@0@Z 004174d0 f i FriendMgr.obj
 0001:00016590       ?_M_insert@?$_Rb_tree@UADDFRIENDKEY@CFriendMgr@@U?$pair@$$CBUADDFRIENDKEY@CFriendMgr@@UADDFRIENDVALUE@2@@_STL@@U?$_Select1st@U?$pair@$$CBUADDFRIENDKEY@CFriendMgr@@UADDFRIENDVALUE@2@@_STL@@@4@U?$less@UADDFRIENDKEY@CFriendMgr@@@4@V?$allocator@U?$pair@$$CBUADDFRIENDKEY@CFriendMgr@@UADDFRIENDVALUE@2@@_STL@@@4@@_STL@@AAE?AU?$_Rb_tree_iterator@U?$pair@$$CBUADDFRIENDKEY@CFriendMgr@@UADDFRIENDVALUE@2@@_STL@@U?$_Nonconst_traits@U?$pair@$$CBUADDFRIENDKEY@CFriendMgr@@UADDFRIENDVALUE@2@@_STL@@@2@@2@PAU_Rb_tree_node_base@2@0ABU?$pair@$$CBUADDFRIENDKEY@CFriendMgr@@UADDFRIENDVALUE@2@@2@0@Z 00417590 f i FriendMgr.obj
 0001:00016650       ?insert_unique@?$_Rb_tree@UADDFRIENDKEY@CFriendMgr@@U?$pair@$$CBUADDFRIENDKEY@CFriendMgr@@UADDFRIENDVALUE@2@@_STL@@U?$_Select1st@U?$pair@$$CBUADDFRIENDKEY@CFriendMgr@@UADDFRIENDVALUE@2@@_STL@@@4@U?$less@UADDFRIENDKEY@CFriendMgr@@@4@V?$allocator@U?$pair@$$CBUADDFRIENDKEY@CFriendMgr@@UADDFRIENDVALUE@2@@_STL@@@4@@_STL@@QAE?AU?$pair@U?$_Rb_tree_iterator@U?$pair@$$CBUADDFRIENDKEY@CFriendMgr@@UADDFRIENDVALUE@2@@_STL@@U?$_Nonconst_traits@U?$pair@$$CBUADDFRIENDKEY@CFriendMgr@@UADDFRIENDVALUE@2@@_STL@@@2@@_STL@@_N@2@ABU?$pair@$$CBUADDFRIENDKEY@CFriendMgr@@UADDFRIENDVALUE@2@@2@@Z 00417650 f i FriendMgr.obj
 0001:00016810       ?_M_insert@?$_Rb_tree@KU?$pair@$$CBKV?$list@UtagPlusSrcInfo@@V?$allocator@UtagPlusSrcInfo@@@_STL@@@_STL@@@_STL@@U?$_Select1st@U?$pair@$$CBKV?$list@UtagPlusSrcInfo@@V?$allocator@UtagPlusSrcInfo@@@_STL@@@_STL@@@_STL@@@2@U?$less@K@2@V?$allocator@U?$pair@$$CBKV?$list@UtagPlusSrcInfo@@V?$allocator@UtagPlusSrcInfo@@@_STL@@@_STL@@@_STL@@@2@@_STL@@AAE?AU?$_Rb_tree_iterator@U?$pair@$$CBKV?$list@UtagPlusSrcInfo@@V?$allocator@UtagPlusSrcInfo@@@_STL@@@_STL@@@_STL@@U?$_Nonconst_traits@U?$pair@$$CBKV?$list@UtagPlusSrcInfo@@V?$allocator@UtagPlusSrcInfo@@@_STL@@@_STL@@@_STL@@@2@@2@PAU_Rb_tree_node_base@2@0ABU?$pair@$$CBKV?$list@UtagPlusSrcInfo@@V?$allocator@UtagPlusSrcInfo@@@_STL@@@_STL@@@2@0@Z 00417810 f i FriendMgr.obj
 0001:000168b0       ?insert_unique@?$_Rb_tree@KU?$pair@$$CBKV?$list@UtagPlusSrcInfo@@V?$allocator@UtagPlusSrcInfo@@@_STL@@@_STL@@@_STL@@U?$_Select1st@U?$pair@$$CBKV?$list@UtagPlusSrcInfo@@V?$allocator@UtagPlusSrcInfo@@@_STL@@@_STL@@@_STL@@@2@U?$less@K@2@V?$allocator@U?$pair@$$CBKV?$list@UtagPlusSrcInfo@@V?$allocator@UtagPlusSrcInfo@@@_STL@@@_STL@@@_STL@@@2@@_STL@@QAE?AU?$pair@U?$_Rb_tree_iterator@U?$pair@$$CBKV?$list@UtagPlusSrcInfo@@V?$allocator@UtagPlusSrcInfo@@@_STL@@@_STL@@@_STL@@U?$_Nonconst_traits@U?$pair@$$CBKV?$list@UtagPlusSrcInfo@@V?$allocator@UtagPlusSrcInfo@@@_STL@@@_STL@@@_STL@@@2@@_STL@@_N@2@ABU?$pair@$$CBKV?$list@UtagPlusSrcInfo@@V?$allocator@UtagPlusSrcInfo@@@_STL@@@_STL@@@2@@Z 004178b0 f i FriendMgr.obj
 0001:00016a20       ?_M_insert@?$_Rb_tree@V?$basic_string@DV?$char_traits@D@_STL@@V?$allocator@D@2@@_STL@@U?$pair@$$CBV?$basic_string@DV?$char_traits@D@_STL@@V?$allocator@D@2@@_STL@@V?$list@U?$pair@EV?$basic_string@DV?$char_traits@D@_STL@@V?$allocator@D@2@@_STL@@@_STL@@V?$allocator@U?$pair@EV?$basic_string@DV?$char_traits@D@_STL@@V?$allocator@D@2@@_STL@@@_STL@@@2@@2@@2@U?$_Select1st@U?$pair@$$CBV?$basic_string@DV?$char_traits@D@_STL@@V?$allocator@D@2@@_STL@@V?$list@U?$pair@EV?$basic_string@DV?$char_traits@D@_STL@@V?$allocator@D@2@@_STL@@@_STL@@V?$allocator@U?$pair@EV?$basic_string@DV?$char_traits@D@_STL@@V?$allocator@D@2@@_STL@@@_STL@@@2@@2@@_STL@@@2@U_tstring_less@@V?$allocator@U?$pair@$$CBV?$basic_string@DV?$char_traits@D@_STL@@V?$allocator@D@2@@_STL@@V?$list@U?$pair@EV?$basic_string@DV?$char_traits@D@_STL@@V?$allocator@D@2@@_STL@@@_STL@@V?$allocator@U?$pair@EV?$basic_string@DV?$char_traits@D@_STL@@V?$allocator@D@2@@_STL@@@_STL@@@2@@2@@_STL@@@2@@_STL@@AAE?AU?$_Rb_tree_iterator@U?$pair@$$CBV?$basic_string@DV?$char_traits@D@_STL@@V?$allocator@D@2@@_STL@@V?$list@U?$pair@EV?$basic_string@DV?$char_traits@D@_STL@@V?$allocator@D@2@@_STL@@@_STL@@V?$allocator@U?$pair@EV?$basic_string@DV?$char_traits@D@_STL@@V?$allocator@D@2@@_STL@@@_STL@@@2@@2@@_STL@@U?$_Nonconst_traits@U?$pair@$$CBV?$basic_string@DV?$char_traits@D@_STL@@V?$allocator@D@2@@_STL@@V?$list@U?$pair@EV?$basic_string@DV?$char_traits@D@_STL@@V?$allocator@D@2@@_STL@@@_STL@@V?$allocator@U?$pair@EV?$basic_string@DV?$char_traits@D@_STL@@V?$allocator@D@2@@_STL@@@_STL@@@2@@2@@_STL@@@2@@2@PAU_Rb_tree_node_base@2@0ABU?$pair@$$CBV?$basic_string@DV?$char_traits@D@_STL@@V?$allocator@D@2@@_STL@@V?$list@U?$pair@EV?$basic_string@DV?$char_traits@D@_STL@@V?$allocator@D@2@@_STL@@@_STL@@V?$allocator@U?$pair@EV?$basic_string@DV?$char_traits@D@_STL@@V?$allocator@D@2@@_STL@@@_STL@@@2@@2@@2@0@Z 00417a20 f i FriendMgr.obj
 0001:00016ae0       ?insert_unique@?$_Rb_tree@V?$basic_string@DV?$char_traits@D@_STL@@V?$allocator@D@2@@_STL@@U?$pair@$$CBV?$basic_string@DV?$char_traits@D@_STL@@V?$allocator@D@2@@_STL@@V?$list@U?$pair@EV?$basic_string@DV?$char_traits@D@_STL@@V?$allocator@D@2@@_STL@@@_STL@@V?$allocator@U?$pair@EV?$basic_string@DV?$char_traits@D@_STL@@V?$allocator@D@2@@_STL@@@_STL@@@2@@2@@2@U?$_Select1st@U?$pair@$$CBV?$basic_string@DV?$char_traits@D@_STL@@V?$allocator@D@2@@_STL@@V?$list@U?$pair@EV?$basic_string@DV?$char_traits@D@_STL@@V?$allocator@D@2@@_STL@@@_STL@@V?$allocator@U?$pair@EV?$basic_string@DV?$char_traits@D@_STL@@V?$allocator@D@2@@_STL@@@_STL@@@2@@2@@_STL@@@2@U_tstring_less@@V?$allocator@U?$pair@$$CBV?$basic_string@DV?$char_traits@D@_STL@@V?$allocator@D@2@@_STL@@V?$list@U?$pair@EV?$basic_string@DV?$char_traits@D@_STL@@V?$allocator@D@2@@_STL@@@_STL@@V?$allocator@U?$pair@EV?$basic_string@DV?$char_traits@D@_STL@@V?$allocator@D@2@@_STL@@@_STL@@@2@@2@@_STL@@@2@@_STL@@QAE?AU?$pair@U?$_Rb_tree_iterator@U?$pair@$$CBV?$basic_string@DV?$char_traits@D@_STL@@V?$allocator@D@2@@_STL@@V?$list@U?$pair@EV?$basic_string@DV?$char_traits@D@_STL@@V?$allocator@D@2@@_STL@@@_STL@@V?$allocator@U?$pair@EV?$basic_string@DV?$char_traits@D@_STL@@V?$allocator@D@2@@_STL@@@_STL@@@2@@2@@_STL@@U?$_Nonconst_traits@U?$pair@$$CBV?$basic_string@DV?$char_traits@D@_STL@@V?$allocator@D@2@@_STL@@V?$list@U?$pair@EV?$basic_string@DV?$char_traits@D@_STL@@V?$allocator@D@2@@_STL@@@_STL@@V?$allocator@U?$pair@EV?$basic_string@DV?$char_traits@D@_STL@@V?$allocator@D@2@@_STL@@@_STL@@@2@@2@@_STL@@@2@@_STL@@_N@2@ABU?$pair@$$CBV?$basic_string@DV?$char_traits@D@_STL@@V?$allocator@D@2@@_STL@@V?$list@U?$pair@EV?$basic_string@DV?$char_traits@D@_STL@@V?$allocator@D@2@@_STL@@@_STL@@V?$allocator@U?$pair@EV?$basic_string@DV?$char_traits@D@_STL@@V?$allocator@D@2@@_STL@@@_STL@@@2@@2@@2@@Z 00417ae0 f i FriendMgr.obj
 0001:00016cd0       ?__default_constructed_aux@_STL@@YA?AUFRIENDINFO@CFriendMgr@@PAU23@ABU__false_type@1@@Z 00417cd0 f i FriendMgr.obj
 0001:00016d40       ?_M_find@?$_Rb_tree@V?$basic_string@DV?$char_traits@D@_STL@@V?$allocator@D@2@@_STL@@U?$pair@$$CBV?$basic_string@DV?$char_traits@D@_STL@@V?$allocator@D@2@@_STL@@UFRIENDINFO@CFriendMgr@@@2@U?$_Select1st@U?$pair@$$CBV?$basic_string@DV?$char_traits@D@_STL@@V?$allocator@D@2@@_STL@@UFRIENDINFO@CFriendMgr@@@_STL@@@2@U_tstring_less@@V?$allocator@U?$pair@$$CBV?$basic_string@DV?$char_traits@D@_STL@@V?$allocator@D@2@@_STL@@UFRIENDINFO@CFriendMgr@@@_STL@@@2@@_STL@@ABEPAU?$_Rb_tree_node@U?$pair@$$CBV?$basic_string@DV?$char_traits@D@_STL@@V?$allocator@D@2@@_STL@@UFRIENDINFO@CFriendMgr@@@_STL@@@2@ABV?$basic_string@DV?$char_traits@D@_STL@@V?$allocator@D@2@@2@@Z 00417d40 f i FriendMgr.obj
 0001:00016de0       ?__default_constructed_aux@_STL@@YA?AUPLAYERINFO@CFriendMgr@@PAU23@ABU__false_type@1@@Z 00417de0 f i FriendMgr.obj
 0001:00016e60       ?_M_find@?$_Rb_tree@V?$basic_string@DV?$char_traits@D@_STL@@V?$allocator@D@2@@_STL@@U?$pair@$$CBV?$basic_string@DV?$char_traits@D@_STL@@V?$allocator@D@2@@_STL@@UPLAYERINFO@CFriendMgr@@@2@U?$_Select1st@U?$pair@$$CBV?$basic_string@DV?$char_traits@D@_STL@@V?$allocator@D@2@@_STL@@UPLAYERINFO@CFriendMgr@@@_STL@@@2@U_tstring_less@@V?$allocator@U?$pair@$$CBV?$basic_string@DV?$char_traits@D@_STL@@V?$allocator@D@2@@_STL@@UPLAYERINFO@CFriendMgr@@@_STL@@@2@@_STL@@ABEPAU?$_Rb_tree_node@U?$pair@$$CBV?$basic_string@DV?$char_traits@D@_STL@@V?$allocator@D@2@@_STL@@UPLAYERINFO@CFriendMgr@@@_STL@@@2@ABV?$basic_string@DV?$char_traits@D@_STL@@V?$allocator@D@2@@2@@Z 00417e60 f i FriendMgr.obj
 0001:00016f00       ?__default_constructed_aux@_STL@@YA?AUADDFRIENDVALUE@CFriendMgr@@PAU23@ABU__false_type@1@@Z 00417f00 f i FriendMgr.obj
 0001:00016f60       ?_M_find@?$_Rb_tree@UADDFRIENDKEY@CFriendMgr@@U?$pair@$$CBUADDFRIENDKEY@CFriendMgr@@UADDFRIENDVALUE@2@@_STL@@U?$_Select1st@U?$pair@$$CBUADDFRIENDKEY@CFriendMgr@@UADDFRIENDVALUE@2@@_STL@@@4@U?$less@UADDFRIENDKEY@CFriendMgr@@@4@V?$allocator@U?$pair@$$CBUADDFRIENDKEY@CFriendMgr@@UADDFRIENDVALUE@2@@_STL@@@4@@_STL@@ABEPAU?$_Rb_tree_node@U?$pair@$$CBUADDFRIENDKEY@CFriendMgr@@UADDFRIENDVALUE@2@@_STL@@@2@ABUADDFRIENDKEY@CFriendMgr@@@Z 00417f60 f i FriendMgr.obj
 0001:00017010       ?__distance@_STL@@YAHABU?$_List_iterator@UMEM_FRIENDRECORD@CFriendMgr@@U?$_Const_traits@UMEM_FRIENDRECORD@CFriendMgr@@@_STL@@@1@0ABUinput_iterator_tag@1@@Z 00418010 f i FriendMgr.obj
 0001:00017030       ?__default_constructed_aux@_STL@@YA?AV?$list@UtagPlusSrcInfo@@V?$allocator@UtagPlusSrcInfo@@@_STL@@@1@PAV21@ABU__false_type@1@@Z 00418030 f i FriendMgr.obj
 0001:00017080       ?__default_constructed_aux@_STL@@YA?AV?$list@U?$pair@EV?$basic_string@DV?$char_traits@D@_STL@@V?$allocator@D@2@@_STL@@@_STL@@V?$allocator@U?$pair@EV?$basic_string@DV?$char_traits@D@_STL@@V?$allocator@D@2@@_STL@@@_STL@@@2@@1@PAV21@ABU__false_type@1@@Z 00418080 f i FriendMgr.obj
 0001:000170d0       ?__distance@_STL@@YAHABU?$_List_iterator@UONEPLAYER@CFriendMgr@@U?$_Const_traits@UONEPLAYER@CFriendMgr@@@_STL@@@1@0ABUinput_iterator_tag@1@@Z 004180d0 f i FriendMgr.obj
 0001:000170f0       ?__distance@_STL@@YAHABU?$_List_iterator@V?$basic_string@DV?$char_traits@D@_STL@@V?$allocator@D@2@@_STL@@U?$_Const_traits@V?$basic_string@DV?$char_traits@D@_STL@@V?$allocator@D@2@@_STL@@@2@@1@0ABUinput_iterator_tag@1@@Z 004180f0 f i FriendMgr.obj
 0001:00017110       ?_M_insert_dispatch@?$list@UtagPlusSrcInfo@@V?$allocator@UtagPlusSrcInfo@@@_STL@@@_STL@@QAEXU?$_List_iterator@UtagPlusSrcInfo@@U?$_Nonconst_traits@UtagPlusSrcInfo@@@_STL@@@2@U?$_List_iterator@UtagPlusSrcInfo@@U?$_Const_traits@UtagPlusSrcInfo@@@_STL@@@2@1ABU__false_type@2@@Z 00418110 f i FriendMgr.obj
 0001:00017150       ?_M_insert_dispatch@?$list@U?$pair@EV?$basic_string@DV?$char_traits@D@_STL@@V?$allocator@D@2@@_STL@@@_STL@@V?$allocator@U?$pair@EV?$basic_string@DV?$char_traits@D@_STL@@V?$allocator@D@2@@_STL@@@_STL@@@2@@_STL@@QAEXU?$_List_iterator@U?$pair@EV?$basic_string@DV?$char_traits@D@_STL@@V?$allocator@D@2@@_STL@@@_STL@@U?$_Nonconst_traits@U?$pair@EV?$basic_string@DV?$char_traits@D@_STL@@V?$allocator@D@2@@_STL@@@_STL@@@2@@2@U?$_List_iterator@U?$pair@EV?$basic_string@DV?$char_traits@D@_STL@@V?$allocator@D@2@@_STL@@@_STL@@U?$_Const_traits@U?$pair@EV?$basic_string@DV?$char_traits@D@_STL@@V?$allocator@D@2@@_STL@@@_STL@@@2@@2@1ABU__false_type@2@@Z 00418150 f i FriendMgr.obj
 0001:00017190       ?insert@?$list@UMEM_FRIENDRECORD@CFriendMgr@@V?$allocator@UMEM_FRIENDRECORD@CFriendMgr@@@_STL@@@_STL@@QAEXU?$_List_iterator@UMEM_FRIENDRECORD@CFriendMgr@@U?$_Nonconst_traits@UMEM_FRIENDRECORD@CFriendMgr@@@_STL@@@2@U?$_List_iterator@UMEM_FRIENDRECORD@CFriendMgr@@U?$_Const_traits@UMEM_FRIENDRECORD@CFriendMgr@@@_STL@@@2@1@Z 00418190 f i FriendMgr.obj
 0001:000171c0       ??0?$_List_iterator@UMEM_FRIENDRECORD@CFriendMgr@@U?$_Nonconst_traits@UMEM_FRIENDRECORD@CFriendMgr@@@_STL@@@_STL@@QAE@ABU01@@Z 004181c0 f i FriendMgr.obj
 0001:000171d0       ??_G?$pair@$$CBV?$basic_string@DV?$char_traits@D@_STL@@V?$allocator@D@2@@_STL@@UPLAYERINFO@CFriendMgr@@@_STL@@QAEPAXI@Z 004181d0 f i FriendMgr.obj
 0001:000171f0       ??_GMEM_FRIENDRECORD@CFriendMgr@@QAEPAXI@Z 004181f0 f i FriendMgr.obj
 0001:00017210       ??_G?$pair@$$CBKV?$list@UtagPlusSrcInfo@@V?$allocator@UtagPlusSrcInfo@@@_STL@@@_STL@@@_STL@@QAEPAXI@Z 00418210 f i FriendMgr.obj
 0001:00017230       ??_G?$pair@$$CBV?$basic_string@DV?$char_traits@D@_STL@@V?$allocator@D@2@@_STL@@V?$list@U?$pair@EV?$basic_string@DV?$char_traits@D@_STL@@V?$allocator@D@2@@_STL@@@_STL@@V?$allocator@U?$pair@EV?$basic_string@DV?$char_traits@D@_STL@@V?$allocator@D@2@@_STL@@@_STL@@@2@@2@@_STL@@QAEPAXI@Z 00418230 f i FriendMgr.obj
 0001:00017250       ?_M_create_node@?$_Rb_tree@V?$basic_string@DV?$char_traits@D@_STL@@V?$allocator@D@2@@_STL@@U?$pair@$$CBV?$basic_string@DV?$char_traits@D@_STL@@V?$allocator@D@2@@_STL@@UPLAYERINFO@CFriendMgr@@@2@U?$_Select1st@U?$pair@$$CBV?$basic_string@DV?$char_traits@D@_STL@@V?$allocator@D@2@@_STL@@UPLAYERINFO@CFriendMgr@@@_STL@@@2@U_tstring_less@@V?$allocator@U?$pair@$$CBV?$basic_string@DV?$char_traits@D@_STL@@V?$allocator@D@2@@_STL@@UPLAYERINFO@CFriendMgr@@@_STL@@@2@@_STL@@IAEPAU?$_Rb_tree_node@U?$pair@$$CBV?$basic_string@DV?$char_traits@D@_STL@@V?$allocator@D@2@@_STL@@UPLAYERINFO@CFriendMgr@@@_STL@@@2@ABU?$pair@$$CBV?$basic_string@DV?$char_traits@D@_STL@@V?$allocator@D@2@@_STL@@UPLAYERINFO@CFriendMgr@@@2@@Z 00418250 f i FriendMgr.obj
 0001:00017320       ??0?$_Rb_tree@V?$basic_string@DV?$char_traits@D@_STL@@V?$allocator@D@2@@_STL@@U?$pair@$$CBV?$basic_string@DV?$char_traits@D@_STL@@V?$allocator@D@2@@_STL@@UFRIENDINFO@CFriendMgr@@@2@U?$_Select1st@U?$pair@$$CBV?$basic_string@DV?$char_traits@D@_STL@@V?$allocator@D@2@@_STL@@UFRIENDINFO@CFriendMgr@@@_STL@@@2@U_tstring_less@@V?$allocator@U?$pair@$$CBV?$basic_string@DV?$char_traits@D@_STL@@V?$allocator@D@2@@_STL@@UFRIENDINFO@CFriendMgr@@@_STL@@@2@@_STL@@QAE@ABV01@@Z 00418320 f i FriendMgr.obj
 0001:00017410       ?_M_create_node@?$_Rb_tree@UADDFRIENDKEY@CFriendMgr@@U?$pair@$$CBUADDFRIENDKEY@CFriendMgr@@UADDFRIENDVALUE@2@@_STL@@U?$_Select1st@U?$pair@$$CBUADDFRIENDKEY@CFriendMgr@@UADDFRIENDVALUE@2@@_STL@@@4@U?$less@UADDFRIENDKEY@CFriendMgr@@@4@V?$allocator@U?$pair@$$CBUADDFRIENDKEY@CFriendMgr@@UADDFRIENDVALUE@2@@_STL@@@4@@_STL@@IAEPAU?$_Rb_tree_node@U?$pair@$$CBUADDFRIENDKEY@CFriendMgr@@UADDFRIENDVALUE@2@@_STL@@@2@ABU?$pair@$$CBUADDFRIENDKEY@CFriendMgr@@UADDFRIENDVALUE@2@@2@@Z 00418410 f i FriendMgr.obj
 0001:00017500       ?begin@?$_Rb_tree@UADDFRIENDKEY@CFriendMgr@@U?$pair@$$CBUADDFRIENDKEY@CFriendMgr@@UADDFRIENDVALUE@2@@_STL@@U?$_Select1st@U?$pair@$$CBUADDFRIENDKEY@CFriendMgr@@UADDFRIENDVALUE@2@@_STL@@@4@U?$less@UADDFRIENDKEY@CFriendMgr@@@4@V?$allocator@U?$pair@$$CBUADDFRIENDKEY@CFriendMgr@@UADDFRIENDVALUE@2@@_STL@@@4@@_STL@@QAE?AU?$_Rb_tree_iterator@U?$pair@$$CBUADDFRIENDKEY@CFriendMgr@@UADDFRIENDVALUE@2@@_STL@@U?$_Nonconst_traits@U?$pair@$$CBUADDFRIENDKEY@CFriendMgr@@UADDFRIENDVALUE@2@@_STL@@@2@@2@XZ 00418500 f i FriendMgr.obj
 0001:00017510       ?_M_create_node@?$_Rb_tree@KU?$pair@$$CBKV?$list@UtagPlusSrcInfo@@V?$allocator@UtagPlusSrcInfo@@@_STL@@@_STL@@@_STL@@U?$_Select1st@U?$pair@$$CBKV?$list@UtagPlusSrcInfo@@V?$allocator@UtagPlusSrcInfo@@@_STL@@@_STL@@@_STL@@@2@U?$less@K@2@V?$allocator@U?$pair@$$CBKV?$list@UtagPlusSrcInfo@@V?$allocator@UtagPlusSrcInfo@@@_STL@@@_STL@@@_STL@@@2@@_STL@@IAEPAU?$_Rb_tree_node@U?$pair@$$CBKV?$list@UtagPlusSrcInfo@@V?$allocator@UtagPlusSrcInfo@@@_STL@@@_STL@@@_STL@@@2@ABU?$pair@$$CBKV?$list@UtagPlusSrcInfo@@V?$allocator@UtagPlusSrcInfo@@@_STL@@@_STL@@@2@@Z 00418510 f i FriendMgr.obj
 0001:000175f0       ??0?$_STLP_alloc_proxy@PAU?$_List_node@UtagPlusSrcInfo@@@_STL@@U12@V?$allocator@UtagPlusSrcInfo@@@2@@_STL@@QAE@ABV?$allocator@UtagPlusSrcInfo@@@1@PAU?$_List_node@UtagPlusSrcInfo@@@1@@Z 004185f0 f i FriendMgr.obj
 0001:00017600       ?_M_create_node@?$_Rb_tree@V?$basic_string@DV?$char_traits@D@_STL@@V?$allocator@D@2@@_STL@@U?$pair@$$CBV?$basic_string@DV?$char_traits@D@_STL@@V?$allocator@D@2@@_STL@@V?$list@U?$pair@EV?$basic_string@DV?$char_traits@D@_STL@@V?$allocator@D@2@@_STL@@@_STL@@V?$allocator@U?$pair@EV?$basic_string@DV?$char_traits@D@_STL@@V?$allocator@D@2@@_STL@@@_STL@@@2@@2@@2@U?$_Select1st@U?$pair@$$CBV?$basic_string@DV?$char_traits@D@_STL@@V?$allocator@D@2@@_STL@@V?$list@U?$pair@EV?$basic_string@DV?$char_traits@D@_STL@@V?$allocator@D@2@@_STL@@@_STL@@V?$allocator@U?$pair@EV?$basic_string@DV?$char_traits@D@_STL@@V?$allocator@D@2@@_STL@@@_STL@@@2@@2@@_STL@@@2@U_tstring_less@@V?$allocator@U?$pair@$$CBV?$basic_string@DV?$char_traits@D@_STL@@V?$allocator@D@2@@_STL@@V?$list@U?$pair@EV?$basic_string@DV?$char_traits@D@_STL@@V?$allocator@D@2@@_STL@@@_STL@@V?$allocator@U?$pair@EV?$basic_string@DV?$char_traits@D@_STL@@V?$allocator@D@2@@_STL@@@_STL@@@2@@2@@_STL@@@2@@_STL@@IAEPAU?$_Rb_tree_node@U?$pair@$$CBV?$basic_string@DV?$char_traits@D@_STL@@V?$allocator@D@2@@_STL@@V?$list@U?$pair@EV?$basic_string@DV?$char_traits@D@_STL@@V?$allocator@D@2@@_STL@@@_STL@@V?$allocator@U?$pair@EV?$basic_string@DV?$char_traits@D@_STL@@V?$allocator@D@2@@_STL@@@_STL@@@2@@2@@_STL@@@2@ABU?$pair@$$CBV?$basic_string@DV?$char_traits@D@_STL@@V?$allocator@D@2@@_STL@@V?$list@U?$pair@EV?$basic_string@DV?$char_traits@D@_STL@@V?$allocator@D@2@@_STL@@@_STL@@V?$allocator@U?$pair@EV?$basic_string@DV?$char_traits@D@_STL@@V?$allocator@D@2@@_STL@@@_STL@@@2@@2@@2@@Z 00418600 f i FriendMgr.obj
 0001:00017710       ?begin@?$list@U?$pair@EV?$basic_string@DV?$char_traits@D@_STL@@V?$allocator@D@2@@_STL@@@_STL@@V?$allocator@U?$pair@EV?$basic_string@DV?$char_traits@D@_STL@@V?$allocator@D@2@@_STL@@@_STL@@@2@@_STL@@QBE?AU?$_List_iterator@U?$pair@EV?$basic_string@DV?$char_traits@D@_STL@@V?$allocator@D@2@@_STL@@@_STL@@U?$_Const_traits@U?$pair@EV?$basic_string@DV?$char_traits@D@_STL@@V?$allocator@D@2@@_STL@@@_STL@@@2@@2@XZ 00418710 f i FriendMgr.obj
 0001:00017720       ?end@?$list@U?$pair@EV?$basic_string@DV?$char_traits@D@_STL@@V?$allocator@D@2@@_STL@@@_STL@@V?$allocator@U?$pair@EV?$basic_string@DV?$char_traits@D@_STL@@V?$allocator@D@2@@_STL@@@_STL@@@2@@_STL@@QBE?AU?$_List_iterator@U?$pair@EV?$basic_string@DV?$char_traits@D@_STL@@V?$allocator@D@2@@_STL@@@_STL@@U?$_Const_traits@U?$pair@EV?$basic_string@DV?$char_traits@D@_STL@@V?$allocator@D@2@@_STL@@@_STL@@@2@@2@XZ 00418720 f i FriendMgr.obj
 0001:00017730       ??0?$_List_base@U?$pair@EV?$basic_string@DV?$char_traits@D@_STL@@V?$allocator@D@2@@_STL@@@_STL@@V?$allocator@U?$pair@EV?$basic_string@DV?$char_traits@D@_STL@@V?$allocator@D@2@@_STL@@@_STL@@@2@@_STL@@QAE@ABV?$allocator@U?$pair@EV?$basic_string@DV?$char_traits@D@_STL@@V?$allocator@D@2@@_STL@@@_STL@@@1@@Z 00418730 f i FriendMgr.obj
 0001:00017780       ??0?$pair@U?$_Rb_tree_iterator@U?$pair@$$CBUADDFRIENDKEY@CFriendMgr@@UADDFRIENDVALUE@2@@_STL@@U?$_Nonconst_traits@U?$pair@$$CBUADDFRIENDKEY@CFriendMgr@@UADDFRIENDVALUE@2@@_STL@@@2@@_STL@@_N@_STL@@QAE@ABU?$_Rb_tree_iterator@U?$pair@$$CBUADDFRIENDKEY@CFriendMgr@@UADDFRIENDVALUE@2@@_STL@@U?$_Nonconst_traits@U?$pair@$$CBUADDFRIENDKEY@CFriendMgr@@UADDFRIENDVALUE@2@@_STL@@@2@@1@AB_N@Z 00418780 f i FriendMgr.obj
 0001:000177a0       ??0?$pair@U?$_Rb_tree_iterator@U?$pair@$$CBKV?$list@UtagPlusSrcInfo@@V?$allocator@UtagPlusSrcInfo@@@_STL@@@_STL@@@_STL@@U?$_Nonconst_traits@U?$pair@$$CBKV?$list@UtagPlusSrcInfo@@V?$allocator@UtagPlusSrcInfo@@@_STL@@@_STL@@@_STL@@@2@@_STL@@_N@_STL@@QAE@ABU?$_Rb_tree_iterator@U?$pair@$$CBKV?$list@UtagPlusSrcInfo@@V?$allocator@UtagPlusSrcInfo@@@_STL@@@_STL@@@_STL@@U?$_Nonconst_traits@U?$pair@$$CBKV?$list@UtagPlusSrcInfo@@V?$allocator@UtagPlusSrcInfo@@@_STL@@@_STL@@@_STL@@@2@@1@AB_N@Z 004187a0 f i FriendMgr.obj
 0001:000177c0       ??0?$pair@U?$_Rb_tree_iterator@U?$pair@$$CBV?$basic_string@DV?$char_traits@D@_STL@@V?$allocator@D@2@@_STL@@V?$list@U?$pair@EV?$basic_string@DV?$char_traits@D@_STL@@V?$allocator@D@2@@_STL@@@_STL@@V?$allocator@U?$pair@EV?$basic_string@DV?$char_traits@D@_STL@@V?$allocator@D@2@@_STL@@@_STL@@@2@@2@@_STL@@U?$_Nonconst_traits@U?$pair@$$CBV?$basic_string@DV?$char_traits@D@_STL@@V?$allocator@D@2@@_STL@@V?$list@U?$pair@EV?$basic_string@DV?$char_traits@D@_STL@@V?$allocator@D@2@@_STL@@@_STL@@V?$allocator@U?$pair@EV?$basic_string@DV?$char_traits@D@_STL@@V?$allocator@D@2@@_STL@@@_STL@@@2@@2@@_STL@@@2@@_STL@@_N@_STL@@QAE@ABU?$_Rb_tree_iterator@U?$pair@$$CBV?$basic_string@DV?$char_traits@D@_STL@@V?$allocator@D@2@@_STL@@V?$list@U?$pair@EV?$basic_string@DV?$char_traits@D@_STL@@V?$allocator@D@2@@_STL@@@_STL@@V?$allocator@U?$pair@EV?$basic_string@DV?$char_traits@D@_STL@@V?$allocator@D@2@@_STL@@@_STL@@@2@@2@@_STL@@U?$_Nonconst_traits@U?$pair@$$CBV?$basic_string@DV?$char_traits@D@_STL@@V?$allocator@D@2@@_STL@@V?$list@U?$pair@EV?$basic_string@DV?$char_traits@D@_STL@@V?$allocator@D@2@@_STL@@@_STL@@V?$allocator@U?$pair@EV?$basic_string@DV?$char_traits@D@_STL@@V?$allocator@D@2@@_STL@@@_STL@@@2@@2@@_STL@@@2@@1@AB_N@Z 004187c0 f i FriendMgr.obj
 0001:000177e0       ?_M_range_initialize@?$basic_string@DV?$char_traits@D@_STL@@V?$allocator@D@2@@_STL@@AAEXPAD0ABUforward_iterator_tag@2@@Z 004187e0 f i FriendMgr.obj
 0001:00017860       ?_M_insert_dispatch@?$list@UMEM_FRIENDRECORD@CFriendMgr@@V?$allocator@UMEM_FRIENDRECORD@CFriendMgr@@@_STL@@@_STL@@QAEXU?$_List_iterator@UMEM_FRIENDRECORD@CFriendMgr@@U?$_Nonconst_traits@UMEM_FRIENDRECORD@CFriendMgr@@@_STL@@@2@U?$_List_iterator@UMEM_FRIENDRECORD@CFriendMgr@@U?$_Const_traits@UMEM_FRIENDRECORD@CFriendMgr@@@_STL@@@2@1ABU__false_type@2@@Z 00418860 f i FriendMgr.obj
 0001:000178a0       ?_M_append_dispatch@?$basic_string@DV?$char_traits@D@_STL@@V?$allocator@D@2@@_STL@@AAEAAV12@PAD0ABU__false_type@2@@Z 004188a0 f i FriendMgr.obj
 0001:000178d0       ??0CGatewayCenter@@QAE@XZ  004188d0 f   GatewayCenter.obj
 0001:000178f0       ??_GCGatewayCenter@@UAEPAXI@Z 004188f0 f i GatewayCenter.obj
 0001:000178f0       ??_ECGatewayCenter@@UAEPAXI@Z 004188f0 f i GatewayCenter.obj
 0001:00017910       ??1CGatewayCenter@@UAE@XZ  00418910 f   GatewayCenter.obj
 0001:00017920       ?TraceInfo@CGatewayCenter@@QAEHXZ 00418920 f   GatewayCenter.obj
 0001:00017ac0       ??0CGatewayClient@@QAE@PAVCGatewayCenter@@H@Z 00418ac0 f   GatewayClient.obj
 0001:00017b60       ??_GCGatewayClient@@UAEPAXI@Z 00418b60 f i GatewayClient.obj
 0001:00017b60       ??_ECGatewayClient@@UAEPAXI@Z 00418b60 f i GatewayClient.obj
 0001:00017b80       ??1?$map@GUASKWAYMAP@CGatewayClient@@U?$less@G@_STL@@V?$allocator@U?$pair@$$CBGUASKWAYMAP@CGatewayClient@@@_STL@@@4@@_STL@@QAE@XZ 00418b80 f i GatewayClient.obj
 0001:00017c20       ??1CGatewayClient@@UAE@XZ  00418c20 f   GatewayClient.obj
 0001:00017cf0       ?RecvPackage@CGatewayClient@@MAEXPBXI@Z 00418cf0 f   GatewayClient.obj
 0001:00017d10       ?OnServerEventCreate@CGatewayClient@@MAEXXZ 00418d10 f   GatewayClient.obj
 0001:00017d40       ?OnServerEventClose@CGatewayClient@@MAEXXZ 00418d40 f   GatewayClient.obj
 0001:00017f40       ?Proc0_NotifySvrIP@CGatewayClient@@AAEXPBXI@Z 00418f40 f   GatewayClient.obj
 0001:000180f0       ?PassAskWayMap@CGatewayClient@@QAEHKPBURELAY_ASKWAY_DATA@@@Z 004190f0 f   GatewayClient.obj
 0001:000182c0       ?erase@?$map@GUASKWAYMAP@CGatewayClient@@U?$less@G@_STL@@V?$allocator@U?$pair@$$CBGUASKWAYMAP@CGatewayClient@@@_STL@@@4@@_STL@@QAEXU?$_Rb_tree_iterator@U?$pair@$$CBGUASKWAYMAP@CGatewayClient@@@_STL@@U?$_Nonconst_traits@U?$pair@$$CBGUASKWAYMAP@CGatewayClient@@@_STL@@@2@@2@@Z 004192c0 f i GatewayClient.obj
 0001:000182e0       ?erase@?$_Rb_tree@GU?$pair@$$CBGUASKWAYMAP@CGatewayClient@@@_STL@@U?$_Select1st@U?$pair@$$CBGUASKWAYMAP@CGatewayClient@@@_STL@@@2@U?$less@G@2@V?$allocator@U?$pair@$$CBGUASKWAYMAP@CGatewayClient@@@_STL@@@2@@_STL@@QAEXU?$_Rb_tree_iterator@U?$pair@$$CBGUASKWAYMAP@CGatewayClient@@@_STL@@U?$_Nonconst_traits@U?$pair@$$CBGUASKWAYMAP@CGatewayClient@@@_STL@@@2@@2@@Z 004192e0 f i GatewayClient.obj
 0001:00018320       ??1?$_Rb_tree_base@U?$pair@$$CBGUASKWAYMAP@CGatewayClient@@@_STL@@V?$allocator@U?$pair@$$CBGUASKWAYMAP@CGatewayClient@@@_STL@@@2@@_STL@@QAE@XZ 00419320 f i GatewayClient.obj
 0001:00018370       ??1?$allocator@U?$pair@$$CBGUASKWAYMAP@CGatewayClient@@@_STL@@@_STL@@QAE@XZ 00419370 f i GatewayClient.obj
 0001:00018380       ??1?$_STLP_alloc_proxy@PAU?$_Rb_tree_node@U?$pair@$$CBGUASKWAYMAP@CGatewayClient@@@_STL@@@_STL@@U12@V?$allocator@U?$pair@$$CBGUASKWAYMAP@CGatewayClient@@@_STL@@@2@@_STL@@QAE@XZ 00419380 f i GatewayClient.obj
 0001:00018390       ?deallocate@?$_STLP_alloc_proxy@PAU?$_Rb_tree_node@U?$pair@$$CBGUASKWAYMAP@CGatewayClient@@@_STL@@@_STL@@U12@V?$allocator@U?$pair@$$CBGUASKWAYMAP@CGatewayClient@@@_STL@@@2@@_STL@@QAEXPAU?$_Rb_tree_node@U?$pair@$$CBGUASKWAYMAP@CGatewayClient@@@_STL@@@2@I@Z 00419390 f i GatewayClient.obj
 0001:000183c0       ?_M_erase@?$_Rb_tree@GU?$pair@$$CBGUASKWAYMAP@CGatewayClient@@@_STL@@U?$_Select1st@U?$pair@$$CBGUASKWAYMAP@CGatewayClient@@@_STL@@@2@U?$less@G@2@V?$allocator@U?$pair@$$CBGUASKWAYMAP@CGatewayClient@@@_STL@@@2@@_STL@@AAEXPAU?$_Rb_tree_node@U?$pair@$$CBGUASKWAYMAP@CGatewayClient@@@_STL@@@2@@Z 004193c0 f i GatewayClient.obj
 0001:00018400       ?insert_unique@?$_Rb_tree@GU?$pair@$$CBGUASKWAYMAP@CGatewayClient@@@_STL@@U?$_Select1st@U?$pair@$$CBGUASKWAYMAP@CGatewayClient@@@_STL@@@2@U?$less@G@2@V?$allocator@U?$pair@$$CBGUASKWAYMAP@CGatewayClient@@@_STL@@@2@@_STL@@QAE?AU?$pair@U?$_Rb_tree_iterator@U?$pair@$$CBGUASKWAYMAP@CGatewayClient@@@_STL@@U?$_Nonconst_traits@U?$pair@$$CBGUASKWAYMAP@CGatewayClient@@@_STL@@@2@@_STL@@_N@2@ABU?$pair@$$CBGUASKWAYMAP@CGatewayClient@@@2@@Z 00419400 f i GatewayClient.obj
 0001:00018570       ?_M_find@?$_Rb_tree@GU?$pair@$$CBGUASKWAYMAP@CGatewayClient@@@_STL@@U?$_Select1st@U?$pair@$$CBGUASKWAYMAP@CGatewayClient@@@_STL@@@2@U?$less@G@2@V?$allocator@U?$pair@$$CBGUASKWAYMAP@CGatewayClient@@@_STL@@@2@@_STL@@ABEPAU?$_Rb_tree_node@U?$pair@$$CBGUASKWAYMAP@CGatewayClient@@@_STL@@@2@ABG@Z 00419570 f i GatewayClient.obj
 0001:000185b0       ?_M_create_node@?$_Rb_tree@GU?$pair@$$CBGUASKWAYMAP@CGatewayClient@@@_STL@@U?$_Select1st@U?$pair@$$CBGUASKWAYMAP@CGatewayClient@@@_STL@@@2@U?$less@G@2@V?$allocator@U?$pair@$$CBGUASKWAYMAP@CGatewayClient@@@_STL@@@2@@_STL@@IAEPAU?$_Rb_tree_node@U?$pair@$$CBGUASKWAYMAP@CGatewayClient@@@_STL@@@2@ABU?$pair@$$CBGUASKWAYMAP@CGatewayClient@@@2@@Z 004195b0 f i GatewayClient.obj
 0001:00018aa0       ?gGetLocateDirectory@@YA?AV?$basic_string@DV?$char_traits@D@_STL@@V?$allocator@D@2@@_STL@@XZ 00419aa0 f   Global.obj
 0001:00018ba0       ??0_LOCALDIR@?1??gGetLocateDirectory@@YA?AV?$basic_string@DV?$char_traits@D@_STL@@V?$allocator@D@2@@_STL@@XZ@QAE@XZ 00419ba0 f   Global.obj
 0001:00018d10       ??1_LOCALDIR@?1??gGetLocateDirectory@@YA?AV?$basic_string@DV?$char_traits@D@_STL@@V?$allocator@D@2@@_STL@@XZ@QAE@XZ 00419d10 f i Global.obj
 0001:00018d80       ?gGetPrivateProfileStringEx@@YA?AV?$basic_string@DV?$char_traits@D@_STL@@V?$allocator@D@2@@_STL@@PBD000@Z 00419d80 f   Global.obj
 0001:00018f00       ?__copy_trivial@_STL@@YAPAXPBX0PAX@Z 00419f00 f i Global.obj
 0001:00018f30       ?gGetPrivateProfileIntEx@@YAHPBD00H@Z 00419f30 f   Global.obj
 0001:00019000       ?gGetPrivateProfileCharEx@@YADPBD00D@Z 0041a000 f   Global.obj
 0001:000190a0       ?gGetPrivateProfileSectionEx@@YAABV?$vector@V?$basic_string@DV?$char_traits@D@_STL@@V?$allocator@D@2@@_STL@@V?$allocator@V?$basic_string@DV?$char_traits@D@_STL@@V?$allocator@D@2@@_STL@@@2@@_STL@@PBD0@Z 0041a0a0 f   Global.obj
 0001:000192d0       ?gGetPrivateProfileSectionNamesEx@@YAABV?$vector@V?$basic_string@DV?$char_traits@D@_STL@@V?$allocator@D@2@@_STL@@V?$allocator@V?$basic_string@DV?$char_traits@D@_STL@@V?$allocator@D@2@@_STL@@@2@@_STL@@PBD@Z 0041a2d0 f   Global.obj
 0001:000194f0       ?gInitialize@@YAHXZ        0041a4f0 f   Global.obj
 0001:00019aa0       ?gUninitialize@@YAHXZ      0041aaa0 f   Global.obj
 0001:00019be0       ?gIsLocalIP@@YAHK@Z        0041abe0 f   Global.obj
 0001:00019c00       ?gGetHostMac@@YAPBEHPAI@Z  0041ac00 f   Global.obj
 0001:00019c60       ??0_MACSTORE@?1??gGetHostMac@@YAPBEHPAI@Z@QAE@XZ 0041ac60 f   Global.obj
 0001:00019e80       ?gGetHostIP@@YAKH@Z        0041ae80 f   Global.obj
 0001:00019ed0       ??0_IPSTORE@?1??gGetHostIP@@YAKH@Z@QAE@XZ 0041aed0 f   Global.obj
 0001:0001a0a0       ?gConnectToSibling@@YAHPBD@Z 0041b0a0 f   Global.obj
 0001:0001a150       ?gFillClntwayPckg@@YAIKKPBURELAY_ASKWAY_DATA@@IPAU1@I@Z 0041b150 f   Global.obj
 0001:0001a1f0       ?gFillLosewayPckg@@YAIKKPBXIPAXI@Z 0041b1f0 f   Global.obj
 0001:0001a250       ?gIsLegalString@@YAHPBDII@Z 0041b250 f   Global.obj
 0001:0001a290       ?g_String2Id@@YAKPBD@Z     0041b290 f   Global.obj
 0001:0001a2e0       ?gOnOneClientCreate@@YAHW4ONECLIENT@@@Z 0041b2e0 f   Global.obj
 0001:0001a3b0       ?gOnOneClientClose@@YAHW4ONECLIENT@@@Z 0041b3b0 f   Global.obj
 0001:0001a520       ?gReOneClient@@YAHW4ONECLIENT@@@Z 0041b520 f   Global.obj
 0001:0001a840       ?gConsignClientSD@@YAHPAUIClient@@@Z 0041b840 f   Global.obj
 0001:0001a880       ?gStartFriendTimingUpdateDB@@YAHI@Z 0041b880 f   Global.obj
 0001:0001a8d0       ?gStopFriendTimingUpdateDB@@YAHXZ 0041b8d0 f   Global.obj
 0001:0001a910       ?gFriendTimingUpdateDB@@YAHXZ 0041b910 f   Global.obj
 0001:0001a950       ??1?$vector@V?$basic_string@DV?$char_traits@D@_STL@@V?$allocator@D@2@@_STL@@V?$allocator@V?$basic_string@DV?$char_traits@D@_STL@@V?$allocator@D@2@@_STL@@@2@@_STL@@QAE@XZ 0041b950 f i Global.obj
 0001:0001aa20       ?_M_insert_overflow@?$vector@V?$basic_string@DV?$char_traits@D@_STL@@V?$allocator@D@2@@_STL@@V?$allocator@V?$basic_string@DV?$char_traits@D@_STL@@V?$allocator@D@2@@_STL@@@2@@_STL@@IAEXPAV?$basic_string@DV?$char_traits@D@_STL@@V?$allocator@D@2@@2@ABV32@ABU__false_type@2@I_N@Z 0041ba20 f i Global.obj
 0001:0001ac20       ??0?$_Vector_base@V?$basic_string@DV?$char_traits@D@_STL@@V?$allocator@D@2@@_STL@@V?$allocator@V?$basic_string@DV?$char_traits@D@_STL@@V?$allocator@D@2@@_STL@@@2@@_STL@@QAE@ABV?$allocator@V?$basic_string@DV?$char_traits@D@_STL@@V?$allocator@D@2@@_STL@@@1@@Z 0041bc20 f i Global.obj
 0001:0001ac30       ??1?$_Vector_base@V?$basic_string@DV?$char_traits@D@_STL@@V?$allocator@D@2@@_STL@@V?$allocator@V?$basic_string@DV?$char_traits@D@_STL@@V?$allocator@D@2@@_STL@@@2@@_STL@@QAE@XZ 0041bc30 f i Global.obj
 0001:0001acb0       ??1?$_STLP_alloc_proxy@PAV?$basic_string@DV?$char_traits@D@_STL@@V?$allocator@D@2@@_STL@@V12@V?$allocator@V?$basic_string@DV?$char_traits@D@_STL@@V?$allocator@D@2@@_STL@@@2@@_STL@@QAE@XZ 0041bcb0 f i Global.obj
 0001:0001acc0       ??0?$_STLP_alloc_proxy@PAV?$basic_string@DV?$char_traits@D@_STL@@V?$allocator@D@2@@_STL@@V12@V?$allocator@V?$basic_string@DV?$char_traits@D@_STL@@V?$allocator@D@2@@_STL@@@2@@_STL@@QAE@ABV?$allocator@V?$basic_string@DV?$char_traits@D@_STL@@V?$allocator@D@2@@_STL@@@1@PAV?$basic_string@DV?$char_traits@D@_STL@@V?$allocator@D@2@@1@@Z 0041bcc0 f i Global.obj
 0001:0001acd0       ??H_STL@@YA?AV?$basic_string@DV?$char_traits@D@_STL@@V?$allocator@D@2@@0@ABV10@PBD@Z 0041bcd0 f i Global.obj
 0001:0001ae10       ?__uninitialized_copy@_STL@@YAPAV?$basic_string@DV?$char_traits@D@_STL@@V?$allocator@D@2@@1@PAV21@00ABU__false_type@1@@Z 0041be10 f i Global.obj
 0001:0001af10       ?__uninitialized_fill_n@_STL@@YAPAV?$basic_string@DV?$char_traits@D@_STL@@V?$allocator@D@2@@1@PAV21@IABV21@ABU__false_type@1@@Z 0041bf10 f i Global.obj
 0001:0001b010       ?__copy_ptrs@_STL@@YAPAV?$basic_string@DV?$char_traits@D@_STL@@V?$allocator@D@2@@1@PAV21@00ABU__false_type@1@@Z 0041c010 f i Global.obj
 0001:0001b0c0       ??_G?$basic_string@DV?$char_traits@D@_STL@@V?$allocator@D@2@@_STL@@QAEPAXI@Z 0041c0c0 f i Global.obj
 0001:0001b0e0       ??0CHeavenLib@@QAE@XZ      0041c0e0 f   HeavenLib.obj
 0001:0001b100       ??_ECHeavenLib@@UAEPAXI@Z  0041c100 f i HeavenLib.obj
 0001:0001b100       ??_GCHeavenLib@@UAEPAXI@Z  0041c100 f i HeavenLib.obj
 0001:0001b120       ??1CHeavenLib@@UAE@XZ      0041c120 f   HeavenLib.obj
 0001:0001b130       ?Initialize@CHeavenLib@@QAEHXZ 0041c130 f   HeavenLib.obj
 0001:0001b170       ?Uninitialize@CHeavenLib@@QAEHXZ 0041c170 f   HeavenLib.obj
 0001:0001b1a0       ?CreateInterface@CHeavenLib@@QAEJABU_GUID@@PAPAX@Z 0041c1a0 f   HeavenLib.obj
 0001:0001b1c0       ??0CHostConnect@@QAE@PAVCHostServer@@K@Z 0041c1c0 f   HostConnect.obj
 0001:0001b2e0       ??_GCHostConnect@@UAEPAXI@Z 0041c2e0 f i HostConnect.obj
 0001:0001b2e0       ??_ECHostConnect@@UAEPAXI@Z 0041c2e0 f i HostConnect.obj
 0001:0001b300       ??1?$map@V?$basic_string@DV?$char_traits@D@_STL@@V?$allocator@D@2@@_STL@@UACCINFO@CHostConnect@@U_tstring_iless@@V?$allocator@U?$pair@$$CBV?$basic_string@DV?$char_traits@D@_STL@@V?$allocator@D@2@@_STL@@UACCINFO@CHostConnect@@@_STL@@@2@@_STL@@QAE@XZ 0041c300 f i HostConnect.obj
 0001:0001b3b0       ??1?$map@V?$basic_string@DV?$char_traits@D@_STL@@V?$allocator@D@2@@_STL@@UROLEINFO@CHostConnect@@U_tstring_less@@V?$allocator@U?$pair@$$CBV?$basic_string@DV?$char_traits@D@_STL@@V?$allocator@D@2@@_STL@@UROLEINFO@CHostConnect@@@_STL@@@2@@_STL@@QAE@XZ 0041c3b0 f i HostConnect.obj
 0001:0001b460       ??1?$map@KUPARAMINFO@CHostConnect@@U?$less@K@_STL@@V?$allocator@U?$pair@$$CBKUPARAMINFO@CHostConnect@@@_STL@@@4@@_STL@@QAE@XZ 0041c460 f i HostConnect.obj
 0001:0001b510       ??1CHostConnect@@UAE@XZ    0041c510 f   HostConnect.obj
 0001:0001b6c0       ?RecvPackage@CHostConnect@@MAEXPBXI@Z 0041c6c0 f   HostConnect.obj
 0001:0001b700       ?Proc0_Normal@CHostConnect@@AAEXPBXI@Z 0041c700 f   HostConnect.obj
 0001:0001b730       ?Proc1_Normal_EnterGame@CHostConnect@@AAEXPBXI@Z 0041c730 f   HostConnect.obj
 0001:0001bb00       ??R_tstring_iless@@QBE_NABV?$basic_string@DV?$char_traits@D@_STL@@V?$allocator@D@2@@_STL@@0@Z 0041cb00 f i HostConnect.obj
 0001:0001bb40       ??1ACCINFO@CHostConnect@@QAE@XZ 0041cb40 f i HostConnect.obj
 0001:0001bbb0       ??1ROLEINFO@CHostConnect@@QAE@XZ 0041cbb0 f i HostConnect.obj
 0001:0001bc20       ??1PARAMINFO@CHostConnect@@QAE@XZ 0041cc20 f i HostConnect.obj
 0001:0001bcd0       ??4ROLEINFO@CHostConnect@@QAEAAU01@ABU01@@Z 0041ccd0 f i HostConnect.obj
 0001:0001bd50       ??4PARAMINFO@CHostConnect@@QAEAAU01@ABU01@@Z 0041cd50 f i HostConnect.obj
 0001:0001be50       ?Proc1_Normal_LeaveGame@CHostConnect@@AAEXPBXI@Z 0041ce50 f   HostConnect.obj
 0001:0001c000       ?Proc0_Relay@CHostConnect@@AAEXPBXI@Z 0041d000 f   HostConnect.obj
 0001:0001c040       ?Proc1_Relay_Data@CHostConnect@@AAEXPBXI@Z 0041d040 f   HostConnect.obj
 0001:0001c220       ?Proc1_Relay_AskWay@CHostConnect@@AAEXPBXI@Z 0041d220 f   HostConnect.obj
 0001:0001c280       ?Proc1_Relay_LoseWay@CHostConnect@@AAEXPBXI@Z 0041d280 f   HostConnect.obj
 0001:0001c3f0       ?Proc2_Relay_AskWay_AccountRoleID@CHostConnect@@AAEXPBXIH@Z 0041d3f0 f   HostConnect.obj
 0001:0001c640       ?Proc2_Relay_AskWay_MapID@CHostConnect@@AAEXPBXI@Z 0041d640 f   HostConnect.obj
 0001:0001c680       ?Proc2_Relay_AskWay_GM@CHostConnect@@AAEXPBXI@Z 0041d680 f   HostConnect.obj
 0001:0001c720       ?Proc0_PlayerCommunity@CHostConnect@@AAEXPBXI@Z 0041d720 f   HostConnect.obj
 0001:0001c760       ?Proc1_PlayerCommunity_QueryChannelID@CHostConnect@@AAEXPBXI@Z 0041d760 f   HostConnect.obj
 0001:0001c8e0       ?Proc1_PlayerCommunity_FreeChannelID@CHostConnect@@AAEXPBXI@Z 0041d8e0 f   HostConnect.obj
 0001:0001c910       ?Proc1_PlayerCommunity_Subscribe@CHostConnect@@AAEXPBXI@Z 0041d910 f   HostConnect.obj
 0001:0001c960       ?OnClientConnectCreate@CHostConnect@@MAEXXZ 0041d960 f   HostConnect.obj
 0001:0001c980       ?OnClientConnectClose@CHostConnect@@MAEXXZ 0041d980 f   HostConnect.obj
 0001:0001ca20       ?FindPlayerByAcc@CHostConnect@@QAEHABV?$basic_string@DV?$char_traits@D@_STL@@V?$allocator@D@2@@_STL@@PAV23@PAK21@Z 0041da20 f   HostConnect.obj
 0001:0001cb50       ?FindPlayerByRole@CHostConnect@@QAEHABV?$basic_string@DV?$char_traits@D@_STL@@V?$allocator@D@2@@_STL@@PAV23@PAK21@Z 0041db50 f   HostConnect.obj
 0001:0001cc80       ?FindPlayerByParam@CHostConnect@@QAEHKPAV?$basic_string@DV?$char_traits@D@_STL@@V?$allocator@D@2@@_STL@@0PAK@Z 0041dc80 f   HostConnect.obj
 0001:0001cd90       ?PrepareRecvs@CHostConnect@@MAEXXZ 0041dd90 f   HostConnect.obj
 0001:0001cda0       ?UnprepareRecvs@CHostConnect@@MAEXXZ 0041dda0 f   HostConnect.obj
 0001:0001cdb0       ?GetPlayerCount@CHostConnect@@QAEIXZ 0041ddb0 f   HostConnect.obj
 0001:0001cdc0       ??4?$basic_string@DV?$char_traits@D@_STL@@V?$allocator@D@2@@_STL@@QAEAAV01@ABV01@@Z 0041ddc0 f i HostConnect.obj
 0001:0001ce40       ?erase@?$map@V?$basic_string@DV?$char_traits@D@_STL@@V?$allocator@D@2@@_STL@@UACCINFO@CHostConnect@@U_tstring_iless@@V?$allocator@U?$pair@$$CBV?$basic_string@DV?$char_traits@D@_STL@@V?$allocator@D@2@@_STL@@UACCINFO@CHostConnect@@@_STL@@@2@@_STL@@QAEXU?$_Rb_tree_iterator@U?$pair@$$CBV?$basic_string@DV?$char_traits@D@_STL@@V?$allocator@D@2@@_STL@@UACCINFO@CHostConnect@@@_STL@@U?$_Nonconst_traits@U?$pair@$$CBV?$basic_string@DV?$char_traits@D@_STL@@V?$allocator@D@2@@_STL@@UACCINFO@CHostConnect@@@_STL@@@2@@2@@Z 0041de40 f i HostConnect.obj
 0001:0001ce60       ??0?$_Rb_tree_iterator@U?$pair@$$CBV?$basic_string@DV?$char_traits@D@_STL@@V?$allocator@D@2@@_STL@@UACCINFO@CHostConnect@@@_STL@@U?$_Nonconst_traits@U?$pair@$$CBV?$basic_string@DV?$char_traits@D@_STL@@V?$allocator@D@2@@_STL@@UACCINFO@CHostConnect@@@_STL@@@2@@_STL@@QAE@ABU01@@Z 0041de60 f i HostConnect.obj
 0001:0001ce70       ??A?$map@KUPARAMINFO@CHostConnect@@U?$less@K@_STL@@V?$allocator@U?$pair@$$CBKUPARAMINFO@CHostConnect@@@_STL@@@4@@_STL@@QAEAAUPARAMINFO@CHostConnect@@ABK@Z 0041de70 f i HostConnect.obj
 0001:0001cfc0       ??1?$pair@$$CBV?$basic_string@DV?$char_traits@D@_STL@@V?$allocator@D@2@@_STL@@UACCINFO@CHostConnect@@@_STL@@QAE@XZ 0041dfc0 f i HostConnect.obj
 0001:0001d070       ??1?$pair@$$CBV?$basic_string@DV?$char_traits@D@_STL@@V?$allocator@D@2@@_STL@@UROLEINFO@CHostConnect@@@_STL@@QAE@XZ 0041e070 f i HostConnect.obj
 0001:0001d120       ??1?$pair@$$CBKUPARAMINFO@CHostConnect@@@_STL@@QAE@XZ 0041e120 f i HostConnect.obj
 0001:0001d1d0       ?insert@?$map@V?$basic_string@DV?$char_traits@D@_STL@@V?$allocator@D@2@@_STL@@UACCINFO@CHostConnect@@U_tstring_iless@@V?$allocator@U?$pair@$$CBV?$basic_string@DV?$char_traits@D@_STL@@V?$allocator@D@2@@_STL@@UACCINFO@CHostConnect@@@_STL@@@2@@_STL@@QAE?AU?$_Rb_tree_iterator@U?$pair@$$CBV?$basic_string@DV?$char_traits@D@_STL@@V?$allocator@D@2@@_STL@@UACCINFO@CHostConnect@@@_STL@@U?$_Nonconst_traits@U?$pair@$$CBV?$basic_string@DV?$char_traits@D@_STL@@V?$allocator@D@2@@_STL@@UACCINFO@CHostConnect@@@_STL@@@2@@2@U32@ABU?$pair@$$CBV?$basic_string@DV?$char_traits@D@_STL@@V?$allocator@D@2@@_STL@@UACCINFO@CHostConnect@@@2@@Z 0041e1d0 f i HostConnect.obj
 0001:0001d200       ?lower_bound@?$map@V?$basic_string@DV?$char_traits@D@_STL@@V?$allocator@D@2@@_STL@@UACCINFO@CHostConnect@@U_tstring_iless@@V?$allocator@U?$pair@$$CBV?$basic_string@DV?$char_traits@D@_STL@@V?$allocator@D@2@@_STL@@UACCINFO@CHostConnect@@@_STL@@@2@@_STL@@QAE?AU?$_Rb_tree_iterator@U?$pair@$$CBV?$basic_string@DV?$char_traits@D@_STL@@V?$allocator@D@2@@_STL@@UACCINFO@CHostConnect@@@_STL@@U?$_Nonconst_traits@U?$pair@$$CBV?$basic_string@DV?$char_traits@D@_STL@@V?$allocator@D@2@@_STL@@UACCINFO@CHostConnect@@@_STL@@@2@@2@ABV?$basic_string@DV?$char_traits@D@_STL@@V?$allocator@D@2@@2@@Z 0041e200 f i HostConnect.obj
 0001:0001d260       ?erase@?$_Rb_tree@V?$basic_string@DV?$char_traits@D@_STL@@V?$allocator@D@2@@_STL@@U?$pair@$$CBV?$basic_string@DV?$char_traits@D@_STL@@V?$allocator@D@2@@_STL@@UACCINFO@CHostConnect@@@2@U?$_Select1st@U?$pair@$$CBV?$basic_string@DV?$char_traits@D@_STL@@V?$allocator@D@2@@_STL@@UACCINFO@CHostConnect@@@_STL@@@2@U_tstring_iless@@V?$allocator@U?$pair@$$CBV?$basic_string@DV?$char_traits@D@_STL@@V?$allocator@D@2@@_STL@@UACCINFO@CHostConnect@@@_STL@@@2@@_STL@@QAEXU?$_Rb_tree_iterator@U?$pair@$$CBV?$basic_string@DV?$char_traits@D@_STL@@V?$allocator@D@2@@_STL@@UACCINFO@CHostConnect@@@_STL@@U?$_Nonconst_traits@U?$pair@$$CBV?$basic_string@DV?$char_traits@D@_STL@@V?$allocator@D@2@@_STL@@UACCINFO@CHostConnect@@@_STL@@@2@@2@@Z 0041e260 f i HostConnect.obj
 0001:0001d2b0       ??1?$_Rb_tree_base@U?$pair@$$CBV?$basic_string@DV?$char_traits@D@_STL@@V?$allocator@D@2@@_STL@@UACCINFO@CHostConnect@@@_STL@@V?$allocator@U?$pair@$$CBV?$basic_string@DV?$char_traits@D@_STL@@V?$allocator@D@2@@_STL@@UACCINFO@CHostConnect@@@_STL@@@2@@_STL@@QAE@XZ 0041e2b0 f i HostConnect.obj
 0001:0001d300       ??1?$allocator@U?$pair@$$CBV?$basic_string@DV?$char_traits@D@_STL@@V?$allocator@D@2@@_STL@@UACCINFO@CHostConnect@@@_STL@@@_STL@@QAE@XZ 0041e300 f i HostConnect.obj
 0001:0001d310       ?insert@?$map@V?$basic_string@DV?$char_traits@D@_STL@@V?$allocator@D@2@@_STL@@UROLEINFO@CHostConnect@@U_tstring_less@@V?$allocator@U?$pair@$$CBV?$basic_string@DV?$char_traits@D@_STL@@V?$allocator@D@2@@_STL@@UROLEINFO@CHostConnect@@@_STL@@@2@@_STL@@QAE?AU?$_Rb_tree_iterator@U?$pair@$$CBV?$basic_string@DV?$char_traits@D@_STL@@V?$allocator@D@2@@_STL@@UROLEINFO@CHostConnect@@@_STL@@U?$_Nonconst_traits@U?$pair@$$CBV?$basic_string@DV?$char_traits@D@_STL@@V?$allocator@D@2@@_STL@@UROLEINFO@CHostConnect@@@_STL@@@2@@2@U32@ABU?$pair@$$CBV?$basic_string@DV?$char_traits@D@_STL@@V?$allocator@D@2@@_STL@@UROLEINFO@CHostConnect@@@2@@Z 0041e310 f i HostConnect.obj
 0001:0001d340       ?lower_bound@?$map@V?$basic_string@DV?$char_traits@D@_STL@@V?$allocator@D@2@@_STL@@UROLEINFO@CHostConnect@@U_tstring_less@@V?$allocator@U?$pair@$$CBV?$basic_string@DV?$char_traits@D@_STL@@V?$allocator@D@2@@_STL@@UROLEINFO@CHostConnect@@@_STL@@@2@@_STL@@QAE?AU?$_Rb_tree_iterator@U?$pair@$$CBV?$basic_string@DV?$char_traits@D@_STL@@V?$allocator@D@2@@_STL@@UROLEINFO@CHostConnect@@@_STL@@U?$_Nonconst_traits@U?$pair@$$CBV?$basic_string@DV?$char_traits@D@_STL@@V?$allocator@D@2@@_STL@@UROLEINFO@CHostConnect@@@_STL@@@2@@2@ABV?$basic_string@DV?$char_traits@D@_STL@@V?$allocator@D@2@@2@@Z 0041e340 f i HostConnect.obj
 0001:0001d3a0       ??1?$_Rb_tree_base@U?$pair@$$CBV?$basic_string@DV?$char_traits@D@_STL@@V?$allocator@D@2@@_STL@@UROLEINFO@CHostConnect@@@_STL@@V?$allocator@U?$pair@$$CBV?$basic_string@DV?$char_traits@D@_STL@@V?$allocator@D@2@@_STL@@UROLEINFO@CHostConnect@@@_STL@@@2@@_STL@@QAE@XZ 0041e3a0 f i HostConnect.obj
 0001:0001d3f0       ??1?$allocator@U?$pair@$$CBV?$basic_string@DV?$char_traits@D@_STL@@V?$allocator@D@2@@_STL@@UROLEINFO@CHostConnect@@@_STL@@@_STL@@QAE@XZ 0041e3f0 f i HostConnect.obj
 0001:0001d400       ??0?$_Rb_tree_iterator@U?$pair@$$CBV?$basic_string@DV?$char_traits@D@_STL@@V?$allocator@D@2@@_STL@@UROLEINFO@CHostConnect@@@_STL@@U?$_Nonconst_traits@U?$pair@$$CBV?$basic_string@DV?$char_traits@D@_STL@@V?$allocator@D@2@@_STL@@UROLEINFO@CHostConnect@@@_STL@@@2@@_STL@@QAE@ABU01@@Z 0041e400 f i HostConnect.obj
 0001:0001d410       ?insert@?$map@KUPARAMINFO@CHostConnect@@U?$less@K@_STL@@V?$allocator@U?$pair@$$CBKUPARAMINFO@CHostConnect@@@_STL@@@4@@_STL@@QAE?AU?$_Rb_tree_iterator@U?$pair@$$CBKUPARAMINFO@CHostConnect@@@_STL@@U?$_Nonconst_traits@U?$pair@$$CBKUPARAMINFO@CHostConnect@@@_STL@@@2@@2@U32@ABU?$pair@$$CBKUPARAMINFO@CHostConnect@@@2@@Z 0041e410 f i HostConnect.obj
 0001:0001d440       ??1?$_Rb_tree_base@U?$pair@$$CBKUPARAMINFO@CHostConnect@@@_STL@@V?$allocator@U?$pair@$$CBKUPARAMINFO@CHostConnect@@@_STL@@@2@@_STL@@QAE@XZ 0041e440 f i HostConnect.obj
 0001:0001d490       ??1?$allocator@U?$pair@$$CBKUPARAMINFO@CHostConnect@@@_STL@@@_STL@@QAE@XZ 0041e490 f i HostConnect.obj
 0001:0001d4a0       ??0?$_Rb_tree_iterator@U?$pair@$$CBKUPARAMINFO@CHostConnect@@@_STL@@U?$_Nonconst_traits@U?$pair@$$CBKUPARAMINFO@CHostConnect@@@_STL@@@2@@_STL@@QAE@ABU01@@Z 0041e4a0 f i HostConnect.obj
 0001:0001d4b0       ??0?$pair@$$CBV?$basic_string@DV?$char_traits@D@_STL@@V?$allocator@D@2@@_STL@@UACCINFO@CHostConnect@@@_STL@@QAE@ABV?$basic_string@DV?$char_traits@D@_STL@@V?$allocator@D@2@@1@ABUACCINFO@CHostConnect@@@Z 0041e4b0 f i HostConnect.obj
 0001:0001d5e0       ??0?$pair@$$CBV?$basic_string@DV?$char_traits@D@_STL@@V?$allocator@D@2@@_STL@@UROLEINFO@CHostConnect@@@_STL@@QAE@ABV?$basic_string@DV?$char_traits@D@_STL@@V?$allocator@D@2@@1@ABUROLEINFO@CHostConnect@@@Z 0041e5e0 f i HostConnect.obj
 0001:0001d710       ??1?$_STLP_alloc_proxy@PAU?$_Rb_tree_node@U?$pair@$$CBV?$basic_string@DV?$char_traits@D@_STL@@V?$allocator@D@2@@_STL@@UACCINFO@CHostConnect@@@_STL@@@_STL@@U12@V?$allocator@U?$pair@$$CBV?$basic_string@DV?$char_traits@D@_STL@@V?$allocator@D@2@@_STL@@UACCINFO@CHostConnect@@@_STL@@@2@@_STL@@QAE@XZ 0041e710 f i HostConnect.obj
 0001:0001d720       ??1?$_STLP_alloc_proxy@PAU?$_Rb_tree_node@U?$pair@$$CBV?$basic_string@DV?$char_traits@D@_STL@@V?$allocator@D@2@@_STL@@UROLEINFO@CHostConnect@@@_STL@@@_STL@@U12@V?$allocator@U?$pair@$$CBV?$basic_string@DV?$char_traits@D@_STL@@V?$allocator@D@2@@_STL@@UROLEINFO@CHostConnect@@@_STL@@@2@@_STL@@QAE@XZ 0041e720 f i HostConnect.obj
 0001:0001d730       ??1?$_STLP_alloc_proxy@PAU?$_Rb_tree_node@U?$pair@$$CBKUPARAMINFO@CHostConnect@@@_STL@@@_STL@@U12@V?$allocator@U?$pair@$$CBKUPARAMINFO@CHostConnect@@@_STL@@@2@@_STL@@QAE@XZ 0041e730 f i HostConnect.obj
 0001:0001d740       ?_M_empty_initialize@?$_Rb_tree@V?$basic_string@DV?$char_traits@D@_STL@@V?$allocator@D@2@@_STL@@U?$pair@$$CBV?$basic_string@DV?$char_traits@D@_STL@@V?$allocator@D@2@@_STL@@UACCINFO@CHostConnect@@@2@U?$_Select1st@U?$pair@$$CBV?$basic_string@DV?$char_traits@D@_STL@@V?$allocator@D@2@@_STL@@UACCINFO@CHostConnect@@@_STL@@@2@U_tstring_iless@@V?$allocator@U?$pair@$$CBV?$basic_string@DV?$char_traits@D@_STL@@V?$allocator@D@2@@_STL@@UACCINFO@CHostConnect@@@_STL@@@2@@_STL@@AAEXXZ 0041e740 f i HostConnect.obj
 0001:0001d760       ?deallocate@?$_STLP_alloc_proxy@PAU?$_Rb_tree_node@U?$pair@$$CBV?$basic_string@DV?$char_traits@D@_STL@@V?$allocator@D@2@@_STL@@UACCINFO@CHostConnect@@@_STL@@@_STL@@U12@V?$allocator@U?$pair@$$CBV?$basic_string@DV?$char_traits@D@_STL@@V?$allocator@D@2@@_STL@@UACCINFO@CHostConnect@@@_STL@@@2@@_STL@@QAEXPAU?$_Rb_tree_node@U?$pair@$$CBV?$basic_string@DV?$char_traits@D@_STL@@V?$allocator@D@2@@_STL@@UACCINFO@CHostConnect@@@_STL@@@2@I@Z 0041e760 f i HostConnect.obj
 0001:0001d7a0       ?_M_empty_initialize@?$_Rb_tree@V?$basic_string@DV?$char_traits@D@_STL@@V?$allocator@D@2@@_STL@@U?$pair@$$CBV?$basic_string@DV?$char_traits@D@_STL@@V?$allocator@D@2@@_STL@@UROLEINFO@CHostConnect@@@2@U?$_Select1st@U?$pair@$$CBV?$basic_string@DV?$char_traits@D@_STL@@V?$allocator@D@2@@_STL@@UROLEINFO@CHostConnect@@@_STL@@@2@U_tstring_less@@V?$allocator@U?$pair@$$CBV?$basic_string@DV?$char_traits@D@_STL@@V?$allocator@D@2@@_STL@@UROLEINFO@CHostConnect@@@_STL@@@2@@_STL@@AAEXXZ 0041e7a0 f i HostConnect.obj
 0001:0001d7c0       ?erase@?$_Rb_tree@V?$basic_string@DV?$char_traits@D@_STL@@V?$allocator@D@2@@_STL@@U?$pair@$$CBV?$basic_string@DV?$char_traits@D@_STL@@V?$allocator@D@2@@_STL@@UROLEINFO@CHostConnect@@@2@U?$_Select1st@U?$pair@$$CBV?$basic_string@DV?$char_traits@D@_STL@@V?$allocator@D@2@@_STL@@UROLEINFO@CHostConnect@@@_STL@@@2@U_tstring_less@@V?$allocator@U?$pair@$$CBV?$basic_string@DV?$char_traits@D@_STL@@V?$allocator@D@2@@_STL@@UROLEINFO@CHostConnect@@@_STL@@@2@@_STL@@QAEXU?$_Rb_tree_iterator@U?$pair@$$CBV?$basic_string@DV?$char_traits@D@_STL@@V?$allocator@D@2@@_STL@@UROLEINFO@CHostConnect@@@_STL@@U?$_Nonconst_traits@U?$pair@$$CBV?$basic_string@DV?$char_traits@D@_STL@@V?$allocator@D@2@@_STL@@UROLEINFO@CHostConnect@@@_STL@@@2@@2@0@Z 0041e7c0 f i HostConnect.obj
 0001:0001d860       ?equal_range@?$_Rb_tree@V?$basic_string@DV?$char_traits@D@_STL@@V?$allocator@D@2@@_STL@@U?$pair@$$CBV?$basic_string@DV?$char_traits@D@_STL@@V?$allocator@D@2@@_STL@@UROLEINFO@CHostConnect@@@2@U?$_Select1st@U?$pair@$$CBV?$basic_string@DV?$char_traits@D@_STL@@V?$allocator@D@2@@_STL@@UROLEINFO@CHostConnect@@@_STL@@@2@U_tstring_less@@V?$allocator@U?$pair@$$CBV?$basic_string@DV?$char_traits@D@_STL@@V?$allocator@D@2@@_STL@@UROLEINFO@CHostConnect@@@_STL@@@2@@_STL@@QAE?AU?$pair@U?$_Rb_tree_iterator@U?$pair@$$CBV?$basic_string@DV?$char_traits@D@_STL@@V?$allocator@D@2@@_STL@@UROLEINFO@CHostConnect@@@_STL@@U?$_Nonconst_traits@U?$pair@$$CBV?$basic_string@DV?$char_traits@D@_STL@@V?$allocator@D@2@@_STL@@UROLEINFO@CHostConnect@@@_STL@@@2@@_STL@@U12@@2@ABV?$basic_string@DV?$char_traits@D@_STL@@V?$allocator@D@2@@2@@Z 0041e860 f i HostConnect.obj
 0001:0001d910       ?deallocate@?$_STLP_alloc_proxy@PAU?$_Rb_tree_node@U?$pair@$$CBV?$basic_string@DV?$char_traits@D@_STL@@V?$allocator@D@2@@_STL@@UROLEINFO@CHostConnect@@@_STL@@@_STL@@U12@V?$allocator@U?$pair@$$CBV?$basic_string@DV?$char_traits@D@_STL@@V?$allocator@D@2@@_STL@@UROLEINFO@CHostConnect@@@_STL@@@2@@_STL@@QAEXPAU?$_Rb_tree_node@U?$pair@$$CBV?$basic_string@DV?$char_traits@D@_STL@@V?$allocator@D@2@@_STL@@UROLEINFO@CHostConnect@@@_STL@@@2@I@Z 0041e910 f i HostConnect.obj
 0001:0001d950       ?_M_empty_initialize@?$_Rb_tree@KU?$pair@$$CBKUPARAMINFO@CHostConnect@@@_STL@@U?$_Select1st@U?$pair@$$CBKUPARAMINFO@CHostConnect@@@_STL@@@2@U?$less@K@2@V?$allocator@U?$pair@$$CBKUPARAMINFO@CHostConnect@@@_STL@@@2@@_STL@@AAEXXZ 0041e950 f i HostConnect.obj
 0001:0001d970       ?erase@?$_Rb_tree@KU?$pair@$$CBKUPARAMINFO@CHostConnect@@@_STL@@U?$_Select1st@U?$pair@$$CBKUPARAMINFO@CHostConnect@@@_STL@@@2@U?$less@K@2@V?$allocator@U?$pair@$$CBKUPARAMINFO@CHostConnect@@@_STL@@@2@@_STL@@QAEXU?$_Rb_tree_iterator@U?$pair@$$CBKUPARAMINFO@CHostConnect@@@_STL@@U?$_Nonconst_traits@U?$pair@$$CBKUPARAMINFO@CHostConnect@@@_STL@@@2@@2@0@Z 0041e970 f i HostConnect.obj
 0001:0001da10       ?equal_range@?$_Rb_tree@KU?$pair@$$CBKUPARAMINFO@CHostConnect@@@_STL@@U?$_Select1st@U?$pair@$$CBKUPARAMINFO@CHostConnect@@@_STL@@@2@U?$less@K@2@V?$allocator@U?$pair@$$CBKUPARAMINFO@CHostConnect@@@_STL@@@2@@_STL@@QAE?AU?$pair@U?$_Rb_tree_iterator@U?$pair@$$CBKUPARAMINFO@CHostConnect@@@_STL@@U?$_Nonconst_traits@U?$pair@$$CBKUPARAMINFO@CHostConnect@@@_STL@@@2@@_STL@@U12@@2@ABK@Z 0041ea10 f i HostConnect.obj
 0001:0001da70       ?deallocate@?$_STLP_alloc_proxy@PAU?$_Rb_tree_node@U?$pair@$$CBKUPARAMINFO@CHostConnect@@@_STL@@@_STL@@U12@V?$allocator@U?$pair@$$CBKUPARAMINFO@CHostConnect@@@_STL@@@2@@_STL@@QAEXPAU?$_Rb_tree_node@U?$pair@$$CBKUPARAMINFO@CHostConnect@@@_STL@@@2@I@Z 0041ea70 f i HostConnect.obj
 0001:0001dab0       ??0?$_STLP_alloc_proxy@PAU?$_Rb_tree_node@U?$pair@$$CBV?$basic_string@DV?$char_traits@D@_STL@@V?$allocator@D@2@@_STL@@UACCINFO@CHostConnect@@@_STL@@@_STL@@U12@V?$allocator@U?$pair@$$CBV?$basic_string@DV?$char_traits@D@_STL@@V?$allocator@D@2@@_STL@@UACCINFO@CHostConnect@@@_STL@@@2@@_STL@@QAE@ABV?$allocator@U?$pair@$$CBV?$basic_string@DV?$char_traits@D@_STL@@V?$allocator@D@2@@_STL@@UACCINFO@CHostConnect@@@_STL@@@1@PAU?$_Rb_tree_node@U?$pair@$$CBV?$basic_string@DV?$char_traits@D@_STL@@V?$allocator@D@2@@_STL@@UACCINFO@CHostConnect@@@_STL@@@1@@Z 0041eab0 f i HostConnect.obj
 0001:0001dac0       ?erase@?$_Rb_tree@V?$basic_string@DV?$char_traits@D@_STL@@V?$allocator@D@2@@_STL@@U?$pair@$$CBV?$basic_string@DV?$char_traits@D@_STL@@V?$allocator@D@2@@_STL@@UROLEINFO@CHostConnect@@@2@U?$_Select1st@U?$pair@$$CBV?$basic_string@DV?$char_traits@D@_STL@@V?$allocator@D@2@@_STL@@UROLEINFO@CHostConnect@@@_STL@@@2@U_tstring_less@@V?$allocator@U?$pair@$$CBV?$basic_string@DV?$char_traits@D@_STL@@V?$allocator@D@2@@_STL@@UROLEINFO@CHostConnect@@@_STL@@@2@@_STL@@QAEXU?$_Rb_tree_iterator@U?$pair@$$CBV?$basic_string@DV?$char_traits@D@_STL@@V?$allocator@D@2@@_STL@@UROLEINFO@CHostConnect@@@_STL@@U?$_Nonconst_traits@U?$pair@$$CBV?$basic_string@DV?$char_traits@D@_STL@@V?$allocator@D@2@@_STL@@UROLEINFO@CHostConnect@@@_STL@@@2@@2@@Z 0041eac0 f i HostConnect.obj
 0001:0001db10       ??0?$_STLP_alloc_proxy@PAU?$_Rb_tree_node@U?$pair@$$CBV?$basic_string@DV?$char_traits@D@_STL@@V?$allocator@D@2@@_STL@@UROLEINFO@CHostConnect@@@_STL@@@_STL@@U12@V?$allocator@U?$pair@$$CBV?$basic_string@DV?$char_traits@D@_STL@@V?$allocator@D@2@@_STL@@UROLEINFO@CHostConnect@@@_STL@@@2@@_STL@@QAE@ABV?$allocator@U?$pair@$$CBV?$basic_string@DV?$char_traits@D@_STL@@V?$allocator@D@2@@_STL@@UROLEINFO@CHostConnect@@@_STL@@@1@PAU?$_Rb_tree_node@U?$pair@$$CBV?$basic_string@DV?$char_traits@D@_STL@@V?$allocator@D@2@@_STL@@UROLEINFO@CHostConnect@@@_STL@@@1@@Z 0041eb10 f i HostConnect.obj
 0001:0001db20       ?erase@?$_Rb_tree@KU?$pair@$$CBKUPARAMINFO@CHostConnect@@@_STL@@U?$_Select1st@U?$pair@$$CBKUPARAMINFO@CHostConnect@@@_STL@@@2@U?$less@K@2@V?$allocator@U?$pair@$$CBKUPARAMINFO@CHostConnect@@@_STL@@@2@@_STL@@QAEXU?$_Rb_tree_iterator@U?$pair@$$CBKUPARAMINFO@CHostConnect@@@_STL@@U?$_Nonconst_traits@U?$pair@$$CBKUPARAMINFO@CHostConnect@@@_STL@@@2@@2@@Z 0041eb20 f i HostConnect.obj
 0001:0001db70       ?_M_lower_bound@?$_Rb_tree@KU?$pair@$$CBKUPARAMINFO@CHostConnect@@@_STL@@U?$_Select1st@U?$pair@$$CBKUPARAMINFO@CHostConnect@@@_STL@@@2@U?$less@K@2@V?$allocator@U?$pair@$$CBKUPARAMINFO@CHostConnect@@@_STL@@@2@@_STL@@ABEPAU?$_Rb_tree_node@U?$pair@$$CBKUPARAMINFO@CHostConnect@@@_STL@@@2@ABK@Z 0041eb70 f i HostConnect.obj
 0001:0001dba0       ?deallocate@?$allocator@U?$_Rb_tree_node@U?$pair@$$CBV?$basic_string@DV?$char_traits@D@_STL@@V?$allocator@D@2@@_STL@@UACCINFO@CHostConnect@@@_STL@@@_STL@@@_STL@@QBEXPAU?$_Rb_tree_node@U?$pair@$$CBV?$basic_string@DV?$char_traits@D@_STL@@V?$allocator@D@2@@_STL@@UACCINFO@CHostConnect@@@_STL@@@2@I@Z 0041eba0 f i HostConnect.obj
 0001:0001dbe0       ?deallocate@?$allocator@U?$_Rb_tree_node@U?$pair@$$CBV?$basic_string@DV?$char_traits@D@_STL@@V?$allocator@D@2@@_STL@@UROLEINFO@CHostConnect@@@_STL@@@_STL@@@_STL@@QBEXPAU?$_Rb_tree_node@U?$pair@$$CBV?$basic_string@DV?$char_traits@D@_STL@@V?$allocator@D@2@@_STL@@UROLEINFO@CHostConnect@@@_STL@@@2@I@Z 0041ebe0 f i HostConnect.obj
 0001:0001dc20       ?deallocate@?$allocator@U?$_Rb_tree_node@U?$pair@$$CBKUPARAMINFO@CHostConnect@@@_STL@@@_STL@@@_STL@@QBEXPAU?$_Rb_tree_node@U?$pair@$$CBKUPARAMINFO@CHostConnect@@@_STL@@@2@I@Z 0041ec20 f i HostConnect.obj
 0001:0001dc60       ?_M_erase@?$_Rb_tree@V?$basic_string@DV?$char_traits@D@_STL@@V?$allocator@D@2@@_STL@@U?$pair@$$CBV?$basic_string@DV?$char_traits@D@_STL@@V?$allocator@D@2@@_STL@@UACCINFO@CHostConnect@@@2@U?$_Select1st@U?$pair@$$CBV?$basic_string@DV?$char_traits@D@_STL@@V?$allocator@D@2@@_STL@@UACCINFO@CHostConnect@@@_STL@@@2@U_tstring_iless@@V?$allocator@U?$pair@$$CBV?$basic_string@DV?$char_traits@D@_STL@@V?$allocator@D@2@@_STL@@UACCINFO@CHostConnect@@@_STL@@@2@@_STL@@AAEXPAU?$_Rb_tree_node@U?$pair@$$CBV?$basic_string@DV?$char_traits@D@_STL@@V?$allocator@D@2@@_STL@@UACCINFO@CHostConnect@@@_STL@@@2@@Z 0041ec60 f i HostConnect.obj
 0001:0001dca0       ?insert_unique@?$_Rb_tree@V?$basic_string@DV?$char_traits@D@_STL@@V?$allocator@D@2@@_STL@@U?$pair@$$CBV?$basic_string@DV?$char_traits@D@_STL@@V?$allocator@D@2@@_STL@@UACCINFO@CHostConnect@@@2@U?$_Select1st@U?$pair@$$CBV?$basic_string@DV?$char_traits@D@_STL@@V?$allocator@D@2@@_STL@@UACCINFO@CHostConnect@@@_STL@@@2@U_tstring_iless@@V?$allocator@U?$pair@$$CBV?$basic_string@DV?$char_traits@D@_STL@@V?$allocator@D@2@@_STL@@UACCINFO@CHostConnect@@@_STL@@@2@@_STL@@QAE?AU?$_Rb_tree_iterator@U?$pair@$$CBV?$basic_string@DV?$char_traits@D@_STL@@V?$allocator@D@2@@_STL@@UACCINFO@CHostConnect@@@_STL@@U?$_Nonconst_traits@U?$pair@$$CBV?$basic_string@DV?$char_traits@D@_STL@@V?$allocator@D@2@@_STL@@UACCINFO@CHostConnect@@@_STL@@@2@@2@U32@ABU?$pair@$$CBV?$basic_string@DV?$char_traits@D@_STL@@V?$allocator@D@2@@_STL@@UACCINFO@CHostConnect@@@2@@Z 0041eca0 f i HostConnect.obj
 0001:0001e200       ?_M_erase@?$_Rb_tree@V?$basic_string@DV?$char_traits@D@_STL@@V?$allocator@D@2@@_STL@@U?$pair@$$CBV?$basic_string@DV?$char_traits@D@_STL@@V?$allocator@D@2@@_STL@@UROLEINFO@CHostConnect@@@2@U?$_Select1st@U?$pair@$$CBV?$basic_string@DV?$char_traits@D@_STL@@V?$allocator@D@2@@_STL@@UROLEINFO@CHostConnect@@@_STL@@@2@U_tstring_less@@V?$allocator@U?$pair@$$CBV?$basic_string@DV?$char_traits@D@_STL@@V?$allocator@D@2@@_STL@@UROLEINFO@CHostConnect@@@_STL@@@2@@_STL@@AAEXPAU?$_Rb_tree_node@U?$pair@$$CBV?$basic_string@DV?$char_traits@D@_STL@@V?$allocator@D@2@@_STL@@UROLEINFO@CHostConnect@@@_STL@@@2@@Z 0041f200 f i HostConnect.obj
 0001:0001e240       ?insert_unique@?$_Rb_tree@V?$basic_string@DV?$char_traits@D@_STL@@V?$allocator@D@2@@_STL@@U?$pair@$$CBV?$basic_string@DV?$char_traits@D@_STL@@V?$allocator@D@2@@_STL@@UROLEINFO@CHostConnect@@@2@U?$_Select1st@U?$pair@$$CBV?$basic_string@DV?$char_traits@D@_STL@@V?$allocator@D@2@@_STL@@UROLEINFO@CHostConnect@@@_STL@@@2@U_tstring_less@@V?$allocator@U?$pair@$$CBV?$basic_string@DV?$char_traits@D@_STL@@V?$allocator@D@2@@_STL@@UROLEINFO@CHostConnect@@@_STL@@@2@@_STL@@QAE?AU?$_Rb_tree_iterator@U?$pair@$$CBV?$basic_string@DV?$char_traits@D@_STL@@V?$allocator@D@2@@_STL@@UROLEINFO@CHostConnect@@@_STL@@U?$_Nonconst_traits@U?$pair@$$CBV?$basic_string@DV?$char_traits@D@_STL@@V?$allocator@D@2@@_STL@@UROLEINFO@CHostConnect@@@_STL@@@2@@2@U32@ABU?$pair@$$CBV?$basic_string@DV?$char_traits@D@_STL@@V?$allocator@D@2@@_STL@@UROLEINFO@CHostConnect@@@2@@Z 0041f240 f i HostConnect.obj
 0001:0001e7a0       ?begin@?$_Rb_tree@V?$basic_string@DV?$char_traits@D@_STL@@V?$allocator@D@2@@_STL@@U?$pair@$$CBV?$basic_string@DV?$char_traits@D@_STL@@V?$allocator@D@2@@_STL@@UROLEINFO@CHostConnect@@@2@U?$_Select1st@U?$pair@$$CBV?$basic_string@DV?$char_traits@D@_STL@@V?$allocator@D@2@@_STL@@UROLEINFO@CHostConnect@@@_STL@@@2@U_tstring_less@@V?$allocator@U?$pair@$$CBV?$basic_string@DV?$char_traits@D@_STL@@V?$allocator@D@2@@_STL@@UROLEINFO@CHostConnect@@@_STL@@@2@@_STL@@QAE?AU?$_Rb_tree_iterator@U?$pair@$$CBV?$basic_string@DV?$char_traits@D@_STL@@V?$allocator@D@2@@_STL@@UROLEINFO@CHostConnect@@@_STL@@U?$_Nonconst_traits@U?$pair@$$CBV?$basic_string@DV?$char_traits@D@_STL@@V?$allocator@D@2@@_STL@@UROLEINFO@CHostConnect@@@_STL@@@2@@2@XZ 0041f7a0 f i HostConnect.obj
 0001:0001e7b0       ?_M_erase@?$_Rb_tree@KU?$pair@$$CBKUPARAMINFO@CHostConnect@@@_STL@@U?$_Select1st@U?$pair@$$CBKUPARAMINFO@CHostConnect@@@_STL@@@2@U?$less@K@2@V?$allocator@U?$pair@$$CBKUPARAMINFO@CHostConnect@@@_STL@@@2@@_STL@@AAEXPAU?$_Rb_tree_node@U?$pair@$$CBKUPARAMINFO@CHostConnect@@@_STL@@@2@@Z 0041f7b0 f i HostConnect.obj
 0001:0001e7f0       ?insert_unique@?$_Rb_tree@KU?$pair@$$CBKUPARAMINFO@CHostConnect@@@_STL@@U?$_Select1st@U?$pair@$$CBKUPARAMINFO@CHostConnect@@@_STL@@@2@U?$less@K@2@V?$allocator@U?$pair@$$CBKUPARAMINFO@CHostConnect@@@_STL@@@2@@_STL@@QAE?AU?$_Rb_tree_iterator@U?$pair@$$CBKUPARAMINFO@CHostConnect@@@_STL@@U?$_Nonconst_traits@U?$pair@$$CBKUPARAMINFO@CHostConnect@@@_STL@@@2@@2@U32@ABU?$pair@$$CBKUPARAMINFO@CHostConnect@@@2@@Z 0041f7f0 f i HostConnect.obj
 0001:0001ecd0       ?begin@?$_Rb_tree@KU?$pair@$$CBKUPARAMINFO@CHostConnect@@@_STL@@U?$_Select1st@U?$pair@$$CBKUPARAMINFO@CHostConnect@@@_STL@@@2@U?$less@K@2@V?$allocator@U?$pair@$$CBKUPARAMINFO@CHostConnect@@@_STL@@@2@@_STL@@QAE?AU?$_Rb_tree_iterator@U?$pair@$$CBKUPARAMINFO@CHostConnect@@@_STL@@U?$_Nonconst_traits@U?$pair@$$CBKUPARAMINFO@CHostConnect@@@_STL@@@2@@2@XZ 0041fcd0 f i HostConnect.obj
 0001:0001ece0       ?__default_constructed@_STL@@YA?AUACCINFO@CHostConnect@@PAU23@@Z 0041fce0 f i HostConnect.obj
 0001:0001ed10       ?__default_constructed@_STL@@YA?AUROLEINFO@CHostConnect@@PAU23@@Z 0041fd10 f i HostConnect.obj
 0001:0001ed40       ?__default_constructed@_STL@@YA?AUPARAMINFO@CHostConnect@@PAU23@@Z 0041fd40 f i HostConnect.obj
 0001:0001ed70       ??_G?$pair@$$CBV?$basic_string@DV?$char_traits@D@_STL@@V?$allocator@D@2@@_STL@@UACCINFO@CHostConnect@@@_STL@@QAEPAXI@Z 0041fd70 f i HostConnect.obj
 0001:0001ed90       ??_G?$pair@$$CBV?$basic_string@DV?$char_traits@D@_STL@@V?$allocator@D@2@@_STL@@UROLEINFO@CHostConnect@@@_STL@@QAEPAXI@Z 0041fd90 f i HostConnect.obj
 0001:0001edb0       ??_G?$pair@$$CBKUPARAMINFO@CHostConnect@@@_STL@@QAEPAXI@Z 0041fdb0 f i HostConnect.obj
 0001:0001edd0       ?_M_insert@?$_Rb_tree@V?$basic_string@DV?$char_traits@D@_STL@@V?$allocator@D@2@@_STL@@U?$pair@$$CBV?$basic_string@DV?$char_traits@D@_STL@@V?$allocator@D@2@@_STL@@UACCINFO@CHostConnect@@@2@U?$_Select1st@U?$pair@$$CBV?$basic_string@DV?$char_traits@D@_STL@@V?$allocator@D@2@@_STL@@UACCINFO@CHostConnect@@@_STL@@@2@U_tstring_iless@@V?$allocator@U?$pair@$$CBV?$basic_string@DV?$char_traits@D@_STL@@V?$allocator@D@2@@_STL@@UACCINFO@CHostConnect@@@_STL@@@2@@_STL@@AAE?AU?$_Rb_tree_iterator@U?$pair@$$CBV?$basic_string@DV?$char_traits@D@_STL@@V?$allocator@D@2@@_STL@@UACCINFO@CHostConnect@@@_STL@@U?$_Nonconst_traits@U?$pair@$$CBV?$basic_string@DV?$char_traits@D@_STL@@V?$allocator@D@2@@_STL@@UACCINFO@CHostConnect@@@_STL@@@2@@2@PAU_Rb_tree_node_base@2@0ABU?$pair@$$CBV?$basic_string@DV?$char_traits@D@_STL@@V?$allocator@D@2@@_STL@@UACCINFO@CHostConnect@@@2@0@Z 0041fdd0 f i HostConnect.obj
 0001:0001ee90       ?insert_unique@?$_Rb_tree@V?$basic_string@DV?$char_traits@D@_STL@@V?$allocator@D@2@@_STL@@U?$pair@$$CBV?$basic_string@DV?$char_traits@D@_STL@@V?$allocator@D@2@@_STL@@UACCINFO@CHostConnect@@@2@U?$_Select1st@U?$pair@$$CBV?$basic_string@DV?$char_traits@D@_STL@@V?$allocator@D@2@@_STL@@UACCINFO@CHostConnect@@@_STL@@@2@U_tstring_iless@@V?$allocator@U?$pair@$$CBV?$basic_string@DV?$char_traits@D@_STL@@V?$allocator@D@2@@_STL@@UACCINFO@CHostConnect@@@_STL@@@2@@_STL@@QAE?AU?$pair@U?$_Rb_tree_iterator@U?$pair@$$CBV?$basic_string@DV?$char_traits@D@_STL@@V?$allocator@D@2@@_STL@@UACCINFO@CHostConnect@@@_STL@@U?$_Nonconst_traits@U?$pair@$$CBV?$basic_string@DV?$char_traits@D@_STL@@V?$allocator@D@2@@_STL@@UACCINFO@CHostConnect@@@_STL@@@2@@_STL@@_N@2@ABU?$pair@$$CBV?$basic_string@DV?$char_traits@D@_STL@@V?$allocator@D@2@@_STL@@UACCINFO@CHostConnect@@@2@@Z 0041fe90 f i HostConnect.obj
 0001:0001f080       ?_M_insert@?$_Rb_tree@V?$basic_string@DV?$char_traits@D@_STL@@V?$allocator@D@2@@_STL@@U?$pair@$$CBV?$basic_string@DV?$char_traits@D@_STL@@V?$allocator@D@2@@_STL@@UROLEINFO@CHostConnect@@@2@U?$_Select1st@U?$pair@$$CBV?$basic_string@DV?$char_traits@D@_STL@@V?$allocator@D@2@@_STL@@UROLEINFO@CHostConnect@@@_STL@@@2@U_tstring_less@@V?$allocator@U?$pair@$$CBV?$basic_string@DV?$char_traits@D@_STL@@V?$allocator@D@2@@_STL@@UROLEINFO@CHostConnect@@@_STL@@@2@@_STL@@AAE?AU?$_Rb_tree_iterator@U?$pair@$$CBV?$basic_string@DV?$char_traits@D@_STL@@V?$allocator@D@2@@_STL@@UROLEINFO@CHostConnect@@@_STL@@U?$_Nonconst_traits@U?$pair@$$CBV?$basic_string@DV?$char_traits@D@_STL@@V?$allocator@D@2@@_STL@@UROLEINFO@CHostConnect@@@_STL@@@2@@2@PAU_Rb_tree_node_base@2@0ABU?$pair@$$CBV?$basic_string@DV?$char_traits@D@_STL@@V?$allocator@D@2@@_STL@@UROLEINFO@CHostConnect@@@2@0@Z 00420080 f i HostConnect.obj
 0001:0001f140       ?insert_unique@?$_Rb_tree@V?$basic_string@DV?$char_traits@D@_STL@@V?$allocator@D@2@@_STL@@U?$pair@$$CBV?$basic_string@DV?$char_traits@D@_STL@@V?$allocator@D@2@@_STL@@UROLEINFO@CHostConnect@@@2@U?$_Select1st@U?$pair@$$CBV?$basic_string@DV?$char_traits@D@_STL@@V?$allocator@D@2@@_STL@@UROLEINFO@CHostConnect@@@_STL@@@2@U_tstring_less@@V?$allocator@U?$pair@$$CBV?$basic_string@DV?$char_traits@D@_STL@@V?$allocator@D@2@@_STL@@UROLEINFO@CHostConnect@@@_STL@@@2@@_STL@@QAE?AU?$pair@U?$_Rb_tree_iterator@U?$pair@$$CBV?$basic_string@DV?$char_traits@D@_STL@@V?$allocator@D@2@@_STL@@UROLEINFO@CHostConnect@@@_STL@@U?$_Nonconst_traits@U?$pair@$$CBV?$basic_string@DV?$char_traits@D@_STL@@V?$allocator@D@2@@_STL@@UROLEINFO@CHostConnect@@@_STL@@@2@@_STL@@_N@2@ABU?$pair@$$CBV?$basic_string@DV?$char_traits@D@_STL@@V?$allocator@D@2@@_STL@@UROLEINFO@CHostConnect@@@2@@Z 00420140 f i HostConnect.obj
 0001:0001f330       ?_M_insert@?$_Rb_tree@KU?$pair@$$CBKUPARAMINFO@CHostConnect@@@_STL@@U?$_Select1st@U?$pair@$$CBKUPARAMINFO@CHostConnect@@@_STL@@@2@U?$less@K@2@V?$allocator@U?$pair@$$CBKUPARAMINFO@CHostConnect@@@_STL@@@2@@_STL@@AAE?AU?$_Rb_tree_iterator@U?$pair@$$CBKUPARAMINFO@CHostConnect@@@_STL@@U?$_Nonconst_traits@U?$pair@$$CBKUPARAMINFO@CHostConnect@@@_STL@@@2@@2@PAU_Rb_tree_node_base@2@0ABU?$pair@$$CBKUPARAMINFO@CHostConnect@@@2@0@Z 00420330 f i HostConnect.obj
 0001:0001f3d0       ?insert_unique@?$_Rb_tree@KU?$pair@$$CBKUPARAMINFO@CHostConnect@@@_STL@@U?$_Select1st@U?$pair@$$CBKUPARAMINFO@CHostConnect@@@_STL@@@2@U?$less@K@2@V?$allocator@U?$pair@$$CBKUPARAMINFO@CHostConnect@@@_STL@@@2@@_STL@@QAE?AU?$pair@U?$_Rb_tree_iterator@U?$pair@$$CBKUPARAMINFO@CHostConnect@@@_STL@@U?$_Nonconst_traits@U?$pair@$$CBKUPARAMINFO@CHostConnect@@@_STL@@@2@@_STL@@_N@2@ABU?$pair@$$CBKUPARAMINFO@CHostConnect@@@2@@Z 004203d0 f i HostConnect.obj
 0001:0001f540       ?__default_constructed_aux@_STL@@YA?AUACCINFO@CHostConnect@@PAU23@ABU__false_type@1@@Z 00420540 f i HostConnect.obj
 0001:0001f5a0       ?_M_find@?$_Rb_tree@V?$basic_string@DV?$char_traits@D@_STL@@V?$allocator@D@2@@_STL@@U?$pair@$$CBV?$basic_string@DV?$char_traits@D@_STL@@V?$allocator@D@2@@_STL@@UACCINFO@CHostConnect@@@2@U?$_Select1st@U?$pair@$$CBV?$basic_string@DV?$char_traits@D@_STL@@V?$allocator@D@2@@_STL@@UACCINFO@CHostConnect@@@_STL@@@2@U_tstring_iless@@V?$allocator@U?$pair@$$CBV?$basic_string@DV?$char_traits@D@_STL@@V?$allocator@D@2@@_STL@@UACCINFO@CHostConnect@@@_STL@@@2@@_STL@@ABEPAU?$_Rb_tree_node@U?$pair@$$CBV?$basic_string@DV?$char_traits@D@_STL@@V?$allocator@D@2@@_STL@@UACCINFO@CHostConnect@@@_STL@@@2@ABV?$basic_string@DV?$char_traits@D@_STL@@V?$allocator@D@2@@2@@Z 004205a0 f i HostConnect.obj
 0001:0001f640       ?__default_constructed_aux@_STL@@YA?AUROLEINFO@CHostConnect@@PAU23@ABU__false_type@1@@Z 00420640 f i HostConnect.obj
 0001:0001f6a0       ?_M_find@?$_Rb_tree@V?$basic_string@DV?$char_traits@D@_STL@@V?$allocator@D@2@@_STL@@U?$pair@$$CBV?$basic_string@DV?$char_traits@D@_STL@@V?$allocator@D@2@@_STL@@UROLEINFO@CHostConnect@@@2@U?$_Select1st@U?$pair@$$CBV?$basic_string@DV?$char_traits@D@_STL@@V?$allocator@D@2@@_STL@@UROLEINFO@CHostConnect@@@_STL@@@2@U_tstring_less@@V?$allocator@U?$pair@$$CBV?$basic_string@DV?$char_traits@D@_STL@@V?$allocator@D@2@@_STL@@UROLEINFO@CHostConnect@@@_STL@@@2@@_STL@@ABEPAU?$_Rb_tree_node@U?$pair@$$CBV?$basic_string@DV?$char_traits@D@_STL@@V?$allocator@D@2@@_STL@@UROLEINFO@CHostConnect@@@_STL@@@2@ABV?$basic_string@DV?$char_traits@D@_STL@@V?$allocator@D@2@@2@@Z 004206a0 f i HostConnect.obj
 0001:0001f740       ?__default_constructed_aux@_STL@@YA?AUPARAMINFO@CHostConnect@@PAU23@ABU__false_type@1@@Z 00420740 f i HostConnect.obj
 0001:0001f7d0       ?_M_find@?$_Rb_tree@KU?$pair@$$CBKUPARAMINFO@CHostConnect@@@_STL@@U?$_Select1st@U?$pair@$$CBKUPARAMINFO@CHostConnect@@@_STL@@@2@U?$less@K@2@V?$allocator@U?$pair@$$CBKUPARAMINFO@CHostConnect@@@_STL@@@2@@_STL@@ABEPAU?$_Rb_tree_node@U?$pair@$$CBKUPARAMINFO@CHostConnect@@@_STL@@@2@ABK@Z 004207d0 f i HostConnect.obj
 0001:0001f810       ?__distance@_STL@@YAHABU?$_Rb_tree_iterator@U?$pair@$$CBV?$basic_string@DV?$char_traits@D@_STL@@V?$allocator@D@2@@_STL@@UROLEINFO@CHostConnect@@@_STL@@U?$_Nonconst_traits@U?$pair@$$CBV?$basic_string@DV?$char_traits@D@_STL@@V?$allocator@D@2@@_STL@@UROLEINFO@CHostConnect@@@_STL@@@2@@1@0ABUinput_iterator_tag@1@@Z 00420810 f i HostConnect.obj
 0001:0001f840       ?__distance@_STL@@YAHABU?$_Rb_tree_iterator@U?$pair@$$CBKUPARAMINFO@CHostConnect@@@_STL@@U?$_Nonconst_traits@U?$pair@$$CBKUPARAMINFO@CHostConnect@@@_STL@@@2@@1@0ABUinput_iterator_tag@1@@Z 00420840 f i HostConnect.obj
 0001:0001f870       ?_M_create_node@?$_Rb_tree@V?$basic_string@DV?$char_traits@D@_STL@@V?$allocator@D@2@@_STL@@U?$pair@$$CBV?$basic_string@DV?$char_traits@D@_STL@@V?$allocator@D@2@@_STL@@UACCINFO@CHostConnect@@@2@U?$_Select1st@U?$pair@$$CBV?$basic_string@DV?$char_traits@D@_STL@@V?$allocator@D@2@@_STL@@UACCINFO@CHostConnect@@@_STL@@@2@U_tstring_iless@@V?$allocator@U?$pair@$$CBV?$basic_string@DV?$char_traits@D@_STL@@V?$allocator@D@2@@_STL@@UACCINFO@CHostConnect@@@_STL@@@2@@_STL@@IAEPAU?$_Rb_tree_node@U?$pair@$$CBV?$basic_string@DV?$char_traits@D@_STL@@V?$allocator@D@2@@_STL@@UACCINFO@CHostConnect@@@_STL@@@2@ABU?$pair@$$CBV?$basic_string@DV?$char_traits@D@_STL@@V?$allocator@D@2@@_STL@@UACCINFO@CHostConnect@@@2@@Z 00420870 f i HostConnect.obj
 0001:0001f940       ?begin@?$_Rb_tree@V?$basic_string@DV?$char_traits@D@_STL@@V?$allocator@D@2@@_STL@@U?$pair@$$CBV?$basic_string@DV?$char_traits@D@_STL@@V?$allocator@D@2@@_STL@@UACCINFO@CHostConnect@@@2@U?$_Select1st@U?$pair@$$CBV?$basic_string@DV?$char_traits@D@_STL@@V?$allocator@D@2@@_STL@@UACCINFO@CHostConnect@@@_STL@@@2@U_tstring_iless@@V?$allocator@U?$pair@$$CBV?$basic_string@DV?$char_traits@D@_STL@@V?$allocator@D@2@@_STL@@UACCINFO@CHostConnect@@@_STL@@@2@@_STL@@QAE?AU?$_Rb_tree_iterator@U?$pair@$$CBV?$basic_string@DV?$char_traits@D@_STL@@V?$allocator@D@2@@_STL@@UACCINFO@CHostConnect@@@_STL@@U?$_Nonconst_traits@U?$pair@$$CBV?$basic_string@DV?$char_traits@D@_STL@@V?$allocator@D@2@@_STL@@UACCINFO@CHostConnect@@@_STL@@@2@@2@XZ 00420940 f i HostConnect.obj
 0001:0001f950       ?_M_create_node@?$_Rb_tree@V?$basic_string@DV?$char_traits@D@_STL@@V?$allocator@D@2@@_STL@@U?$pair@$$CBV?$basic_string@DV?$char_traits@D@_STL@@V?$allocator@D@2@@_STL@@UROLEINFO@CHostConnect@@@2@U?$_Select1st@U?$pair@$$CBV?$basic_string@DV?$char_traits@D@_STL@@V?$allocator@D@2@@_STL@@UROLEINFO@CHostConnect@@@_STL@@@2@U_tstring_less@@V?$allocator@U?$pair@$$CBV?$basic_string@DV?$char_traits@D@_STL@@V?$allocator@D@2@@_STL@@UROLEINFO@CHostConnect@@@_STL@@@2@@_STL@@IAEPAU?$_Rb_tree_node@U?$pair@$$CBV?$basic_string@DV?$char_traits@D@_STL@@V?$allocator@D@2@@_STL@@UROLEINFO@CHostConnect@@@_STL@@@2@ABU?$pair@$$CBV?$basic_string@DV?$char_traits@D@_STL@@V?$allocator@D@2@@_STL@@UROLEINFO@CHostConnect@@@2@@Z 00420950 f i HostConnect.obj
 0001:0001fa20       ?_M_create_node@?$_Rb_tree@KU?$pair@$$CBKUPARAMINFO@CHostConnect@@@_STL@@U?$_Select1st@U?$pair@$$CBKUPARAMINFO@CHostConnect@@@_STL@@@2@U?$less@K@2@V?$allocator@U?$pair@$$CBKUPARAMINFO@CHostConnect@@@_STL@@@2@@_STL@@IAEPAU?$_Rb_tree_node@U?$pair@$$CBKUPARAMINFO@CHostConnect@@@_STL@@@2@ABU?$pair@$$CBKUPARAMINFO@CHostConnect@@@2@@Z 00420a20 f i HostConnect.obj
 0001:0001fb10       ??0?$pair@U?$_Rb_tree_iterator@U?$pair@$$CBV?$basic_string@DV?$char_traits@D@_STL@@V?$allocator@D@2@@_STL@@UACCINFO@CHostConnect@@@_STL@@U?$_Nonconst_traits@U?$pair@$$CBV?$basic_string@DV?$char_traits@D@_STL@@V?$allocator@D@2@@_STL@@UACCINFO@CHostConnect@@@_STL@@@2@@_STL@@_N@_STL@@QAE@ABU?$_Rb_tree_iterator@U?$pair@$$CBV?$basic_string@DV?$char_traits@D@_STL@@V?$allocator@D@2@@_STL@@UACCINFO@CHostConnect@@@_STL@@U?$_Nonconst_traits@U?$pair@$$CBV?$basic_string@DV?$char_traits@D@_STL@@V?$allocator@D@2@@_STL@@UACCINFO@CHostConnect@@@_STL@@@2@@1@AB_N@Z 00420b10 f i HostConnect.obj
 0001:0001fb30       ??0?$pair@U?$_Rb_tree_iterator@U?$pair@$$CBV?$basic_string@DV?$char_traits@D@_STL@@V?$allocator@D@2@@_STL@@UROLEINFO@CHostConnect@@@_STL@@U?$_Nonconst_traits@U?$pair@$$CBV?$basic_string@DV?$char_traits@D@_STL@@V?$allocator@D@2@@_STL@@UROLEINFO@CHostConnect@@@_STL@@@2@@_STL@@_N@_STL@@QAE@ABU?$_Rb_tree_iterator@U?$pair@$$CBV?$basic_string@DV?$char_traits@D@_STL@@V?$allocator@D@2@@_STL@@UROLEINFO@CHostConnect@@@_STL@@U?$_Nonconst_traits@U?$pair@$$CBV?$basic_string@DV?$char_traits@D@_STL@@V?$allocator@D@2@@_STL@@UROLEINFO@CHostConnect@@@_STL@@@2@@1@AB_N@Z 00420b30 f i HostConnect.obj
 0001:0001fb50       ??0?$pair@U?$_Rb_tree_iterator@U?$pair@$$CBKUPARAMINFO@CHostConnect@@@_STL@@U?$_Nonconst_traits@U?$pair@$$CBKUPARAMINFO@CHostConnect@@@_STL@@@2@@_STL@@_N@_STL@@QAE@ABU?$_Rb_tree_iterator@U?$pair@$$CBKUPARAMINFO@CHostConnect@@@_STL@@U?$_Nonconst_traits@U?$pair@$$CBKUPARAMINFO@CHostConnect@@@_STL@@@2@@1@AB_N@Z 00420b50 f i HostConnect.obj
 0001:0001fb70       ??0CHostServer@@QAE@XZ     00420b70 f   HostServer.obj
 0001:0001fc10       ??_GCHostServer@@UAEPAXI@Z 00420c10 f i HostServer.obj
 0001:0001fc10       ??_ECHostServer@@UAEPAXI@Z 00420c10 f i HostServer.obj
 0001:0001fc30       ??1?$map@KPAVCHostConnect@@U?$less@K@_STL@@V?$allocator@U?$pair@$$CBKPAVCHostConnect@@@_STL@@@3@@_STL@@QAE@XZ 00420c30 f i HostServer.obj
 0001:0001fcd0       ??1CHostServer@@UAE@XZ     00420cd0 f   HostServer.obj
 0001:0001fda0       ?CreateConnect@CHostServer@@MAEPAVCNetConnect@@PAVCNetServer@@K@Z 00420da0 f   HostServer.obj
 0001:0001fe10       ?DestroyConnect@CHostServer@@MAEXPAVCNetConnect@@@Z 00420e10 f   HostServer.obj
 0001:0001fe30       ?OnBuildup@CHostServer@@MAEXXZ 00420e30 f   HostServer.obj
 0001:0001fe90       ?OnClearup@CHostServer@@MAEXXZ 00420e90 f   HostServer.obj
 0001:0001ff40       ?OnClientConnectCreate@CHostServer@@MAEXPAVCNetConnect@@@Z 00420f40 f   HostServer.obj
 0001:00020000       ?OnClientConnectClose@CHostServer@@MAEXPAVCNetConnect@@@Z 00421000 f   HostServer.obj
 0001:000200d0       ?FindHostConnectByIP@CHostServer@@QAE?AVCNetConnectDup@@K@Z 004210d0 f   HostServer.obj
 0001:000201a0       ?FindPlayerByAcc@CHostServer@@QAEHPAVCHostConnect@@ABV?$basic_string@DV?$char_traits@D@_STL@@V?$allocator@D@2@@_STL@@PAVCNetConnectDup@@PAV34@PAK43@Z 004211a0 f   HostServer.obj
 0001:00020270       ?FindPlayerByRole@CHostServer@@QAEHPAVCHostConnect@@ABV?$basic_string@DV?$char_traits@D@_STL@@V?$allocator@D@2@@_STL@@PAVCNetConnectDup@@PAV34@PAK43@Z 00421270 f   HostServer.obj
 0001:00020340       ?FindPlayerByIpParam@CHostServer@@QAEHPAVCHostConnect@@KKPAVCNetConnectDup@@PAV?$basic_string@DV?$char_traits@D@_STL@@V?$allocator@D@2@@_STL@@2PAK@Z 00421340 f   HostServer.obj
 0001:00020420       ?GetPlayerCount@CHostServer@@QAEIXZ 00421420 f   HostServer.obj
 0001:000204a0       ?TraceInfo@CHostServer@@QAEHXZ 004214a0 f   HostServer.obj
 0001:00020670       ?TracePlayer@CHostServer@@QAEHXZ 00421670 f   HostServer.obj
 0001:00020870       ?insert@?$map@KPAVCHostConnect@@U?$less@K@_STL@@V?$allocator@U?$pair@$$CBKPAVCHostConnect@@@_STL@@@3@@_STL@@QAE?AU?$_Rb_tree_iterator@U?$pair@$$CBKPAVCHostConnect@@@_STL@@U?$_Nonconst_traits@U?$pair@$$CBKPAVCHostConnect@@@_STL@@@2@@2@U32@ABU?$pair@$$CBKPAVCHostConnect@@@2@@Z 00421870 f i HostServer.obj
 0001:000208a0       ??1?$_Rb_tree_base@U?$pair@$$CBKPAVCHostConnect@@@_STL@@V?$allocator@U?$pair@$$CBKPAVCHostConnect@@@_STL@@@2@@_STL@@QAE@XZ 004218a0 f i HostServer.obj
 0001:000208f0       ??1?$allocator@U?$pair@$$CBKPAVCHostConnect@@@_STL@@@_STL@@QAE@XZ 004218f0 f i HostServer.obj
 0001:00020900       ??0?$_Rb_tree_iterator@U?$pair@$$CBKPAVCHostConnect@@@_STL@@U?$_Nonconst_traits@U?$pair@$$CBKPAVCHostConnect@@@_STL@@@2@@_STL@@QAE@ABU01@@Z 00421900 f i HostServer.obj
 0001:00020910       ??1?$_STLP_alloc_proxy@PAU?$_Rb_tree_node@U?$pair@$$CBKPAVCHostConnect@@@_STL@@@_STL@@U12@V?$allocator@U?$pair@$$CBKPAVCHostConnect@@@_STL@@@2@@_STL@@QAE@XZ 00421910 f i HostServer.obj
 0001:00020920       ?erase@?$_Rb_tree@KU?$pair@$$CBKPAVCHostConnect@@@_STL@@U?$_Select1st@U?$pair@$$CBKPAVCHostConnect@@@_STL@@@2@U?$less@K@2@V?$allocator@U?$pair@$$CBKPAVCHostConnect@@@_STL@@@2@@_STL@@QAEXU?$_Rb_tree_iterator@U?$pair@$$CBKPAVCHostConnect@@@_STL@@U?$_Nonconst_traits@U?$pair@$$CBKPAVCHostConnect@@@_STL@@@2@@2@0@Z 00421920 f i HostServer.obj
 0001:000209b0       ?lower_bound@?$_Rb_tree@KU?$pair@$$CBKPAVCHostConnect@@@_STL@@U?$_Select1st@U?$pair@$$CBKPAVCHostConnect@@@_STL@@@2@U?$less@K@2@V?$allocator@U?$pair@$$CBKPAVCHostConnect@@@_STL@@@2@@_STL@@QAE?AU?$_Rb_tree_iterator@U?$pair@$$CBKPAVCHostConnect@@@_STL@@U?$_Nonconst_traits@U?$pair@$$CBKPAVCHostConnect@@@_STL@@@2@@2@ABK@Z 004219b0 f i HostServer.obj
 0001:000209f0       ?erase@?$_Rb_tree@KU?$pair@$$CBKPAVCHostConnect@@@_STL@@U?$_Select1st@U?$pair@$$CBKPAVCHostConnect@@@_STL@@@2@U?$less@K@2@V?$allocator@U?$pair@$$CBKPAVCHostConnect@@@_STL@@@2@@_STL@@QAEXU?$_Rb_tree_iterator@U?$pair@$$CBKPAVCHostConnect@@@_STL@@U?$_Nonconst_traits@U?$pair@$$CBKPAVCHostConnect@@@_STL@@@2@@2@@Z 004219f0 f i HostServer.obj
 0001:00020a30       ??0?$pair@U?$_Rb_tree_iterator@U?$pair@$$CBKPAVCHostConnect@@@_STL@@U?$_Nonconst_traits@U?$pair@$$CBKPAVCHostConnect@@@_STL@@@2@@_STL@@U12@@_STL@@QAE@ABU?$_Rb_tree_iterator@U?$pair@$$CBKPAVCHostConnect@@@_STL@@U?$_Nonconst_traits@U?$pair@$$CBKPAVCHostConnect@@@_STL@@@2@@1@0@Z 00421a30 f i HostServer.obj
 0001:00020a50       ?deallocate@?$allocator@U?$_Rb_tree_node@U?$pair@$$CBKPAVCHostConnect@@@_STL@@@_STL@@@_STL@@QBEXPAU?$_Rb_tree_node@U?$pair@$$CBKPAVCHostConnect@@@_STL@@@2@I@Z 00421a50 f i HostServer.obj
 0001:00020a90       ?_M_upper_bound@?$_Rb_tree@KU?$pair@$$CBKPAVCHostConnect@@@_STL@@U?$_Select1st@U?$pair@$$CBKPAVCHostConnect@@@_STL@@@2@U?$less@K@2@V?$allocator@U?$pair@$$CBKPAVCHostConnect@@@_STL@@@2@@_STL@@ABEPAU?$_Rb_tree_node@U?$pair@$$CBKPAVCHostConnect@@@_STL@@@2@ABK@Z 00421a90 f i HostServer.obj
 0001:00020ac0       ?_M_erase@?$_Rb_tree@KU?$pair@$$CBKPAVCHostConnect@@@_STL@@U?$_Select1st@U?$pair@$$CBKPAVCHostConnect@@@_STL@@@2@U?$less@K@2@V?$allocator@U?$pair@$$CBKPAVCHostConnect@@@_STL@@@2@@_STL@@AAEXPAU?$_Rb_tree_node@U?$pair@$$CBKPAVCHostConnect@@@_STL@@@2@@Z 00421ac0 f i HostServer.obj
 0001:00020b00       ?insert_unique@?$_Rb_tree@KU?$pair@$$CBKPAVCHostConnect@@@_STL@@U?$_Select1st@U?$pair@$$CBKPAVCHostConnect@@@_STL@@@2@U?$less@K@2@V?$allocator@U?$pair@$$CBKPAVCHostConnect@@@_STL@@@2@@_STL@@QAE?AU?$_Rb_tree_iterator@U?$pair@$$CBKPAVCHostConnect@@@_STL@@U?$_Nonconst_traits@U?$pair@$$CBKPAVCHostConnect@@@_STL@@@2@@2@U32@ABU?$pair@$$CBKPAVCHostConnect@@@2@@Z 00421b00 f i HostServer.obj
 0001:00020fe0       ?begin@?$_Rb_tree@KU?$pair@$$CBKPAVCHostConnect@@@_STL@@U?$_Select1st@U?$pair@$$CBKPAVCHostConnect@@@_STL@@@2@U?$less@K@2@V?$allocator@U?$pair@$$CBKPAVCHostConnect@@@_STL@@@2@@_STL@@QAE?AU?$_Rb_tree_iterator@U?$pair@$$CBKPAVCHostConnect@@@_STL@@U?$_Nonconst_traits@U?$pair@$$CBKPAVCHostConnect@@@_STL@@@2@@2@XZ 00421fe0 f i HostServer.obj
 0001:00020ff0       ?_M_insert@?$_Rb_tree@KU?$pair@$$CBKPAVCHostConnect@@@_STL@@U?$_Select1st@U?$pair@$$CBKPAVCHostConnect@@@_STL@@@2@U?$less@K@2@V?$allocator@U?$pair@$$CBKPAVCHostConnect@@@_STL@@@2@@_STL@@AAE?AU?$_Rb_tree_iterator@U?$pair@$$CBKPAVCHostConnect@@@_STL@@U?$_Nonconst_traits@U?$pair@$$CBKPAVCHostConnect@@@_STL@@@2@@2@PAU_Rb_tree_node_base@2@0ABU?$pair@$$CBKPAVCHostConnect@@@2@0@Z 00421ff0 f i HostServer.obj
 0001:00021090       ?insert_unique@?$_Rb_tree@KU?$pair@$$CBKPAVCHostConnect@@@_STL@@U?$_Select1st@U?$pair@$$CBKPAVCHostConnect@@@_STL@@@2@U?$less@K@2@V?$allocator@U?$pair@$$CBKPAVCHostConnect@@@_STL@@@2@@_STL@@QAE?AU?$pair@U?$_Rb_tree_iterator@U?$pair@$$CBKPAVCHostConnect@@@_STL@@U?$_Nonconst_traits@U?$pair@$$CBKPAVCHostConnect@@@_STL@@@2@@_STL@@_N@2@ABU?$pair@$$CBKPAVCHostConnect@@@2@@Z 00422090 f i HostServer.obj
 0001:00021200       ?_M_find@?$_Rb_tree@KU?$pair@$$CBKPAVCHostConnect@@@_STL@@U?$_Select1st@U?$pair@$$CBKPAVCHostConnect@@@_STL@@@2@U?$less@K@2@V?$allocator@U?$pair@$$CBKPAVCHostConnect@@@_STL@@@2@@_STL@@ABEPAU?$_Rb_tree_node@U?$pair@$$CBKPAVCHostConnect@@@_STL@@@2@ABK@Z 00422200 f i HostServer.obj
 0001:00021240       ?_M_create_node@?$_Rb_tree@KU?$pair@$$CBKPAVCHostConnect@@@_STL@@U?$_Select1st@U?$pair@$$CBKPAVCHostConnect@@@_STL@@@2@U?$less@K@2@V?$allocator@U?$pair@$$CBKPAVCHostConnect@@@_STL@@@2@@_STL@@IAEPAU?$_Rb_tree_node@U?$pair@$$CBKPAVCHostConnect@@@_STL@@@2@ABU?$pair@$$CBKPAVCHostConnect@@@2@@Z 00422240 f i HostServer.obj
 0001:00021270       ??0?$pair@U?$_Rb_tree_iterator@U?$pair@$$CBKPAVCHostConnect@@@_STL@@U?$_Nonconst_traits@U?$pair@$$CBKPAVCHostConnect@@@_STL@@@2@@_STL@@_N@_STL@@QAE@ABU?$_Rb_tree_iterator@U?$pair@$$CBKPAVCHostConnect@@@_STL@@U?$_Nonconst_traits@U?$pair@$$CBKPAVCHostConnect@@@_STL@@@2@@1@AB_N@Z 00422270 f i HostServer.obj
 0001:00021290       ??0KThread@@QAE@XZ         00422290 f   KThread.obj
 0001:000212b0       ??_EKThread@@UAEPAXI@Z     004222b0 f i KThread.obj
 0001:000212b0       ??_GKThread@@UAEPAXI@Z     004222b0 f i KThread.obj
 0001:000212d0       ??1KThread@@UAE@XZ         004222d0 f   KThread.obj
 0001:000212e0       ?Start@KThread@@UAEPAXXZ   004222e0 f   KThread.obj
 0001:00021330       ?Stop@KThread@@UAEHXZ      00422330 f   KThread.obj
 0001:000213c0       ?IsAskingStop@KThread@@UAEHXZ 004223c0 f   KThread.obj
 0001:000213e0       ?ThreadFun@KThread@@SGIPAX@Z 004223e0 f   KThread.obj
 0001:00021490       ??0CLockSRSW@@QAE@XZ       00422490 f   Lock.obj
 0001:000214b0       ??_GCLockSRSW@@UAEPAXI@Z   004224b0 f i Lock.obj
 0001:000214b0       ??_ECLockSRSW@@UAEPAXI@Z   004224b0 f i Lock.obj
 0001:000214d0       ??1CLockSRSW@@UAE@XZ       004224d0 f   Lock.obj
 0001:000214f0       ?EnterRead@CLockSRSW@@UAEXXZ 004224f0 f   Lock.obj
 0001:00021500       ?LeaveRead@CLockSRSW@@UAEXXZ 00422500 f   Lock.obj
 0001:00021510       ?EnterWrite@CLockSRSW@@UAEXXZ 00422510 f   Lock.obj
 0001:00021520       ?LeaveWrite@CLockSRSW@@UAEXXZ 00422520 f   Lock.obj
 0001:00021530       ??0CLockMRSW@@QAE@XZ       00422530 f   Lock.obj
 0001:00021570       ??_GCLockMRSW@@UAEPAXI@Z   00422570 f i Lock.obj
 0001:00021570       ??_ECLockMRSW@@UAEPAXI@Z   00422570 f i Lock.obj
 0001:00021590       ??1CLockMRSW@@UAE@XZ       00422590 f   Lock.obj
 0001:000215c0       ?EnterRead@CLockMRSW@@UAEXXZ 004225c0 f   Lock.obj
 0001:00021600       ?LeaveRead@CLockMRSW@@UAEXXZ 00422600 f   Lock.obj
 0001:00021630       ?EnterWrite@CLockMRSW@@UAEXXZ 00422630 f   Lock.obj
 0001:00021650       ?LeaveWrite@CLockMRSW@@UAEXXZ 00422650 f   Lock.obj
 0001:00021660       ??_GALock@@MAEPAXI@Z       00422660 f i Lock.obj
 0001:00021660       ??_EALock@@MAEPAXI@Z       00422660 f i Lock.obj
 0001:00021680       ??0CLogFile@@QAE@XZ        00422680 f   LogFile.obj
 0001:000216f0       ??_ECLogFile@@UAEPAXI@Z    004226f0 f i LogFile.obj
 0001:000216f0       ??_GCLogFile@@UAEPAXI@Z    004226f0 f i LogFile.obj
 0001:00021710       ??1CLogFile@@UAE@XZ        00422710 f   LogFile.obj
 0001:00021780       ?Initialize@CLogFile@@QAEHABV?$basic_string@DV?$char_traits@D@_STL@@V?$allocator@D@2@@_STL@@I@Z 00422780 f   LogFile.obj
 0001:00021970       ?Uninitialize@CLogFile@@QAEHXZ 00422970 f   LogFile.obj
 0001:000219c0       ?TraceLog@CLogFile@@QAEIPBXI@Z 004229c0 f   LogFile.obj
 0001:00021a20       ?PrepareFile@CLogFile@@AAEHXZ 00422a20 f   LogFile.obj
 0001:00021cb0       ?BeginBatch@CLogFile@@QAEKXZ 00422cb0 f   LogFile.obj
 0001:00021ce0       ?EndBatch@CLogFile@@QAEKXZ 00422ce0 f   LogFile.obj
 0001:00021d00       ?IsBatched@CLogFile@@QAEHXZ 00422d00 f   LogFile.obj
 0001:00021d10       ?OpenUniDirectory@CLogFile@@CAHABV?$basic_string@DV?$char_traits@D@_STL@@V?$allocator@D@2@@_STL@@PAV23@@Z 00422d10 f   LogFile.obj
 0001:00021f40       ?CreateUniFile@CLogFile@@CAPAXABV?$basic_string@DV?$char_traits@D@_STL@@V?$allocator@D@2@@_STL@@PAV23@@Z 00422f40 f   LogFile.obj
 0001:00022150       ??0CMemory@@QAE@XZ         00423150 f   Memory.obj
 0001:00022160       ??_GCMemory@@UAEPAXI@Z     00423160 f i Memory.obj
 0001:00022160       ??_ECMemory@@UAEPAXI@Z     00423160 f i Memory.obj
 0001:00022180       ??1CMemory@@UAE@XZ         00423180 f   Memory.obj
 0001:00022190       ?Initialize@CMemory@@QAEHXZ 00423190 f   Memory.obj
 0001:000221a0       ?Uninitialize@CMemory@@QAEHXZ 004231a0 f   Memory.obj
 0001:000221b0       ?Alloc@CMemory@@QAEPAXI@Z  004231b0 f   Memory.obj
 0001:000221d0       ?Reuse@CMemory@@QAEXPAX@Z  004231d0 f   Memory.obj
 0001:000221e0       ?Free@CMemory@@QAEXPAX@Z   004231e0 f   Memory.obj
 0001:00022200       ?Size@CMemory@@QAEIPAX@Z   00423200 f   Memory.obj
 0001:00022220       ??0CNetCenter@@QAE@XZ      00423220 f   NetCenter.obj
 0001:000222c0       ??_GCNetCenter@@UAEPAXI@Z  004232c0 f i NetCenter.obj
 0001:000222c0       ??_ECNetCenter@@UAEPAXI@Z  004232c0 f i NetCenter.obj
 0001:000222e0       ??1?$set@PAVCNetClient@@U?$less@PAVCNetClient@@@_STL@@V?$allocator@PAVCNetClient@@@3@@_STL@@QAE@XZ 004232e0 f i NetCenter.obj
 0001:00022380       ??1CNetCenter@@UAE@XZ      00423380 f   NetCenter.obj
 0001:00022450       ?Initialize@CNetCenter@@QAEHXZ 00423450 f   NetCenter.obj
 0001:000224b0       ?Uninitialize@CNetCenter@@QAEHXZ 004234b0 f   NetCenter.obj
 0001:00022590       ?_NotifyServerEventCreate@CNetCenter@@QAEXPAVCNetClient@@@Z 00423590 f   NetCenter.obj
 0001:000226b0       ?_NotifyServerEventClose@CNetCenter@@QAEXPAVCNetClient@@@Z 004236b0 f   NetCenter.obj
 0001:00022780       ?GetClientCount@CNetCenter@@QAEIXZ 00423780 f   NetCenter.obj
 0001:000227a0       ?BroadPackage@CNetCenter@@QAEHPBXI@Z 004237a0 f   NetCenter.obj
 0001:00022830       ?Route@CNetCenter@@QAEHXZ  00423830 f   NetCenter.obj
 0001:000228b0       ??1?$_Rb_tree_base@PAVCNetClient@@V?$allocator@PAVCNetClient@@@_STL@@@_STL@@QAE@XZ 004238b0 f i NetCenter.obj
 0001:00022900       ??1?$allocator@PAVCNetClient@@@_STL@@QAE@XZ 00423900 f i NetCenter.obj
 0001:00022910       ??1?$_STLP_alloc_proxy@PAU?$_Rb_tree_node@PAVCNetClient@@@_STL@@U12@V?$allocator@PAVCNetClient@@@2@@_STL@@QAE@XZ 00423910 f i NetCenter.obj
 0001:00022920       ?erase@?$_Rb_tree@PAVCNetClient@@PAV1@U?$_Identity@PAVCNetClient@@@_STL@@U?$less@PAVCNetClient@@@3@V?$allocator@PAVCNetClient@@@3@@_STL@@QAEXU?$_Rb_tree_iterator@PAVCNetClient@@U?$_Nonconst_traits@PAVCNetClient@@@_STL@@@2@0@Z 00423920 f i NetCenter.obj
 0001:000229b0       ??0?$_Rb_tree_iterator@PAVCNetClient@@U?$_Nonconst_traits@PAVCNetClient@@@_STL@@@_STL@@QAE@ABU01@@Z 004239b0 f i NetCenter.obj
 0001:000229c0       ?erase@?$_Rb_tree@PAVCNetClient@@PAV1@U?$_Identity@PAVCNetClient@@@_STL@@U?$less@PAVCNetClient@@@3@V?$allocator@PAVCNetClient@@@3@@_STL@@QAEXU?$_Rb_tree_iterator@PAVCNetClient@@U?$_Nonconst_traits@PAVCNetClient@@@_STL@@@2@@Z 004239c0 f i NetCenter.obj
 0001:00022a00       ?lower_bound@?$_Rb_tree@PAVCNetClient@@PAV1@U?$_Identity@PAVCNetClient@@@_STL@@U?$less@PAVCNetClient@@@3@V?$allocator@PAVCNetClient@@@3@@_STL@@QAE?AU?$_Rb_tree_iterator@PAVCNetClient@@U?$_Nonconst_traits@PAVCNetClient@@@_STL@@@2@ABQAVCNetClient@@@Z 00423a00 f i NetCenter.obj
 0001:00022a40       ??0?$pair@U?$_Rb_tree_iterator@PAVCNetClient@@U?$_Nonconst_traits@PAVCNetClient@@@_STL@@@_STL@@U12@@_STL@@QAE@ABU?$_Rb_tree_iterator@PAVCNetClient@@U?$_Nonconst_traits@PAVCNetClient@@@_STL@@@1@0@Z 00423a40 f i NetCenter.obj
 0001:00022a60       ?deallocate@?$allocator@U?$_Rb_tree_node@PAVCNetClient@@@_STL@@@_STL@@QBEXPAU?$_Rb_tree_node@PAVCNetClient@@@2@I@Z 00423a60 f i NetCenter.obj
 0001:00022aa0       ?_M_upper_bound@?$_Rb_tree@PAVCNetClient@@PAV1@U?$_Identity@PAVCNetClient@@@_STL@@U?$less@PAVCNetClient@@@3@V?$allocator@PAVCNetClient@@@3@@_STL@@ABEPAU?$_Rb_tree_node@PAVCNetClient@@@2@ABQAVCNetClient@@@Z 00423aa0 f i NetCenter.obj
 0001:00022ad0       ?_M_erase@?$_Rb_tree@PAVCNetClient@@PAV1@U?$_Identity@PAVCNetClient@@@_STL@@U?$less@PAVCNetClient@@@3@V?$allocator@PAVCNetClient@@@3@@_STL@@AAEXPAU?$_Rb_tree_node@PAVCNetClient@@@2@@Z 00423ad0 f i NetCenter.obj
 0001:00022b10       ??0?$pair@U?$_Rb_tree_iterator@PAVCNetClient@@U?$_Nonconst_traits@PAVCNetClient@@@_STL@@@_STL@@_N@_STL@@QAE@ABU?$_Rb_tree_iterator@PAVCNetClient@@U?$_Nonconst_traits@PAVCNetClient@@@_STL@@@1@AB_N@Z 00423b10 f i NetCenter.obj
 0001:00022b30       ?_M_insert@?$_Rb_tree@PAVCNetClient@@PAV1@U?$_Identity@PAVCNetClient@@@_STL@@U?$less@PAVCNetClient@@@3@V?$allocator@PAVCNetClient@@@3@@_STL@@AAE?AU?$_Rb_tree_iterator@PAVCNetClient@@U?$_Nonconst_traits@PAVCNetClient@@@_STL@@@2@PAU_Rb_tree_node_base@2@0ABQAVCNetClient@@0@Z 00423b30 f i NetCenter.obj
 0001:00022bd0       ?_M_create_node@?$_Rb_tree@PAVCNetClient@@PAV1@U?$_Identity@PAVCNetClient@@@_STL@@U?$less@PAVCNetClient@@@3@V?$allocator@PAVCNetClient@@@3@@_STL@@IAEPAU?$_Rb_tree_node@PAVCNetClient@@@2@ABQAVCNetClient@@@Z 00423bd0 f i NetCenter.obj
 0001:00022bf0       ??0CNetClientDup@@QAE@ABVCNetClient@@@Z 00423bf0 f   NetClient.obj
 0001:00022c30       ?SendPackage@CNetClientDup@@QBEHPBXI@Z 00423c30 f   NetClient.obj
 0001:00022c70       ??4CNetClientDup@@QAEAAV0@ABVCNetClient@@@Z 00423c70 f   NetClient.obj
 0001:00022cc0       ??0CNetClient@@QAE@PAVCNetCenter@@H@Z 00423cc0 f   NetClient.obj
 0001:00022d60       ?RecvPackage@CNetClient@@MAEXPBXI@Z 00423d60 f i NetClient.obj
 0001:00022d70       ?OnServerEventCreate@CNetClient@@MAEXXZ 00423d70 f i NetClient.obj
 0001:00022d80       ?OnServerEventClose@CNetClient@@MAEXXZ 00423d80 f i NetClient.obj
 0001:00022d90       ??_GCNetClient@@UAEPAXI@Z  00423d90 f i NetClient.obj
 0001:00022d90       ??_ECNetClient@@UAEPAXI@Z  00423d90 f i NetClient.obj
 0001:00022db0       ??1CNetClient@@UAE@XZ      00423db0 f   NetClient.obj
 0001:00022e30       ?DirectClearup@CNetClient@@AAEXXZ 00423e30 f   NetClient.obj
 0001:00022f10       ?InterShutdown@CNetClient@@IAEXXZ 00423f10 f   NetClient.obj
 0001:00022f40       ?Main@CNetClient@@MAEKPAX@Z 00423f40 f   NetClient.obj
 0001:00022fd0       ?ClientEventNotify@CNetClient@@CGXPAXABK@Z 00423fd0 f   NetClient.obj
 0001:00023000       ?Startup@CNetClient@@QAEHIIPBDGH@Z 00424000 f   NetClient.obj
 0001:00023200       ?Shutdown@CNetClient@@QAEHXZ 00424200 f   NetClient.obj
 0001:00023240       ?_NotifyServerEventCreate@CNetClient@@AAEXXZ 00424240 f   NetClient.obj
 0001:00023270       ?_NotifyServerEventClose@CNetClient@@AAEXXZ 00424270 f   NetClient.obj
 0001:000232e0       ?SendPackage@CNetClient@@QAEHPBXI@Z 004242e0 f   NetClient.obj
 0001:00023330       ?DoRoute@CNetClient@@AAEHXZ 00424330 f   NetClient.obj
 0001:000233c0       ?Route@CNetClient@@QAEHXZ  004243c0 f   NetClient.obj
 0001:000233d0       ??0CNetConnectDup@@QAE@ABVCNetConnect@@@Z 004243d0 f   NetConnect.obj
 0001:00023420       ?SendPackage@CNetConnectDup@@QBEHPBXI@Z 00424420 f   NetConnect.obj
 0001:00023460       ??4CNetConnectDup@@QAEAAV0@ABVCNetConnect@@@Z 00424460 f   NetConnect.obj
 0001:000234c0       ??0CNetConnect@@QAE@PAVCNetServer@@K@Z 004244c0 f   NetConnect.obj
 0001:00023580       ?RecvPackage@CNetConnect@@MAEXPBXI@Z 00424580 f i NetConnect.obj
 0001:00023590       ?OnClientConnectCreate@CNetConnect@@MAEXXZ 00424590 f i NetConnect.obj
 0001:000235a0       ?OnClientConnectClose@CNetConnect@@MAEXXZ 004245a0 f i NetConnect.obj
 0001:000235b0       ??_ECNetConnect@@UAEPAXI@Z 004245b0 f i NetConnect.obj
 0001:000235b0       ??_GCNetConnect@@UAEPAXI@Z 004245b0 f i NetConnect.obj
 0001:000235d0       ??1CNetConnect@@UAE@XZ     004245d0 f   NetConnect.obj
 0001:000235f0       ?_NotifyClientConnectCreate@CNetConnect@@QAEXXZ 004245f0 f   NetConnect.obj
 0001:00023600       ?_NotifyClientConnectClose@CNetConnect@@QAEXXZ 00424600 f   NetConnect.obj
 0001:00023620       ?OnMessage@CNetConnect@@UAEJPAXI@Z 00424620 f   NetConnect.obj
 0001:00023650       ?Main@CNetConnect@@MAEKPAX@Z 00424650 f   NetConnect.obj
 0001:00023690       ?SendPackage@CNetConnect@@QAEHPBXI@Z 00424690 f   NetConnect.obj
 0001:000236e0       ?IsReady@CNetConnect@@QBEHXZ 004246e0 f   NetConnect.obj
 0001:00023710       ?DoRoute@CNetConnect@@AAEHXZ 00424710 f   NetConnect.obj
 0001:000237a0       ?Route@CNetConnect@@QAEHXZ 004247a0 f   NetConnect.obj
 0001:000237b0       ??0CNetServer@@QAE@XZ      004247b0 f   NetServer.obj
 0001:00023840       ?OnBuildup@CNetServer@@MAEXXZ 00424840 f i NetServer.obj
 0001:00023850       ?OnClearup@CNetServer@@MAEXXZ 00424850 f i NetServer.obj
 0001:00023860       ?OnClientConnectCreate@CNetServer@@MAEXPAVCNetConnect@@@Z 00424860 f i NetServer.obj
 0001:00023870       ?OnClientConnectClose@CNetServer@@MAEXPAVCNetConnect@@@Z 00424870 f i NetServer.obj
 0001:00023880       ??_ECNetServer@@UAEPAXI@Z  00424880 f i NetServer.obj
 0001:00023880       ??_GCNetServer@@UAEPAXI@Z  00424880 f i NetServer.obj
 0001:000238a0       ??1?$map@KPAVCNetConnect@@U?$less@K@_STL@@V?$allocator@U?$pair@$$CBKPAVCNetConnect@@@_STL@@@3@@_STL@@QAE@XZ 004248a0 f i NetServer.obj
 0001:00023940       ??1CNetServer@@UAE@XZ      00424940 f   NetServer.obj
 0001:00023a00       ?ServerEventNotify@CNetServer@@CGXPAXABK1@Z 00424a00 f   NetServer.obj
 0001:00023a40       ?Startup@CNetServer@@QAEHIIIIKG@Z 00424a40 f   NetServer.obj
 0001:00023ba0       ?Shutdown@CNetServer@@QAEHXZ 00424ba0 f   NetServer.obj
 0001:00023ca0       ?Disconnect@CNetServer@@QAEHK@Z 00424ca0 f   NetServer.obj
 0001:00023cd0       ?_NotifyClientConnectCreate@CNetServer@@AAEXK@Z 00424cd0 f   NetServer.obj
 0001:00023e10       ?_NotifyClientConnectClose@CNetServer@@AAEXK@Z 00424e10 f   NetServer.obj
 0001:00023ec0       ?GetConnectCount@CNetServer@@QAEIXZ 00424ec0 f   NetServer.obj
 0001:00023ee0       ?IsConnectReady@CNetServer@@QAEHK@Z 00424ee0 f   NetServer.obj
 0001:00023f40       ?FindNetConnect@CNetServer@@QAE?AVCNetConnectDup@@K@Z 00424f40 f   NetServer.obj
 0001:00024010       ?BroadPackage@CNetServer@@QAEHPBXI@Z 00425010 f   NetServer.obj
 0001:000240c0       ?Route@CNetServer@@QAEHXZ  004250c0 f   NetServer.obj
 0001:00024170       ?erase@?$map@KPAVCNetConnect@@U?$less@K@_STL@@V?$allocator@U?$pair@$$CBKPAVCNetConnect@@@_STL@@@3@@_STL@@QAEXU?$_Rb_tree_iterator@U?$pair@$$CBKPAVCNetConnect@@@_STL@@U?$_Nonconst_traits@U?$pair@$$CBKPAVCNetConnect@@@_STL@@@2@@2@@Z 00425170 f i NetServer.obj
 0001:00024190       ?erase@?$_Rb_tree@KU?$pair@$$CBKPAVCNetConnect@@@_STL@@U?$_Select1st@U?$pair@$$CBKPAVCNetConnect@@@_STL@@@2@U?$less@K@2@V?$allocator@U?$pair@$$CBKPAVCNetConnect@@@_STL@@@2@@_STL@@QAEXU?$_Rb_tree_iterator@U?$pair@$$CBKPAVCNetConnect@@@_STL@@U?$_Nonconst_traits@U?$pair@$$CBKPAVCNetConnect@@@_STL@@@2@@2@@Z 00425190 f i NetServer.obj
 0001:000241d0       ??1?$_Rb_tree_base@U?$pair@$$CBKPAVCNetConnect@@@_STL@@V?$allocator@U?$pair@$$CBKPAVCNetConnect@@@_STL@@@2@@_STL@@QAE@XZ 004251d0 f i NetServer.obj
 0001:00024220       ??1?$allocator@U?$pair@$$CBKPAVCNetConnect@@@_STL@@@_STL@@QAE@XZ 00425220 f i NetServer.obj
 0001:00024230       ??1?$_STLP_alloc_proxy@PAU?$_Rb_tree_node@U?$pair@$$CBKPAVCNetConnect@@@_STL@@@_STL@@U12@V?$allocator@U?$pair@$$CBKPAVCNetConnect@@@_STL@@@2@@_STL@@QAE@XZ 00425230 f i NetServer.obj
 0001:00024240       ?deallocate@?$_STLP_alloc_proxy@PAU?$_Rb_tree_node@U?$pair@$$CBKPAVCNetConnect@@@_STL@@@_STL@@U12@V?$allocator@U?$pair@$$CBKPAVCNetConnect@@@_STL@@@2@@_STL@@QAEXPAU?$_Rb_tree_node@U?$pair@$$CBKPAVCNetConnect@@@_STL@@@2@I@Z 00425240 f i NetServer.obj
 0001:00024280       ?deallocate@?$allocator@U?$_Rb_tree_node@U?$pair@$$CBKPAVCNetConnect@@@_STL@@@_STL@@@_STL@@QBEXPAU?$_Rb_tree_node@U?$pair@$$CBKPAVCNetConnect@@@_STL@@@2@I@Z 00425280 f i NetServer.obj
 0001:000242c0       ?_M_erase@?$_Rb_tree@KU?$pair@$$CBKPAVCNetConnect@@@_STL@@U?$_Select1st@U?$pair@$$CBKPAVCNetConnect@@@_STL@@@2@U?$less@K@2@V?$allocator@U?$pair@$$CBKPAVCNetConnect@@@_STL@@@2@@_STL@@AAEXPAU?$_Rb_tree_node@U?$pair@$$CBKPAVCNetConnect@@@_STL@@@2@@Z 004252c0 f i NetServer.obj
 0001:00024300       ?insert_unique@?$_Rb_tree@KU?$pair@$$CBKPAVCNetConnect@@@_STL@@U?$_Select1st@U?$pair@$$CBKPAVCNetConnect@@@_STL@@@2@U?$less@K@2@V?$allocator@U?$pair@$$CBKPAVCNetConnect@@@_STL@@@2@@_STL@@QAE?AU?$pair@U?$_Rb_tree_iterator@U?$pair@$$CBKPAVCNetConnect@@@_STL@@U?$_Nonconst_traits@U?$pair@$$CBKPAVCNetConnect@@@_STL@@@2@@_STL@@_N@2@ABU?$pair@$$CBKPAVCNetConnect@@@2@@Z 00425300 f i NetServer.obj
 0001:00024470       ?_M_find@?$_Rb_tree@KU?$pair@$$CBKPAVCNetConnect@@@_STL@@U?$_Select1st@U?$pair@$$CBKPAVCNetConnect@@@_STL@@@2@U?$less@K@2@V?$allocator@U?$pair@$$CBKPAVCNetConnect@@@_STL@@@2@@_STL@@ABEPAU?$_Rb_tree_node@U?$pair@$$CBKPAVCNetConnect@@@_STL@@@2@ABK@Z 00425470 f i NetServer.obj
 0001:000244b0       ?_M_create_node@?$_Rb_tree@KU?$pair@$$CBKPAVCNetConnect@@@_STL@@U?$_Select1st@U?$pair@$$CBKPAVCNetConnect@@@_STL@@@2@U?$less@K@2@V?$allocator@U?$pair@$$CBKPAVCNetConnect@@@_STL@@@2@@_STL@@IAEPAU?$_Rb_tree_node@U?$pair@$$CBKPAVCNetConnect@@@_STL@@@2@ABU?$pair@$$CBKPAVCNetConnect@@@2@@Z 004254b0 f i NetServer.obj
 0001:000244e0       ??0CNetSockDupEx@@QAE@XZ   004254e0 f   NetSockDupEx.obj
 0001:00024510       ??_ECNetSockDupEx@@UAEPAXI@Z 00425510 f i NetSockDupEx.obj
 0001:00024510       ??_GCNetSockDupEx@@UAEPAXI@Z 00425510 f i NetSockDupEx.obj
 0001:00024530       ??0CNetSockDupEx@@QAE@ABVCNetConnectDup@@@Z 00425530 f   NetSockDupEx.obj
 0001:00024580       ??0CNetSockDupEx@@QAE@ABVCNetClientDup@@@Z 00425580 f   NetSockDupEx.obj
 0001:00024600       ??0CNetSockDupEx@@QAE@ABV0@@Z 00425600 f   NetSockDupEx.obj
 0001:00024690       ??1CNetSockDupEx@@UAE@XZ   00425690 f   NetSockDupEx.obj
 0001:00024710       ?GetSockType@CNetSockDupEx@@QBE?AW4SOCKTYPE@1@XZ 00425710 f   NetSockDupEx.obj
 0001:00024730       ?SendPackage@CNetSockDupEx@@QBEHPBXI@Z 00425730 f   NetSockDupEx.obj
 0001:00024770       ?GetSockIP@CNetSockDupEx@@QBEKXZ 00425770 f   NetSockDupEx.obj
 0001:00024790       ?GetSockParam@CNetSockDupEx@@QBEKXZ 00425790 f   NetSockDupEx.obj
 0001:000247a0       ??4CNetSockDupEx@@QAEAAV0@ABVCNetConnectDup@@@Z 004257a0 f   NetSockDupEx.obj
 0001:00024800       ??4CNetSockDupEx@@QAEAAV0@ABVCNetClientDup@@@Z 00425800 f   NetSockDupEx.obj
 0001:00024870       ??4CNetSockDupEx@@QAEAAV0@ABV0@@Z 00425870 f   NetSockDupEx.obj
 0001:00024900       ??0CRainbowLib@@QAE@XZ     00425900 f   RainbowLib.obj
 0001:00024920       ??_ECRainbowLib@@UAEPAXI@Z 00425920 f i RainbowLib.obj
 0001:00024920       ??_GCRainbowLib@@UAEPAXI@Z 00425920 f i RainbowLib.obj
 0001:00024940       ??1CRainbowLib@@UAE@XZ     00425940 f   RainbowLib.obj
 0001:00024950       ?Initialize@CRainbowLib@@QAEHXZ 00425950 f   RainbowLib.obj
 0001:00024990       ?Uninitialize@CRainbowLib@@QAEHXZ 00425990 f   RainbowLib.obj
 0001:000249c0       ?CreateInterface@CRainbowLib@@QAEJABU_GUID@@PAPAX@Z 004259c0 f   RainbowLib.obj
 0001:000249e0       ??0CRelayCenter@@QAE@XZ    004259e0 f   RelayCenter.obj
 0001:00024a80       ??_ECRelayCenter@@UAEPAXI@Z 00425a80 f i RelayCenter.obj
 0001:00024a80       ??_GCRelayCenter@@UAEPAXI@Z 00425a80 f i RelayCenter.obj
 0001:00024aa0       ??1?$map@KPAVCRelayClient@@U?$less@K@_STL@@V?$allocator@U?$pair@$$CBKPAVCRelayClient@@@_STL@@@3@@_STL@@QAE@XZ 00425aa0 f i RelayCenter.obj
 0001:00024b40       ??1CRelayCenter@@UAE@XZ    00425b40 f   RelayCenter.obj
 0001:00024c10       ?OnBuildup@CRelayCenter@@MAEXXZ 00425c10 f   RelayCenter.obj
 0001:00024c30       ?OnClearup@CRelayCenter@@MAEXXZ 00425c30 f   RelayCenter.obj
 0001:00024ce0       ?OnServerEventCreate@CRelayCenter@@MAEXPAVCNetClient@@@Z 00425ce0 f   RelayCenter.obj
 0001:00024db0       ?OnServerEventClose@CRelayCenter@@MAEXPAVCNetClient@@@Z 00425db0 f   RelayCenter.obj
 0001:00024e90       ?FindRelayClientByIP@CRelayCenter@@QAEHKPAVCNetClientDup@@@Z 00425e90 f   RelayCenter.obj
 0001:00024f70       ?TraceInfo@CRelayCenter@@QAEHXZ 00425f70 f   RelayCenter.obj
 0001:00025150       ?insert@?$map@KPAVCRelayClient@@U?$less@K@_STL@@V?$allocator@U?$pair@$$CBKPAVCRelayClient@@@_STL@@@3@@_STL@@QAE?AU?$_Rb_tree_iterator@U?$pair@$$CBKPAVCRelayClient@@@_STL@@U?$_Nonconst_traits@U?$pair@$$CBKPAVCRelayClient@@@_STL@@@2@@2@U32@ABU?$pair@$$CBKPAVCRelayClient@@@2@@Z 00426150 f i RelayCenter.obj
 0001:00025180       ??1?$_Rb_tree_base@U?$pair@$$CBKPAVCRelayClient@@@_STL@@V?$allocator@U?$pair@$$CBKPAVCRelayClient@@@_STL@@@2@@_STL@@QAE@XZ 00426180 f i RelayCenter.obj
 0001:000251d0       ??1?$allocator@U?$pair@$$CBKPAVCRelayClient@@@_STL@@@_STL@@QAE@XZ 004261d0 f i RelayCenter.obj
 0001:000251e0       ??0?$_Rb_tree_iterator@U?$pair@$$CBKPAVCRelayClient@@@_STL@@U?$_Nonconst_traits@U?$pair@$$CBKPAVCRelayClient@@@_STL@@@2@@_STL@@QAE@ABU01@@Z 004261e0 f i RelayCenter.obj
 0001:000251f0       ??1?$_STLP_alloc_proxy@PAU?$_Rb_tree_node@U?$pair@$$CBKPAVCRelayClient@@@_STL@@@_STL@@U12@V?$allocator@U?$pair@$$CBKPAVCRelayClient@@@_STL@@@2@@_STL@@QAE@XZ 004261f0 f i RelayCenter.obj
 0001:00025200       ?erase@?$_Rb_tree@KU?$pair@$$CBKPAVCRelayClient@@@_STL@@U?$_Select1st@U?$pair@$$CBKPAVCRelayClient@@@_STL@@@2@U?$less@K@2@V?$allocator@U?$pair@$$CBKPAVCRelayClient@@@_STL@@@2@@_STL@@QAEXU?$_Rb_tree_iterator@U?$pair@$$CBKPAVCRelayClient@@@_STL@@U?$_Nonconst_traits@U?$pair@$$CBKPAVCRelayClient@@@_STL@@@2@@2@0@Z 00426200 f i RelayCenter.obj
 0001:00025290       ?lower_bound@?$_Rb_tree@KU?$pair@$$CBKPAVCRelayClient@@@_STL@@U?$_Select1st@U?$pair@$$CBKPAVCRelayClient@@@_STL@@@2@U?$less@K@2@V?$allocator@U?$pair@$$CBKPAVCRelayClient@@@_STL@@@2@@_STL@@QAE?AU?$_Rb_tree_iterator@U?$pair@$$CBKPAVCRelayClient@@@_STL@@U?$_Nonconst_traits@U?$pair@$$CBKPAVCRelayClient@@@_STL@@@2@@2@ABK@Z 00426290 f i RelayCenter.obj
 0001:000252d0       ?erase@?$_Rb_tree@KU?$pair@$$CBKPAVCRelayClient@@@_STL@@U?$_Select1st@U?$pair@$$CBKPAVCRelayClient@@@_STL@@@2@U?$less@K@2@V?$allocator@U?$pair@$$CBKPAVCRelayClient@@@_STL@@@2@@_STL@@QAEXU?$_Rb_tree_iterator@U?$pair@$$CBKPAVCRelayClient@@@_STL@@U?$_Nonconst_traits@U?$pair@$$CBKPAVCRelayClient@@@_STL@@@2@@2@@Z 004262d0 f i RelayCenter.obj
 0001:00025310       ??0?$pair@U?$_Rb_tree_iterator@U?$pair@$$CBKPAVCRelayClient@@@_STL@@U?$_Nonconst_traits@U?$pair@$$CBKPAVCRelayClient@@@_STL@@@2@@_STL@@U12@@_STL@@QAE@ABU?$_Rb_tree_iterator@U?$pair@$$CBKPAVCRelayClient@@@_STL@@U?$_Nonconst_traits@U?$pair@$$CBKPAVCRelayClient@@@_STL@@@2@@1@0@Z 00426310 f i RelayCenter.obj
 0001:00025330       ?deallocate@?$allocator@U?$_Rb_tree_node@U?$pair@$$CBKPAVCRelayClient@@@_STL@@@_STL@@@_STL@@QBEXPAU?$_Rb_tree_node@U?$pair@$$CBKPAVCRelayClient@@@_STL@@@2@I@Z 00426330 f i RelayCenter.obj
 0001:00025370       ?_M_upper_bound@?$_Rb_tree@KU?$pair@$$CBKPAVCRelayClient@@@_STL@@U?$_Select1st@U?$pair@$$CBKPAVCRelayClient@@@_STL@@@2@U?$less@K@2@V?$allocator@U?$pair@$$CBKPAVCRelayClient@@@_STL@@@2@@_STL@@ABEPAU?$_Rb_tree_node@U?$pair@$$CBKPAVCRelayClient@@@_STL@@@2@ABK@Z 00426370 f i RelayCenter.obj
 0001:000253a0       ?_M_erase@?$_Rb_tree@KU?$pair@$$CBKPAVCRelayClient@@@_STL@@U?$_Select1st@U?$pair@$$CBKPAVCRelayClient@@@_STL@@@2@U?$less@K@2@V?$allocator@U?$pair@$$CBKPAVCRelayClient@@@_STL@@@2@@_STL@@AAEXPAU?$_Rb_tree_node@U?$pair@$$CBKPAVCRelayClient@@@_STL@@@2@@Z 004263a0 f i RelayCenter.obj
 0001:000253e0       ?insert_unique@?$_Rb_tree@KU?$pair@$$CBKPAVCRelayClient@@@_STL@@U?$_Select1st@U?$pair@$$CBKPAVCRelayClient@@@_STL@@@2@U?$less@K@2@V?$allocator@U?$pair@$$CBKPAVCRelayClient@@@_STL@@@2@@_STL@@QAE?AU?$_Rb_tree_iterator@U?$pair@$$CBKPAVCRelayClient@@@_STL@@U?$_Nonconst_traits@U?$pair@$$CBKPAVCRelayClient@@@_STL@@@2@@2@U32@ABU?$pair@$$CBKPAVCRelayClient@@@2@@Z 004263e0 f i RelayCenter.obj
 0001:000258c0       ?begin@?$_Rb_tree@KU?$pair@$$CBKPAVCRelayClient@@@_STL@@U?$_Select1st@U?$pair@$$CBKPAVCRelayClient@@@_STL@@@2@U?$less@K@2@V?$allocator@U?$pair@$$CBKPAVCRelayClient@@@_STL@@@2@@_STL@@QAE?AU?$_Rb_tree_iterator@U?$pair@$$CBKPAVCRelayClient@@@_STL@@U?$_Nonconst_traits@U?$pair@$$CBKPAVCRelayClient@@@_STL@@@2@@2@XZ 004268c0 f i RelayCenter.obj
 0001:000258d0       ?_M_insert@?$_Rb_tree@KU?$pair@$$CBKPAVCRelayClient@@@_STL@@U?$_Select1st@U?$pair@$$CBKPAVCRelayClient@@@_STL@@@2@U?$less@K@2@V?$allocator@U?$pair@$$CBKPAVCRelayClient@@@_STL@@@2@@_STL@@AAE?AU?$_Rb_tree_iterator@U?$pair@$$CBKPAVCRelayClient@@@_STL@@U?$_Nonconst_traits@U?$pair@$$CBKPAVCRelayClient@@@_STL@@@2@@2@PAU_Rb_tree_node_base@2@0ABU?$pair@$$CBKPAVCRelayClient@@@2@0@Z 004268d0 f i RelayCenter.obj
 0001:00025970       ?insert_unique@?$_Rb_tree@KU?$pair@$$CBKPAVCRelayClient@@@_STL@@U?$_Select1st@U?$pair@$$CBKPAVCRelayClient@@@_STL@@@2@U?$less@K@2@V?$allocator@U?$pair@$$CBKPAVCRelayClient@@@_STL@@@2@@_STL@@QAE?AU?$pair@U?$_Rb_tree_iterator@U?$pair@$$CBKPAVCRelayClient@@@_STL@@U?$_Nonconst_traits@U?$pair@$$CBKPAVCRelayClient@@@_STL@@@2@@_STL@@_N@2@ABU?$pair@$$CBKPAVCRelayClient@@@2@@Z 00426970 f i RelayCenter.obj
 0001:00025ae0       ?_M_find@?$_Rb_tree@KU?$pair@$$CBKPAVCRelayClient@@@_STL@@U?$_Select1st@U?$pair@$$CBKPAVCRelayClient@@@_STL@@@2@U?$less@K@2@V?$allocator@U?$pair@$$CBKPAVCRelayClient@@@_STL@@@2@@_STL@@ABEPAU?$_Rb_tree_node@U?$pair@$$CBKPAVCRelayClient@@@_STL@@@2@ABK@Z 00426ae0 f i RelayCenter.obj
 0001:00025b20       ?_M_create_node@?$_Rb_tree@KU?$pair@$$CBKPAVCRelayClient@@@_STL@@U?$_Select1st@U?$pair@$$CBKPAVCRelayClient@@@_STL@@@2@U?$less@K@2@V?$allocator@U?$pair@$$CBKPAVCRelayClient@@@_STL@@@2@@_STL@@IAEPAU?$_Rb_tree_node@U?$pair@$$CBKPAVCRelayClient@@@_STL@@@2@ABU?$pair@$$CBKPAVCRelayClient@@@2@@Z 00426b20 f i RelayCenter.obj
 0001:00025b50       ??0?$pair@U?$_Rb_tree_iterator@U?$pair@$$CBKPAVCRelayClient@@@_STL@@U?$_Nonconst_traits@U?$pair@$$CBKPAVCRelayClient@@@_STL@@@2@@_STL@@_N@_STL@@QAE@ABU?$_Rb_tree_iterator@U?$pair@$$CBKPAVCRelayClient@@@_STL@@U?$_Nonconst_traits@U?$pair@$$CBKPAVCRelayClient@@@_STL@@@2@@1@AB_N@Z 00426b50 f i RelayCenter.obj
 0001:00025b70       ??0CRelayClient@@QAE@PAVCRelayCenter@@H@Z 00426b70 f   RelayClient.obj
 0001:00025b90       ?DeleteThis@CRelayClient@@MAEXXZ 00426b90 f i RelayClient.obj
 0001:00025ba0       ??_GCRelayClient@@UAEPAXI@Z 00426ba0 f i RelayClient.obj
 0001:00025ba0       ??_ECRelayClient@@UAEPAXI@Z 00426ba0 f i RelayClient.obj
 0001:00025bc0       ??1CRelayClient@@UAE@XZ    00426bc0 f   RelayClient.obj
 0001:00025bd0       ?OnStartupFail@CRelayClient@@MAEXXZ 00426bd0 f   RelayClient.obj
 0001:00025bf0       ?OnShutdownFail@CRelayClient@@MAEXXZ 00426bf0 f   RelayClient.obj
 0001:00025c10       ?OnServerEventCreate@CRelayClient@@MAEXXZ 00426c10 f   RelayClient.obj
 0001:00025c30       ?OnServerEventClose@CRelayClient@@MAEXXZ 00426c30 f   RelayClient.obj
 0001:00025c50       ?RecvPackage@CRelayClient@@MAEXPBXI@Z 00426c50 f   RelayClient.obj
 0001:00025c70       ??0CRelayConnect@@QAE@PAVCRelayServer@@K@Z 00426c70 f   RelayConnect.obj
 0001:00025ca0       ??_GCRelayConnect@@UAEPAXI@Z 00426ca0 f i RelayConnect.obj
 0001:00025ca0       ??_ECRelayConnect@@UAEPAXI@Z 00426ca0 f i RelayConnect.obj
 0001:00025cc0       ??1CRelayConnect@@UAE@XZ   00426cc0 f   RelayConnect.obj
 0001:00025ce0       ?OnClientConnectCreate@CRelayConnect@@MAEXXZ 00426ce0 f   RelayConnect.obj
 0001:00025d00       ?OnClientConnectClose@CRelayConnect@@MAEXXZ 00426d00 f   RelayConnect.obj
 0001:00025d20       ?RecvPackage@CRelayConnect@@MAEXPBXI@Z 00426d20 f   RelayConnect.obj
 0001:00025d40       ??0CRelayServer@@QAE@XZ    00426d40 f   RelayServer.obj
 0001:00025de0       ??_GCRelayServer@@UAEPAXI@Z 00426de0 f i RelayServer.obj
 0001:00025de0       ??_ECRelayServer@@UAEPAXI@Z 00426de0 f i RelayServer.obj
 0001:00025e00       ??1?$map@KPAVCRelayConnect@@U?$less@K@_STL@@V?$allocator@U?$pair@$$CBKPAVCRelayConnect@@@_STL@@@3@@_STL@@QAE@XZ 00426e00 f i RelayServer.obj
 0001:00025ea0       ??1CRelayServer@@UAE@XZ    00426ea0 f   RelayServer.obj
 0001:00025f70       ?CreateConnect@CRelayServer@@EAEPAVCNetConnect@@PAVCNetServer@@K@Z 00426f70 f   RelayServer.obj
 0001:00025fe0       ?DestroyConnect@CRelayServer@@EAEXPAVCNetConnect@@@Z 00426fe0 f   RelayServer.obj
 0001:00026000       ?OnBuildup@CRelayServer@@EAEXXZ 00427000 f   RelayServer.obj
 0001:00026060       ?OnClearup@CRelayServer@@EAEXXZ 00427060 f   RelayServer.obj
 0001:00026110       ?OnClientConnectCreate@CRelayServer@@EAEXPAVCNetConnect@@@Z 00427110 f   RelayServer.obj
 0001:000261d0       ?OnClientConnectClose@CRelayServer@@EAEXPAVCNetConnect@@@Z 004271d0 f   RelayServer.obj
 0001:000262a0       ?FindRelayConnectByIP@CRelayServer@@QAEHKPAVCNetConnectDup@@@Z 004272a0 f   RelayServer.obj
 0001:00026370       ?TraceInfo@CRelayServer@@QAEHXZ 00427370 f   RelayServer.obj
 0001:00026540       ?insert@?$map@KPAVCRelayConnect@@U?$less@K@_STL@@V?$allocator@U?$pair@$$CBKPAVCRelayConnect@@@_STL@@@3@@_STL@@QAE?AU?$_Rb_tree_iterator@U?$pair@$$CBKPAVCRelayConnect@@@_STL@@U?$_Nonconst_traits@U?$pair@$$CBKPAVCRelayConnect@@@_STL@@@2@@2@U32@ABU?$pair@$$CBKPAVCRelayConnect@@@2@@Z 00427540 f i RelayServer.obj
 0001:00026570       ??1?$_Rb_tree_base@U?$pair@$$CBKPAVCRelayConnect@@@_STL@@V?$allocator@U?$pair@$$CBKPAVCRelayConnect@@@_STL@@@2@@_STL@@QAE@XZ 00427570 f i RelayServer.obj
 0001:000265c0       ??1?$allocator@U?$pair@$$CBKPAVCRelayConnect@@@_STL@@@_STL@@QAE@XZ 004275c0 f i RelayServer.obj
 0001:000265d0       ??0?$_Rb_tree_iterator@U?$pair@$$CBKPAVCRelayConnect@@@_STL@@U?$_Nonconst_traits@U?$pair@$$CBKPAVCRelayConnect@@@_STL@@@2@@_STL@@QAE@ABU01@@Z 004275d0 f i RelayServer.obj
 0001:000265e0       ??1?$_STLP_alloc_proxy@PAU?$_Rb_tree_node@U?$pair@$$CBKPAVCRelayConnect@@@_STL@@@_STL@@U12@V?$allocator@U?$pair@$$CBKPAVCRelayConnect@@@_STL@@@2@@_STL@@QAE@XZ 004275e0 f i RelayServer.obj
 0001:000265f0       ?erase@?$_Rb_tree@KU?$pair@$$CBKPAVCRelayConnect@@@_STL@@U?$_Select1st@U?$pair@$$CBKPAVCRelayConnect@@@_STL@@@2@U?$less@K@2@V?$allocator@U?$pair@$$CBKPAVCRelayConnect@@@_STL@@@2@@_STL@@QAEXU?$_Rb_tree_iterator@U?$pair@$$CBKPAVCRelayConnect@@@_STL@@U?$_Nonconst_traits@U?$pair@$$CBKPAVCRelayConnect@@@_STL@@@2@@2@0@Z 004275f0 f i RelayServer.obj
 0001:00026680       ?lower_bound@?$_Rb_tree@KU?$pair@$$CBKPAVCRelayConnect@@@_STL@@U?$_Select1st@U?$pair@$$CBKPAVCRelayConnect@@@_STL@@@2@U?$less@K@2@V?$allocator@U?$pair@$$CBKPAVCRelayConnect@@@_STL@@@2@@_STL@@QAE?AU?$_Rb_tree_iterator@U?$pair@$$CBKPAVCRelayConnect@@@_STL@@U?$_Nonconst_traits@U?$pair@$$CBKPAVCRelayConnect@@@_STL@@@2@@2@ABK@Z 00427680 f i RelayServer.obj
 0001:000266c0       ?erase@?$_Rb_tree@KU?$pair@$$CBKPAVCRelayConnect@@@_STL@@U?$_Select1st@U?$pair@$$CBKPAVCRelayConnect@@@_STL@@@2@U?$less@K@2@V?$allocator@U?$pair@$$CBKPAVCRelayConnect@@@_STL@@@2@@_STL@@QAEXU?$_Rb_tree_iterator@U?$pair@$$CBKPAVCRelayConnect@@@_STL@@U?$_Nonconst_traits@U?$pair@$$CBKPAVCRelayConnect@@@_STL@@@2@@2@@Z 004276c0 f i RelayServer.obj
 0001:00026700       ??0?$pair@U?$_Rb_tree_iterator@U?$pair@$$CBKPAVCRelayConnect@@@_STL@@U?$_Nonconst_traits@U?$pair@$$CBKPAVCRelayConnect@@@_STL@@@2@@_STL@@U12@@_STL@@QAE@ABU?$_Rb_tree_iterator@U?$pair@$$CBKPAVCRelayConnect@@@_STL@@U?$_Nonconst_traits@U?$pair@$$CBKPAVCRelayConnect@@@_STL@@@2@@1@0@Z 00427700 f i RelayServer.obj
 0001:00026720       ?deallocate@?$allocator@U?$_Rb_tree_node@U?$pair@$$CBKPAVCRelayConnect@@@_STL@@@_STL@@@_STL@@QBEXPAU?$_Rb_tree_node@U?$pair@$$CBKPAVCRelayConnect@@@_STL@@@2@I@Z 00427720 f i RelayServer.obj
 0001:00026760       ?_M_upper_bound@?$_Rb_tree@KU?$pair@$$CBKPAVCRelayConnect@@@_STL@@U?$_Select1st@U?$pair@$$CBKPAVCRelayConnect@@@_STL@@@2@U?$less@K@2@V?$allocator@U?$pair@$$CBKPAVCRelayConnect@@@_STL@@@2@@_STL@@ABEPAU?$_Rb_tree_node@U?$pair@$$CBKPAVCRelayConnect@@@_STL@@@2@ABK@Z 00427760 f i RelayServer.obj
 0001:00026790       ?_M_erase@?$_Rb_tree@KU?$pair@$$CBKPAVCRelayConnect@@@_STL@@U?$_Select1st@U?$pair@$$CBKPAVCRelayConnect@@@_STL@@@2@U?$less@K@2@V?$allocator@U?$pair@$$CBKPAVCRelayConnect@@@_STL@@@2@@_STL@@AAEXPAU?$_Rb_tree_node@U?$pair@$$CBKPAVCRelayConnect@@@_STL@@@2@@Z 00427790 f i RelayServer.obj
 0001:000267d0       ?insert_unique@?$_Rb_tree@KU?$pair@$$CBKPAVCRelayConnect@@@_STL@@U?$_Select1st@U?$pair@$$CBKPAVCRelayConnect@@@_STL@@@2@U?$less@K@2@V?$allocator@U?$pair@$$CBKPAVCRelayConnect@@@_STL@@@2@@_STL@@QAE?AU?$_Rb_tree_iterator@U?$pair@$$CBKPAVCRelayConnect@@@_STL@@U?$_Nonconst_traits@U?$pair@$$CBKPAVCRelayConnect@@@_STL@@@2@@2@U32@ABU?$pair@$$CBKPAVCRelayConnect@@@2@@Z 004277d0 f i RelayServer.obj
 0001:00026cb0       ?begin@?$_Rb_tree@KU?$pair@$$CBKPAVCRelayConnect@@@_STL@@U?$_Select1st@U?$pair@$$CBKPAVCRelayConnect@@@_STL@@@2@U?$less@K@2@V?$allocator@U?$pair@$$CBKPAVCRelayConnect@@@_STL@@@2@@_STL@@QAE?AU?$_Rb_tree_iterator@U?$pair@$$CBKPAVCRelayConnect@@@_STL@@U?$_Nonconst_traits@U?$pair@$$CBKPAVCRelayConnect@@@_STL@@@2@@2@XZ 00427cb0 f i RelayServer.obj
 0001:00026cc0       ?_M_insert@?$_Rb_tree@KU?$pair@$$CBKPAVCRelayConnect@@@_STL@@U?$_Select1st@U?$pair@$$CBKPAVCRelayConnect@@@_STL@@@2@U?$less@K@2@V?$allocator@U?$pair@$$CBKPAVCRelayConnect@@@_STL@@@2@@_STL@@AAE?AU?$_Rb_tree_iterator@U?$pair@$$CBKPAVCRelayConnect@@@_STL@@U?$_Nonconst_traits@U?$pair@$$CBKPAVCRelayConnect@@@_STL@@@2@@2@PAU_Rb_tree_node_base@2@0ABU?$pair@$$CBKPAVCRelayConnect@@@2@0@Z 00427cc0 f i RelayServer.obj
 0001:00026d60       ?insert_unique@?$_Rb_tree@KU?$pair@$$CBKPAVCRelayConnect@@@_STL@@U?$_Select1st@U?$pair@$$CBKPAVCRelayConnect@@@_STL@@@2@U?$less@K@2@V?$allocator@U?$pair@$$CBKPAVCRelayConnect@@@_STL@@@2@@_STL@@QAE?AU?$pair@U?$_Rb_tree_iterator@U?$pair@$$CBKPAVCRelayConnect@@@_STL@@U?$_Nonconst_traits@U?$pair@$$CBKPAVCRelayConnect@@@_STL@@@2@@_STL@@_N@2@ABU?$pair@$$CBKPAVCRelayConnect@@@2@@Z 00427d60 f i RelayServer.obj
 0001:00026ed0       ?_M_find@?$_Rb_tree@KU?$pair@$$CBKPAVCRelayConnect@@@_STL@@U?$_Select1st@U?$pair@$$CBKPAVCRelayConnect@@@_STL@@@2@U?$less@K@2@V?$allocator@U?$pair@$$CBKPAVCRelayConnect@@@_STL@@@2@@_STL@@ABEPAU?$_Rb_tree_node@U?$pair@$$CBKPAVCRelayConnect@@@_STL@@@2@ABK@Z 00427ed0 f i RelayServer.obj
 0001:00026f10       ?_M_create_node@?$_Rb_tree@KU?$pair@$$CBKPAVCRelayConnect@@@_STL@@U?$_Select1st@U?$pair@$$CBKPAVCRelayConnect@@@_STL@@@2@U?$less@K@2@V?$allocator@U?$pair@$$CBKPAVCRelayConnect@@@_STL@@@2@@_STL@@IAEPAU?$_Rb_tree_node@U?$pair@$$CBKPAVCRelayConnect@@@_STL@@@2@ABU?$pair@$$CBKPAVCRelayConnect@@@2@@Z 00427f10 f i RelayServer.obj
 0001:00026f40       ??0?$pair@U?$_Rb_tree_iterator@U?$pair@$$CBKPAVCRelayConnect@@@_STL@@U?$_Nonconst_traits@U?$pair@$$CBKPAVCRelayConnect@@@_STL@@@2@@_STL@@_N@_STL@@QAE@ABU?$_Rb_tree_iterator@U?$pair@$$CBKPAVCRelayConnect@@@_STL@@U?$_Nonconst_traits@U?$pair@$$CBKPAVCRelayConnect@@@_STL@@@2@@1@AB_N@Z 00427f40 f i RelayServer.obj
 0001:00026f60       ??0CRootCenter@@QAE@XZ     00427f60 f   RootCenter.obj
 0001:00026f80       ??_GCRootCenter@@UAEPAXI@Z 00427f80 f i RootCenter.obj
 0001:00026f80       ??_ECRootCenter@@UAEPAXI@Z 00427f80 f i RootCenter.obj
 0001:00026fa0       ??1CRootCenter@@UAE@XZ     00427fa0 f   RootCenter.obj
 0001:00026fb0       ?TraceInfo@CRootCenter@@QAEHXZ 00427fb0 f   RootCenter.obj
 0001:00027150       ??0CRootClient@@QAE@PAVCRootCenter@@H@Z 00428150 f   RootClient.obj
 0001:00027180       ??_GCRootClient@@UAEPAXI@Z 00428180 f i RootClient.obj
 0001:00027180       ??_ECRootClient@@UAEPAXI@Z 00428180 f i RootClient.obj
 0001:000271a0       ??1CRootClient@@UAE@XZ     004281a0 f   RootClient.obj
 0001:000271b0       ?OnServerEventCreate@CRootClient@@MAEXXZ 004281b0 f   RootClient.obj
 0001:00027270       ?OnServerEventClose@CRootClient@@MAEXXZ 00428270 f   RootClient.obj
 0001:000272a0       ?StartAutoTime@CRootClient@@IAEHXZ 004282a0 f   RootClient.obj
 0001:000272e0       ?StopAutoTime@CRootClient@@IAEHXZ 004282e0 f   RootClient.obj
 0001:00027310       ?IsStartAutoTime@CRootClient@@IAEHXZ 00428310 f   RootClient.obj
 0001:00027320       ?AutoTime@CRootClient@@IAEXXZ 00428320 f   RootClient.obj
 0001:000273c0       ?BeginRoute@CRootClient@@MAEXXZ 004283c0 f   RootClient.obj
 0001:000273d0       ?EndRoute@CRootClient@@MAEXXZ 004283d0 f   RootClient.obj
 0001:000273e0       ?RecvPackage@CRootClient@@MAEXPBXI@Z 004283e0 f   RootClient.obj
 0001:00027420       ?Proc0_Normal@CRootClient@@AAEXPBXI@Z 00428420 f   RootClient.obj
 0001:00027660       ?Proc0_Relay@CRootClient@@AAEXPBXI@Z 00428660 f   RootClient.obj
 0001:000276a0       ?Proc2_Relay_Data_Here@CRootClient@@AAEXPBXI@Z 004286a0 f   RootClient.obj
 0001:00027890       ?Proc1_Relay_Data@CRootClient@@AAEXPBXI@Z 00428890 f   RootClient.obj
 0001:000279b0       ?Proc1_Relay_AskWay@CRootClient@@AAEXPBXI@Z 004289b0 f   RootClient.obj
 0001:000279f0       ?Proc1_Relay_LoseWay@CRootClient@@AAEXPBXI@Z 004289f0 f   RootClient.obj
 0001:00027ac0       ?Proc2_Relay_AskWay_AccountRoleID@CRootClient@@AAEXPBXIH@Z 00428ac0 f   RootClient.obj
 0001:00027ca0       ?Proc0_PlayerCommunity@CRootClient@@AAEXPBXI@Z 00428ca0 f   RootClient.obj
 0001:00027ea0       ?gTrackRecvData@@YAXPBXI@Z 00428ea0 f   S3Relay.obj
 0001:00027ed0       ?gTrackSendData@@YAXPBXI@Z 00428ed0 f   S3Relay.obj
 0001:00027f00       ?gGetRecvDataSize@@YAIXZ   00428f00 f   S3Relay.obj
 0001:00027f30       ?gGetSendDataSize@@YAIXZ   00428f30 f   S3Relay.obj
 0001:00027fe0       _WinMain@16                00428fe0 f   S3Relay.obj
 0001:00028310       ?gTrace@@YAHPBDZZ          00429310 f   S3Relay.obj
 0001:00028450       ?MyRegisterClass@@YAGPAUHINSTANCE__@@@Z 00429450 f   S3Relay.obj
 0001:000284e0       ?gTimeStamp@@YAHPAD0@Z     004294e0 f   S3Relay.obj
 0001:00028530       ?gTraceLogFile@@YAXPBDJ@Z  00429530 f   S3Relay.obj
 0001:000285b0       ?gClearTrace@@YAXXZ        004295b0 f   S3Relay.obj
 0001:000285d0       ?gShowTrace@@YAXXZ         004295d0 f   S3Relay.obj
 0001:00028780       ?InitInstance@@YAHPAUHINSTANCE__@@H@Z 00429780 f   S3Relay.obj
 0001:000288a0       ?WndProc@@YGJPAUHWND__@@IIJ@Z 004298a0 f   S3Relay.obj
 0001:00029210       ?About@@YGJPAUHWND__@@IIJ@Z 0042a210 f   S3Relay.obj
 0001:00029250       ?Login@@YGJPAUHWND__@@IIJ@Z 0042a250 f   S3Relay.obj
 0001:00029480       ?gGetMainWnd@@YAPAUHWND__@@XZ 0042a480 f   S3Relay.obj
 0001:00029490       ?gGetListBox@@YAPAUHWND__@@XZ 0042a490 f   S3Relay.obj
 0001:000294a0       ??0CSockThread@@QAE@XZ     0042a4a0 f   SockThread.obj
 0001:000294c0       ?EnterLoop@CSockThread@@MAEXXZ 0042a4c0 f i SockThread.obj
 0001:000294d0       ?LeaveLoop@CSockThread@@MAEXXZ 0042a4d0 f i SockThread.obj
 0001:000294e0       ?PrepareSock@CSockThread@@MAEXXZ 0042a4e0 f i SockThread.obj
 0001:000294f0       ?UnprepareSock@CSockThread@@MAEXXZ 0042a4f0 f i SockThread.obj
 0001:00029500       ??_GCSockThread@@UAEPAXI@Z 0042a500 f i SockThread.obj
 0001:00029500       ??_ECSockThread@@UAEPAXI@Z 0042a500 f i SockThread.obj
 0001:00029520       ??1CSockThread@@UAE@XZ     0042a520 f   SockThread.obj
 0001:00029530       ?Main@CSockThread@@MAEKPAX@Z 0042a530 f   SockThread.obj
 0001:00029670       ?Start@CSockThread@@UAEPAXXZ 0042a670 f   SockThread.obj
 0001:000296b0       ?Stop@CSockThread@@UAEHXZ  0042a6b0 f   SockThread.obj
 0001:00029700       ?TraceInfo@CSockThread@@QAEHXZ 0042a700 f   SockThread.obj
 0001:00029730       ??0CTongConnect@@QAE@PAVCTongServer@@K@Z 0042a730 f   TongConnect.obj
 0001:00029760       ??_ECTongConnect@@UAEPAXI@Z 0042a760 f i TongConnect.obj
 0001:00029760       ??_GCTongConnect@@UAEPAXI@Z 0042a760 f i TongConnect.obj
 0001:00029780       ??1CTongConnect@@UAE@XZ    0042a780 f   TongConnect.obj
 0001:000297a0       ?OnClientConnectCreate@CTongConnect@@MAEXXZ 0042a7a0 f   TongConnect.obj
 0001:000297c0       ?OnClientConnectClose@CTongConnect@@MAEXXZ 0042a7c0 f   TongConnect.obj
 0001:000297e0       ?RecvPackage@CTongConnect@@MAEXPBXI@Z 0042a7e0 f   TongConnect.obj
 0001:00029810       ?PassToSomeone@CTongConnect@@AAEHKKKPBXI@Z 0042a810 f   TongConnect.obj
 0001:00029960       ?Proc0_Tong@CTongConnect@@AAEXPBXI@Z 0042a960 f   TongConnect.obj
 0001:0002a100       ?Proc0_Friend@CTongConnect@@AAEXPBXI@Z 0042b100 f   TongConnect.obj
 0001:0002a190       ?Proc1_Friend_AskAddFriend@CTongConnect@@AAEXPBXI@Z 0042b190 f   TongConnect.obj
 0001:0002a4e0       ?Proc1_Friend_RepAddFriend@CTongConnect@@AAEXPBXI@Z 0042b4e0 f   TongConnect.obj
 0001:0002a7d0       ?Proc1_Friend_GroupFriend@CTongConnect@@AAEXPBXI@Z 0042b7d0 f   TongConnect.obj
 0001:0002a9d0       ?Proc1_Friend_EraseFriend@CTongConnect@@AAEXPBXI@Z 0042b9d0 f   TongConnect.obj
 0001:0002ab50       ?Proc1_Friend_AskSyncFriendList@CTongConnect@@AAEXPBXI@Z 0042bb50 f   TongConnect.obj
 0001:0002aca0       ?Proc1_Friend_Associate@CTongConnect@@AAEXPBXI@Z 0042bca0 f   TongConnect.obj
 0001:0002b090       ?Proc1_Friend_AssociateBevy@CTongConnect@@AAEXPBXI@Z 0042c090 f   TongConnect.obj
 0001:0002b4f0       ?_Construct@_STL@@YAXPAV?$basic_string@DV?$char_traits@D@_STL@@V?$allocator@D@2@@1@ABV21@@Z 0042c4f0 f i TongConnect.obj
 0001:0002b5c0       ??0CTongServer@@QAE@XZ     0042c5c0 f   TongServer.obj
 0001:0002b660       ??_ECTongServer@@UAEPAXI@Z 0042c660 f i TongServer.obj
 0001:0002b660       ??_GCTongServer@@UAEPAXI@Z 0042c660 f i TongServer.obj
 0001:0002b680       ??1?$map@KPAVCTongConnect@@U?$less@K@_STL@@V?$allocator@U?$pair@$$CBKPAVCTongConnect@@@_STL@@@3@@_STL@@QAE@XZ 0042c680 f i TongServer.obj
 0001:0002b720       ??1CTongServer@@UAE@XZ     0042c720 f   TongServer.obj
 0001:0002b7f0       ?CreateConnect@CTongServer@@MAEPAVCNetConnect@@PAVCNetServer@@K@Z 0042c7f0 f   TongServer.obj
 0001:0002b860       ?DestroyConnect@CTongServer@@MAEXPAVCNetConnect@@@Z 0042c860 f   TongServer.obj
 0001:0002b880       ?OnBuildup@CTongServer@@MAEXXZ 0042c880 f   TongServer.obj
 0001:0002b8e0       ?OnClearup@CTongServer@@MAEXXZ 0042c8e0 f   TongServer.obj
 0001:0002b990       ?OnClientConnectCreate@CTongServer@@MAEXPAVCNetConnect@@@Z 0042c990 f   TongServer.obj
 0001:0002ba50       ?OnClientConnectClose@CTongServer@@MAEXPAVCNetConnect@@@Z 0042ca50 f   TongServer.obj
 0001:0002bb20       ?FindTongConnectByIP@CTongServer@@QAE?AVCNetConnectDup@@K@Z 0042cb20 f   TongServer.obj
 0001:0002bbf0       ?TraceInfo@CTongServer@@QAEHXZ 0042cbf0 f   TongServer.obj
 0001:0002bdc0       ?insert@?$map@KPAVCTongConnect@@U?$less@K@_STL@@V?$allocator@U?$pair@$$CBKPAVCTongConnect@@@_STL@@@3@@_STL@@QAE?AU?$_Rb_tree_iterator@U?$pair@$$CBKPAVCTongConnect@@@_STL@@U?$_Nonconst_traits@U?$pair@$$CBKPAVCTongConnect@@@_STL@@@2@@2@U32@ABU?$pair@$$CBKPAVCTongConnect@@@2@@Z 0042cdc0 f i TongServer.obj
 0001:0002bdf0       ??1?$_Rb_tree_base@U?$pair@$$CBKPAVCTongConnect@@@_STL@@V?$allocator@U?$pair@$$CBKPAVCTongConnect@@@_STL@@@2@@_STL@@QAE@XZ 0042cdf0 f i TongServer.obj
 0001:0002be40       ??1?$allocator@U?$pair@$$CBKPAVCTongConnect@@@_STL@@@_STL@@QAE@XZ 0042ce40 f i TongServer.obj
 0001:0002be50       ??0?$_Rb_tree_iterator@U?$pair@$$CBKPAVCTongConnect@@@_STL@@U?$_Nonconst_traits@U?$pair@$$CBKPAVCTongConnect@@@_STL@@@2@@_STL@@QAE@ABU01@@Z 0042ce50 f i TongServer.obj
 0001:0002be60       ??1?$_STLP_alloc_proxy@PAU?$_Rb_tree_node@U?$pair@$$CBKPAVCTongConnect@@@_STL@@@_STL@@U12@V?$allocator@U?$pair@$$CBKPAVCTongConnect@@@_STL@@@2@@_STL@@QAE@XZ 0042ce60 f i TongServer.obj
 0001:0002be70       ?erase@?$_Rb_tree@KU?$pair@$$CBKPAVCTongConnect@@@_STL@@U?$_Select1st@U?$pair@$$CBKPAVCTongConnect@@@_STL@@@2@U?$less@K@2@V?$allocator@U?$pair@$$CBKPAVCTongConnect@@@_STL@@@2@@_STL@@QAEXU?$_Rb_tree_iterator@U?$pair@$$CBKPAVCTongConnect@@@_STL@@U?$_Nonconst_traits@U?$pair@$$CBKPAVCTongConnect@@@_STL@@@2@@2@0@Z 0042ce70 f i TongServer.obj
 0001:0002bf00       ?lower_bound@?$_Rb_tree@KU?$pair@$$CBKPAVCTongConnect@@@_STL@@U?$_Select1st@U?$pair@$$CBKPAVCTongConnect@@@_STL@@@2@U?$less@K@2@V?$allocator@U?$pair@$$CBKPAVCTongConnect@@@_STL@@@2@@_STL@@QAE?AU?$_Rb_tree_iterator@U?$pair@$$CBKPAVCTongConnect@@@_STL@@U?$_Nonconst_traits@U?$pair@$$CBKPAVCTongConnect@@@_STL@@@2@@2@ABK@Z 0042cf00 f i TongServer.obj
 0001:0002bf40       ?erase@?$_Rb_tree@KU?$pair@$$CBKPAVCTongConnect@@@_STL@@U?$_Select1st@U?$pair@$$CBKPAVCTongConnect@@@_STL@@@2@U?$less@K@2@V?$allocator@U?$pair@$$CBKPAVCTongConnect@@@_STL@@@2@@_STL@@QAEXU?$_Rb_tree_iterator@U?$pair@$$CBKPAVCTongConnect@@@_STL@@U?$_Nonconst_traits@U?$pair@$$CBKPAVCTongConnect@@@_STL@@@2@@2@@Z 0042cf40 f i TongServer.obj
 0001:0002bf80       ??0?$pair@U?$_Rb_tree_iterator@U?$pair@$$CBKPAVCTongConnect@@@_STL@@U?$_Nonconst_traits@U?$pair@$$CBKPAVCTongConnect@@@_STL@@@2@@_STL@@U12@@_STL@@QAE@ABU?$_Rb_tree_iterator@U?$pair@$$CBKPAVCTongConnect@@@_STL@@U?$_Nonconst_traits@U?$pair@$$CBKPAVCTongConnect@@@_STL@@@2@@1@0@Z 0042cf80 f i TongServer.obj
 0001:0002bfa0       ?deallocate@?$allocator@U?$_Rb_tree_node@U?$pair@$$CBKPAVCTongConnect@@@_STL@@@_STL@@@_STL@@QBEXPAU?$_Rb_tree_node@U?$pair@$$CBKPAVCTongConnect@@@_STL@@@2@I@Z 0042cfa0 f i TongServer.obj
 0001:0002bfe0       ?_M_upper_bound@?$_Rb_tree@KU?$pair@$$CBKPAVCTongConnect@@@_STL@@U?$_Select1st@U?$pair@$$CBKPAVCTongConnect@@@_STL@@@2@U?$less@K@2@V?$allocator@U?$pair@$$CBKPAVCTongConnect@@@_STL@@@2@@_STL@@ABEPAU?$_Rb_tree_node@U?$pair@$$CBKPAVCTongConnect@@@_STL@@@2@ABK@Z 0042cfe0 f i TongServer.obj
 0001:0002c010       ?_M_erase@?$_Rb_tree@KU?$pair@$$CBKPAVCTongConnect@@@_STL@@U?$_Select1st@U?$pair@$$CBKPAVCTongConnect@@@_STL@@@2@U?$less@K@2@V?$allocator@U?$pair@$$CBKPAVCTongConnect@@@_STL@@@2@@_STL@@AAEXPAU?$_Rb_tree_node@U?$pair@$$CBKPAVCTongConnect@@@_STL@@@2@@Z 0042d010 f i TongServer.obj
 0001:0002c050       ?insert_unique@?$_Rb_tree@KU?$pair@$$CBKPAVCTongConnect@@@_STL@@U?$_Select1st@U?$pair@$$CBKPAVCTongConnect@@@_STL@@@2@U?$less@K@2@V?$allocator@U?$pair@$$CBKPAVCTongConnect@@@_STL@@@2@@_STL@@QAE?AU?$_Rb_tree_iterator@U?$pair@$$CBKPAVCTongConnect@@@_STL@@U?$_Nonconst_traits@U?$pair@$$CBKPAVCTongConnect@@@_STL@@@2@@2@U32@ABU?$pair@$$CBKPAVCTongConnect@@@2@@Z 0042d050 f i TongServer.obj
 0001:0002c530       ?begin@?$_Rb_tree@KU?$pair@$$CBKPAVCTongConnect@@@_STL@@U?$_Select1st@U?$pair@$$CBKPAVCTongConnect@@@_STL@@@2@U?$less@K@2@V?$allocator@U?$pair@$$CBKPAVCTongConnect@@@_STL@@@2@@_STL@@QAE?AU?$_Rb_tree_iterator@U?$pair@$$CBKPAVCTongConnect@@@_STL@@U?$_Nonconst_traits@U?$pair@$$CBKPAVCTongConnect@@@_STL@@@2@@2@XZ 0042d530 f i TongServer.obj
 0001:0002c540       ?_M_insert@?$_Rb_tree@KU?$pair@$$CBKPAVCTongConnect@@@_STL@@U?$_Select1st@U?$pair@$$CBKPAVCTongConnect@@@_STL@@@2@U?$less@K@2@V?$allocator@U?$pair@$$CBKPAVCTongConnect@@@_STL@@@2@@_STL@@AAE?AU?$_Rb_tree_iterator@U?$pair@$$CBKPAVCTongConnect@@@_STL@@U?$_Nonconst_traits@U?$pair@$$CBKPAVCTongConnect@@@_STL@@@2@@2@PAU_Rb_tree_node_base@2@0ABU?$pair@$$CBKPAVCTongConnect@@@2@0@Z 0042d540 f i TongServer.obj
 0001:0002c5e0       ?insert_unique@?$_Rb_tree@KU?$pair@$$CBKPAVCTongConnect@@@_STL@@U?$_Select1st@U?$pair@$$CBKPAVCTongConnect@@@_STL@@@2@U?$less@K@2@V?$allocator@U?$pair@$$CBKPAVCTongConnect@@@_STL@@@2@@_STL@@QAE?AU?$pair@U?$_Rb_tree_iterator@U?$pair@$$CBKPAVCTongConnect@@@_STL@@U?$_Nonconst_traits@U?$pair@$$CBKPAVCTongConnect@@@_STL@@@2@@_STL@@_N@2@ABU?$pair@$$CBKPAVCTongConnect@@@2@@Z 0042d5e0 f i TongServer.obj
 0001:0002c750       ?_M_find@?$_Rb_tree@KU?$pair@$$CBKPAVCTongConnect@@@_STL@@U?$_Select1st@U?$pair@$$CBKPAVCTongConnect@@@_STL@@@2@U?$less@K@2@V?$allocator@U?$pair@$$CBKPAVCTongConnect@@@_STL@@@2@@_STL@@ABEPAU?$_Rb_tree_node@U?$pair@$$CBKPAVCTongConnect@@@_STL@@@2@ABK@Z 0042d750 f i TongServer.obj
 0001:0002c790       ?_M_create_node@?$_Rb_tree@KU?$pair@$$CBKPAVCTongConnect@@@_STL@@U?$_Select1st@U?$pair@$$CBKPAVCTongConnect@@@_STL@@@2@U?$less@K@2@V?$allocator@U?$pair@$$CBKPAVCTongConnect@@@_STL@@@2@@_STL@@IAEPAU?$_Rb_tree_node@U?$pair@$$CBKPAVCTongConnect@@@_STL@@@2@ABU?$pair@$$CBKPAVCTongConnect@@@2@@Z 0042d790 f i TongServer.obj
 0001:0002c7c0       ??0?$pair@U?$_Rb_tree_iterator@U?$pair@$$CBKPAVCTongConnect@@@_STL@@U?$_Nonconst_traits@U?$pair@$$CBKPAVCTongConnect@@@_STL@@@2@@_STL@@_N@_STL@@QAE@ABU?$_Rb_tree_iterator@U?$pair@$$CBKPAVCTongConnect@@@_STL@@U?$_Nonconst_traits@U?$pair@$$CBKPAVCTongConnect@@@_STL@@@2@@1@AB_N@Z 0042d7c0 f i TongServer.obj
 0001:0002c7e0       ??0CTongControl@@QAE@HPAD0@Z 0042d7e0 f   KTongControl.obj
 0001:0002c960       ??_ECTongControl@@UAEPAXI@Z 0042d960 f i KTongControl.obj
 0001:0002c960       ??_GCTongControl@@UAEPAXI@Z 0042d960 f i KTongControl.obj
 0001:0002c980       ??0CTongControl@@QAE@UTTongList@@@Z 0042d980 f   KTongControl.obj
 0001:0002ca90       ??1CTongControl@@UAE@XZ    0042da90 f   KTongControl.obj
 0001:0002cab0       ?AddMember@CTongControl@@QAEHPAD@Z 0042dab0 f   KTongControl.obj
 0001:0002cc20       ?ChangePassword@CTongControl@@QAEHPAD0@Z 0042dc20 f   KTongControl.obj
 0001:0002ccc0       ?GetTongHeadInfo@CTongControl@@QAEHPAUSTONG_HEAD_INFO_SYNC@@@Z 0042dcc0 f   KTongControl.obj
 0001:0002ce30       ?GetTongManagerInfo@CTongControl@@QAEHPAUSTONG_GET_MANAGER_INFO_COMMAND@@PAUSTONG_MANAGER_INFO_SYNC@@@Z 0042de30 f   KTongControl.obj
 0001:0002cff0       ?GetTongMemberInfo@CTongControl@@QAEHPAUSTONG_GET_MEMBER_INFO_COMMAND@@PAUSTONG_MEMBER_INFO_SYNC@@@Z 0042dff0 f   KTongControl.obj
 0001:0002d1d0       ?Instate@CTongControl@@QAEHPAUSTONG_INSTATE_COMMAND@@PAUSTONG_INSTATE_SYNC@@@Z 0042e1d0 f   KTongControl.obj
 0001:0002de00       ?Kick@CTongControl@@QAEHPAUSTONG_KICK_COMMAND@@PAUSTONG_KICK_SYNC@@@Z 0042ee00 f   KTongControl.obj
 0001:0002e450       ?Leave@CTongControl@@QAEHPAUSTONG_LEAVE_COMMAND@@PAUSTONG_LEAVE_SYNC@@@Z 0042f450 f   KTongControl.obj
 0001:0002e940       ?AcceptMaster@CTongControl@@QAEHPAUSTONG_ACCEPT_MASTER_COMMAND@@@Z 0042f940 f   KTongControl.obj
 0001:0002f5d0       ?GetLoginData@CTongControl@@QAEHPAUSTONG_GET_LOGIN_DATA_COMMAND@@PAUSTONG_LOGIN_DATA_SYNC@@@Z 004305d0 f   KTongControl.obj
 0001:0002f7f0       ?SearchOne@CTongControl@@QAEHPADPAUSTONG_ONE_LEADER_INFO@@@Z 004307f0 f   KTongControl.obj
 0001:0002fa20       ??0CTongSet@@QAE@XZ        00430a20 f   KTongSet.obj
 0001:0002fa40       ??_ECTongSet@@UAEPAXI@Z    00430a40 f i KTongSet.obj
 0001:0002fa40       ??_GCTongSet@@UAEPAXI@Z    00430a40 f i KTongSet.obj
 0001:0002fa60       ??1CTongSet@@UAE@XZ        00430a60 f   KTongSet.obj
 0001:0002fa70       ?Init@CTongSet@@QAEXXZ     00430a70 f   KTongSet.obj
 0001:0002fab0       ?DeleteAll@CTongSet@@QAEXXZ 00430ab0 f   KTongSet.obj
 0001:0002fb10       ?Create@CTongSet@@QAEHHPAD0@Z 00430b10 f   KTongSet.obj
 0001:0002fda0       ?AddMember@CTongSet@@QAEHPAD0@Z 00430da0 f   KTongSet.obj
 0001:000300e0       ?GetTongCamp@CTongSet@@QAEHH@Z 004310e0 f   KTongSet.obj
 0001:00030110       ?GetMasterName@CTongSet@@QAEHHPAD@Z 00431110 f   KTongSet.obj
 0001:00030170       ?GetMemberTitle@CTongSet@@QAEHHPAD@Z 00431170 f   KTongSet.obj
 0001:000301d0       ?GetTongHeadInfo@CTongSet@@QAEHKPAUSTONG_HEAD_INFO_SYNC@@@Z 004311d0 f   KTongSet.obj
 0001:00030220       ?GetTongManagerInfo@CTongSet@@QAEHPAUSTONG_GET_MANAGER_INFO_COMMAND@@PAUSTONG_MANAGER_INFO_SYNC@@@Z 00431220 f   KTongSet.obj
 0001:00030280       ?GetTongMemberInfo@CTongSet@@QAEHPAUSTONG_GET_MEMBER_INFO_COMMAND@@PAUSTONG_MEMBER_INFO_SYNC@@@Z 00431280 f   KTongSet.obj
 0001:000302e0       ?Instate@CTongSet@@QAEHPAUSTONG_INSTATE_COMMAND@@PAUSTONG_INSTATE_SYNC@@@Z 004312e0 f   KTongSet.obj
 0001:00030340       ?Kick@CTongSet@@QAEHPAUSTONG_KICK_COMMAND@@PAUSTONG_KICK_SYNC@@@Z 00431340 f   KTongSet.obj
 0001:000303a0       ?Leave@CTongSet@@QAEHPAUSTONG_LEAVE_COMMAND@@PAUSTONG_LEAVE_SYNC@@@Z 004313a0 f   KTongSet.obj
 0001:00030400       ?AcceptMaster@CTongSet@@QAEHPAUSTONG_ACCEPT_MASTER_COMMAND@@@Z 00431400 f   KTongSet.obj
 0001:00030450       ?InitFromDB@CTongSet@@QAEHXZ 00431450 f   KTongSet.obj
 0001:00030600       ?GetLoginData@CTongSet@@QAEHPAUSTONG_GET_LOGIN_DATA_COMMAND@@PAUSTONG_LOGIN_DATA_SYNC@@@Z 00431600 f   KTongSet.obj
 0001:00030690       ?SearchOne@CTongSet@@QAEHKPADPAUSTONG_ONE_LEADER_INFO@@@Z 00431690 f   KTongSet.obj
 0001:00030740       ??_ECTongDB@@UAEPAXI@Z     00431740 f i TONGDB.OBJ
 0001:00030740       ??_GCTongDB@@UAEPAXI@Z     00431740 f i TONGDB.OBJ
 0001:00030760       ?get_TongName@@YAHPAU__db@@PBU__db_dbt@@1PAU2@@Z 00431760 f   TONGDB.OBJ
 0001:00030790       ??0CTongDB@@QAE@XZ         00431790 f   TONGDB.OBJ
 0001:000307c0       ?Open@CTongDB@@QAE_NXZ     004317c0 f   TONGDB.OBJ
 0001:000308c0       ?Close@CTongDB@@QAEXXZ     004318c0 f   TONGDB.OBJ
 0001:000308f0       ?ChangeTong@CTongDB@@QAE_NAAVCTongControl@@@Z 004318f0 f   TONGDB.OBJ
 0001:00030a60       ?DelTong@CTongDB@@QAE_NPAD@Z 00431a60 f   TONGDB.OBJ
 0001:00030ac0       ?SearchTong@CTongDB@@QAE_NPADAAVCTongControl@@@Z 00431ac0 f   TONGDB.OBJ
 0001:00030dd0       ?GetTongCount@CTongDB@@QAEHXZ 00431dd0 f   TONGDB.OBJ
 0001:00030e30       ?GetTongList@CTongDB@@QAEHPAUTTongList@@H@Z 00431e30 f   TONGDB.OBJ
 0001:00030f40       ?ChangeMember@CTongDB@@QAE_NUTMemberStruct@@@Z 00431f40 f   TONGDB.OBJ
 0001:00030f70       ?DelMember@CTongDB@@QAE_NPAD@Z 00431f70 f   TONGDB.OBJ
 0001:00030fa0       _GetTickCount@0            00431fa0 f   kernel32:KERNEL32.dll
 0001:00030fa6       _GetModuleFileNameA@12     00431fa6 f   kernel32:KERNEL32.dll
 0001:00030fac       _GetPrivateProfileStringA@24 00431fac f   kernel32:KERNEL32.dll
 0001:00030fb2       _GetPrivateProfileIntA@16  00431fb2 f   kernel32:KERNEL32.dll
 0001:00030fb8       _GetPrivateProfileSectionA@16 00431fb8 f   kernel32:KERNEL32.dll
 0001:00030fbe       _GetPrivateProfileSectionNamesA@12 00431fbe f   kernel32:KERNEL32.dll
 0001:00030fc4       _FreeLibrary@4             00431fc4 f   kernel32:KERNEL32.dll
 0001:00030fca       _GetProcAddress@8          00431fca f   kernel32:KERNEL32.dll
 0001:00030fd0       _LoadLibraryA@4            00431fd0 f   kernel32:KERNEL32.dll
 0001:00030fd6       _Sleep@4                   00431fd6 f   kernel32:KERNEL32.dll
 0001:00030fdc       _CreateEventA@16           00431fdc f   kernel32:KERNEL32.dll
 0001:00030fe2       _CloseHandle@4             00431fe2 f   kernel32:KERNEL32.dll
 0001:00030fe8       _TerminateThread@8         00431fe8 f   kernel32:KERNEL32.dll
 0001:00030fee       _WaitForSingleObject@8     00431fee f   kernel32:KERNEL32.dll
 0001:00030ff4       _SetEvent@4                00431ff4 f   kernel32:KERNEL32.dll
 0001:00030ffa       _InitializeCriticalSection@4 00431ffa f   kernel32:KERNEL32.dll
 0001:00031000       _DeleteCriticalSection@4   00432000 f   kernel32:KERNEL32.dll
 0001:00031006       _EnterCriticalSection@4    00432006 f   kernel32:KERNEL32.dll
 0001:0003100c       _LeaveCriticalSection@4    0043200c f   kernel32:KERNEL32.dll
 0001:00031012       _ResetEvent@4              00432012 f   kernel32:KERNEL32.dll
 0001:00031018       _GetFileAttributesA@4      00432018 f   kernel32:KERNEL32.dll
 0001:0003101e       _WriteFile@20              0043201e f   kernel32:KERNEL32.dll
 0001:00031024       _GetLocalTime@4            00432024 f   kernel32:KERNEL32.dll
 0001:0003102a       _GetFileSize@8             0043202a f   kernel32:KERNEL32.dll
 0001:00031030       _CreateDirectoryA@8        00432030 f   kernel32:KERNEL32.dll
 0001:00031036       _CreateFileA@28            00432036 f   kernel32:KERNEL32.dll
 0001:0003103c       _KillTimer@8               0043203c f   user32:USER32.dll
 0001:00031042       _SetTimer@16               00432042 f   user32:USER32.dll
 0001:00031048       _PostMessageA@16           00432048 f   user32:USER32.dll
 0001:0003104e       _DispatchMessageA@4        0043204e f   user32:USER32.dll
 0001:00031054       _TranslateMessage@4        00432054 f   user32:USER32.dll
 0001:0003105a       _TranslateAcceleratorA@12  0043205a f   user32:USER32.dll
 0001:00031060       _GetMessageA@16            00432060 f   user32:USER32.dll
 0001:00031066       _LoadAcceleratorsA@8       00432066 f   user32:USER32.dll
 0001:0003106c       _LoadStringA@16            0043206c f   user32:USER32.dll
 0001:00031072       _MessageBoxA@16            00432072 f   user32:USER32.dll
 0001:00031078       _DialogBoxParamA@20        00432078 f   user32:USER32.dll
 0001:0003107e       _RegisterClassExA@4        0043207e f   user32:USER32.dll
 0001:00031084       _LoadCursorA@8             00432084 f   user32:USER32.dll
 0001:0003108a       _LoadIconA@8               0043208a f   user32:USER32.dll
 0001:00031090       _SendMessageA@16           00432090 f   user32:USER32.dll
 0001:00031096       _UpdateWindow@4            00432096 f   user32:USER32.dll
 0001:0003109c       _ShowWindow@8              0043209c f   user32:USER32.dll
 0001:000310a2       _GetClientRect@8           004320a2 f   user32:USER32.dll
 0001:000310a8       _CreateWindowExA@48        004320a8 f   user32:USER32.dll
 0001:000310ae       _DefWindowProcA@16         004320ae f   user32:USER32.dll
 0001:000310b4       _DestroyWindow@4           004320b4 f   user32:USER32.dll
 0001:000310ba       _PostQuitMessage@4         004320ba f   user32:USER32.dll
 0001:000310c0       _MoveWindow@24             004320c0 f   user32:USER32.dll
 0001:000310c6       _EndPaint@8                004320c6 f   user32:USER32.dll
 0001:000310cc       _BeginPaint@8              004320cc f   user32:USER32.dll
 0001:000310d2       _EndDialog@8               004320d2 f   user32:USER32.dll
 0001:000310d8       _GetDlgItemTextA@16        004320d8 f   user32:USER32.dll
 0001:000310de       _inet_ntoa@4               004320de f   Ws2_32:WS2_32.dll
 0001:000310e4       _inet_addr@4               004320e4 f   Ws2_32:WS2_32.dll
 0001:000310ea       _lua_tostring              004320ea f   lualibdll:LuaLibDll.dll
 0001:000310f0       _lua_gettop                004320f0 f   lualibdll:LuaLibDll.dll
 0001:000310f6       _lua_tonumber              004320f6 f   lualibdll:LuaLibDll.dll
 0001:000310fc       _lua_pushstring            004320fc f   lualibdll:LuaLibDll.dll
 0001:00031102       ??0KLuaScript@@QAE@XZ      00432102 f   engine:Engine.dll
 0001:00031108       ??1KLuaScript@@UAE@XZ      00432108 f   engine:Engine.dll
 0001:0003110e       ?RegisterFunctions@KLuaScript@@QAEHQAUTLua_Funcs@@H@Z 0043210e f   engine:Engine.dll
 0001:00031114       ?Init@KLuaScript@@UAEHXZ   00432114 f   engine:Engine.dll
 0001:0003111a       ?ExecuteCode@KLuaScript@@QAEHXZ 0043211a f   engine:Engine.dll
 0001:00031120       ?LoadBuffer@KLuaScript@@QAEHPAEK@Z 00432120 f   engine:Engine.dll
 0001:00031126       ?KSG_StringToMD5String@@YAHQADQBD@Z 00432126 f   engine:Engine.dll
 0001:00031130       _db_env_create             00432130 f   libdb41s:env_method.obj
 0001:00031830       ___db_mi_env               00432830 f   libdb41s:env_method.obj
 0001:00031850       ___db_mi_open              00432850 f   libdb41s:env_method.obj
 0001:00031880       ___db_env_config           00432880 f   libdb41s:env_method.obj
 0001:00031910       _db_create                 00432910 f   libdb41s:db_method.obj
 0001:00031c10       ___dbh_am_chk              00432c10 f   libdb41s:db_method.obj
 0001:000320f0       ___db_set_lorder           004330f0 f   libdb41s:db_method.obj
 0001:000322d0       ___os_umalloc              004332d0 f   libdb41s:os_alloc.obj
 0001:00032380       ___os_urealloc             00433380 f   libdb41s:os_alloc.obj
 0001:00032440       ___os_ufree                00433440 f   libdb41s:os_alloc.obj
 0001:00032490       ___os_strdup               00433490 f   libdb41s:os_alloc.obj
 0001:000324f0       ___os_calloc               004334f0 f   libdb41s:os_alloc.obj
 0001:00032540       ___os_malloc               00433540 f   libdb41s:os_alloc.obj
 0001:000325c0       ___os_realloc              004335c0 f   libdb41s:os_alloc.obj
 0001:00032650       ___os_free                 00433650 f   libdb41s:os_alloc.obj
 0001:00032670       ___ua_memcpy               00433670 f   libdb41s:os_alloc.obj
 0001:000326a0       ___txn_dbenv_create        004336a0 f   libdb41s:txn_method.obj
 0001:00032750       ___rep_dbenv_create        00433750 f   libdb41s:rep_method.obj
 0001:00033cb0       ___memp_dbenv_create       00434cb0 f   libdb41s:mp_method.obj
 0001:00033e00       ___lock_dbenv_create       00434e00 f   libdb41s:lock_method.obj
 0001:00033ec0       ___lock_dbenv_close        00434ec0 f   libdb41s:lock_method.obj
 0001:000340f0       ___log_dbenv_create        004350f0 f   libdb41s:log_method.obj
 0001:000342e0       _db_version                004352e0 f   libdb41s:env_open.obj
 0001:00034310       ___dbenv_open              00435310 f   libdb41s:env_open.obj
 0001:000347a0       ___dbenv_remove            004357a0 f   libdb41s:env_open.obj
 0001:00034a10       ___dbenv_close             00435a10 f   libdb41s:env_open.obj
 0001:00034cd0       ___db_appname              00435cd0 f   libdb41s:env_open.obj
 0001:00034fc0       ___db_home                 00435fc0 f   libdb41s:env_open.obj
 0001:00035e10       ___dbenv_dbrename          00436e10 f   libdb41s:db_rename.obj
 0001:00035f70       ___db_rename               00436f70 f   libdb41s:db_rename.obj
 0001:00036030       ___db_rename_i             00437030 f   libdb41s:db_rename.obj
 0001:00036270       ___dbenv_dbremove          00437270 f   libdb41s:db_remove.obj
 0001:000363d0       ___db_remove               004373d0 f   libdb41s:db_remove.obj
 0001:00036480       ___db_remove_i             00437480 f   libdb41s:db_remove.obj
 0001:00036730       ___db_fchk                 00437730 f   libdb41s:db_err.obj
 0001:00036760       ___db_fcchk                00437760 f   libdb41s:db_err.obj
 0001:00036790       ___db_ferr                 00437790 f   libdb41s:db_err.obj
 0001:000367c0       ___db_pgerr                004377c0 f   libdb41s:db_err.obj
 0001:000367f0       ___db_pgfmt                004377f0 f   libdb41s:db_err.obj
 0001:00036820       ___db_eopnotsup            00437820 f   libdb41s:db_err.obj
 0001:00036840       ___db_panic_msg            00437840 f   libdb41s:db_err.obj
 0001:00036860       ___db_panic                00437860 f   libdb41s:db_err.obj
 0001:000368b0       _db_strerror               004378b0 f   libdb41s:db_err.obj
 0001:000369c0       ___db_err                  004379c0 f   libdb41s:db_err.obj
 0001:00036a10       ___db_errcall              00437a10 f   libdb41s:db_err.obj
 0001:00036ad0       ___db_errfile              00437ad0 f   libdb41s:db_err.obj
 0001:00036b60       ___db_logmsg               00437b60 f   libdb41s:db_err.obj
 0001:00036c10       ___db_unknown_flag         00437c10 f   libdb41s:db_err.obj
 0001:00036c40       ___db_unknown_type         00437c40 f   libdb41s:db_err.obj
 0001:00036c70       ___db_check_txn            00437c70 f   libdb41s:db_err.obj
 0001:00036d80       ___db_not_txn_env          00437d80 f   libdb41s:db_err.obj
 0001:00036da0       ___db_xa_create            00437da0 f   libdb41s:xa_db.obj
 0001:00036fc0       ___qam_db_create           00437fc0 f   libdb41s:qam_method.obj
 0001:00037000       ___qam_db_close            00438000 f   libdb41s:qam_method.obj
 0001:00037120       ___db_prqueue              00438120 f   libdb41s:qam_method.obj
 0001:000372a0       ___qam_remove              004382a0 f   libdb41s:qam_method.obj
 0001:00037500       ___qam_rename              00438500 f   libdb41s:qam_method.obj
 0001:00037750       ___ham_db_create           00438750 f   libdb41s:hash_method.obj
 0001:000377a0       ___ham_db_close            004387a0 f   libdb41s:hash_method.obj
 0001:000378c0       ___bam_db_create           004388c0 f   libdb41s:bt_method.obj
 0001:00037980       ___bam_db_close            00438980 f   libdb41s:bt_method.obj
 0001:000379d0       ___bam_set_flags           004389d0 f   libdb41s:bt_method.obj
 0001:00037c50       ___ram_set_flags           00438c50 f   libdb41s:bt_method.obj
 0001:00037e50       ___db_verify               00438e50 f   libdb41s:db_vrfy.obj
 0001:00037e80       ___db_verify_callback      00438e80 f   libdb41s:db_vrfy.obj
 0001:00037ec0       ___db_verify_internal      00438ec0 f   libdb41s:db_vrfy.obj
 0001:00039080       ___db_vrfy_datapage        0043a080 f   libdb41s:db_vrfy.obj
 0001:00039270       ___db_vrfy_meta            0043a270 f   libdb41s:db_vrfy.obj
 0001:00039840       ___db_vrfy_struct_feedback 0043a840 f   libdb41s:db_vrfy.obj
 0001:00039fd0       ___db_vrfy_inpitem         0043afd0 f   libdb41s:db_vrfy.obj
 0001:0003a190       ___db_vrfy_duptype         0043b190 f   libdb41s:db_vrfy.obj
 0001:0003a2c0       ___db_salvage_duptree      0043b2c0 f   libdb41s:db_vrfy.obj
 0001:0003abf0       ___db_upgrade              0043bbf0 f   libdb41s:db_upg.obj
 0001:0003b170       ___db_lastpgno             0043c170 f   libdb41s:db_upg.obj
 0001:0003b210       ___db_cursor               0043c210 f   libdb41s:db_am.obj
 0001:0003b370       ___db_icursor              0043c370 f   libdb41s:db_am.obj
 0001:0003b7c0       ___db_fd                   0043c7c0 f   libdb41s:db_am.obj
 0001:0003b860       ___db_get                  0043c860 f   libdb41s:db_am.obj
 0001:0003b9a0       ___db_put                  0043c9a0 f   libdb41s:db_am.obj
 0001:0003bcc0       ___db_delete               0043ccc0 f   libdb41s:db_am.obj
 0001:0003bf40       ___db_sync                 0043cf40 f   libdb41s:db_am.obj
 0001:0003c000       ___db_associate            0043d000 f   libdb41s:db_am.obj
 0001:0003c4f0       ___db_pget                 0043d4f0 f   libdb41s:db_am.obj
 0001:0003c9e0       ___db_truncate             0043d9e0 f   libdb41s:db_truncate.obj
 0001:0003cb30       ___db_master_open          0043db30 f   libdb41s:db.obj
 0001:0003cc30       ___db_master_update        0043dc30 f   libdb41s:db.obj
 0001:0003d0e0       ___db_dbenv_setup          0043e0e0 f   libdb41s:db.obj
 0001:0003d450       ___db_close                0043e450 f   libdb41s:db.obj
 0001:0003d4b0       ___db_close_i              0043e4b0 f   libdb41s:db.obj
 0001:0003d580       ___db_refresh              0043e580 f   libdb41s:db.obj
 0001:0003d940       ___db_log_page             0043e940 f   libdb41s:db.obj
 0001:0003d9c0       ___db_backup_name          0043e9c0 f   libdb41s:db.obj
 0001:0003db00       ___dblist_get              0043eb00 f   libdb41s:db.obj
 0001:0003dbe0       ___db_open                 0043ebe0 f   libdb41s:db_open.obj
 0001:0003de20       ___db_dbopen               0043ee20 f   libdb41s:db_open.obj
 0001:0003e060       ___db_new_file             0043f060 f   libdb41s:db_open.obj
 0001:0003e110       ___db_init_subdb           0043f110 f   libdb41s:db_open.obj
 0001:0003e210       ___db_chk_meta             0043f210 f   libdb41s:db_open.obj
 0001:0003e270       ___db_meta_setup           0043f270 f   libdb41s:db_open.obj
 0001:0003e6b0       ___db_join                 0043f6b0 f   libdb41s:db_join.obj
 0001:0003f2d0       ___db_isbigendian          004402d0 f   libdb41s:db_byteorder.obj
 0001:0003f2e0       ___db_byteorder            004402e0 f   libdb41s:db_byteorder.obj
 0001:0003f330       ___os_get_errno            00440330 f   libdb41s:os_errno.obj
 0001:0003f340       ___os_set_errno            00440340 f   libdb41s:os_errno.obj
 0001:0003f350       ___os_win32_errno          00440350 f   libdb41s:os_errno.obj
 0001:0003f420       _txn_abort                 00440420 f   libdb41s:txn.obj
 0001:0003f430       _txn_begin                 00440430 f   libdb41s:txn.obj
 0001:0003f450       _txn_commit                00440450 f   libdb41s:txn.obj
 0001:0003f470       ___txn_begin               00440470 f   libdb41s:txn.obj
 0001:0003f680       ___txn_xa_begin            00440680 f   libdb41s:txn.obj
 0001:0003f6f0       ___txn_compensate_begin    004406f0 f   libdb41s:txn.obj
 0001:0003fb50       ___txn_commit              00440b50 f   libdb41s:txn.obj
 0001:0003fe00       ___txn_abort               00440e00 f   libdb41s:txn.obj
 0001:0003fff0       ___txn_discard             00440ff0 f   libdb41s:txn.obj
 0001:000400c0       ___txn_prepare             004410c0 f   libdb41s:txn.obj
 0001:00040280       ___txn_id                  00441280 f   libdb41s:txn.obj
 0001:00040850       ___txn_checkpoint          00441850 f   libdb41s:txn.obj
 0001:00040af0       ___txn_getckp              00441af0 f   libdb41s:txn.obj
 0001:00040b50       ___txn_activekids          00441b50 f   libdb41s:txn.obj
 0001:00040b90       ___txn_force_abort         00441b90 f   libdb41s:txn.obj
 0001:00040c80       ___txn_preclose            00441c80 f   libdb41s:txn.obj
 0001:00040d10       ___txn_reset               00441d10 f   libdb41s:txn.obj
 0001:00040d50       ___txn_updateckp           00441d50 f   libdb41s:txn.obj
 0001:00040dc0       ___txn_stat                00441dc0 f   libdb41s:txn_stat.obj
 0001:00040fb0       ___txn_continue            00441fb0 f   libdb41s:txn_recover.obj
 0001:00041010       ___txn_map_gid             00442010 f   libdb41s:txn_recover.obj
 0001:000410c0       ___txn_recover             004420c0 f   libdb41s:txn_recover.obj
 0001:00041150       ___txn_get_prepared        00442150 f   libdb41s:txn_recover.obj
 0001:000415b0       ___rep_process_message     004425b0 f   libdb41s:rep_record.obj
 0001:00043390       ___rep_process_txn         00444390 f   libdb41s:rep_record.obj
 0001:00043860       ___rep_check_alloc         00444860 f   libdb41s:rep_util.obj
 0001:000438c0       ___rep_send_message        004448c0 f   libdb41s:rep_util.obj
 0001:000439d0       ___rep_new_master          004449d0 f   libdb41s:rep_util.obj
 0001:00043c30       ___rep_lockpgno_init       00444c30 f   libdb41s:rep_util.obj
 0001:00043cd0       ___rep_unlockpages         00444cd0 f   libdb41s:rep_util.obj
 0001:00043d00       ___rep_lockpages           00444d00 f   libdb41s:rep_util.obj
 0001:00044160       ___rep_is_client           00445160 f   libdb41s:rep_util.obj
 0001:000441b0       ___rep_send_vote           004451b0 f   libdb41s:rep_util.obj
 0001:00044220       ___rep_grow_sites          00445220 f   libdb41s:rep_util.obj
 0001:000442d0       ___db_win32_mutex_init     004452d0 f   libdb41s:mut_win32.obj
 0001:00044350       ___db_win32_mutex_lock     00445350 f   libdb41s:mut_win32.obj
 0001:00044430       ___db_win32_mutex_unlock   00445430 f   libdb41s:mut_win32.obj
 0001:000444c0       ___db_win32_mutex_destroy  004454c0 f   libdb41s:mut_win32.obj
 0001:000444d0       ___rep_region_init         004454d0 f   libdb41s:rep_region.obj
 0001:00044640       ___rep_region_destroy      00445640 f   libdb41s:rep_region.obj
 0001:00044690       ___rep_dbenv_close         00445690 f   libdb41s:rep_region.obj
 0001:000446c0       ___rep_preclose            004456c0 f   libdb41s:rep_region.obj
 0001:00044750       ___dbreg_add_dbentry       00445750 f   libdb41s:dbreg_util.obj
 0001:00044810       ___dbreg_rem_dbentry       00445810 f   libdb41s:dbreg_util.obj
 0001:00044870       ___dbreg_open_files        00445870 f   libdb41s:dbreg_util.obj
 0001:00044970       ___dbreg_close_files       00445970 f   libdb41s:dbreg_util.obj
 0001:00044a70       ___dbreg_nofiles           00445a70 f   libdb41s:dbreg_util.obj
 0001:00044af0       ___dbreg_id_to_db          00445af0 f   libdb41s:dbreg_util.obj
 0001:00044b20       ___dbreg_id_to_db_int      00445b20 f   libdb41s:dbreg_util.obj
 0001:00044c30       ___dbreg_id_to_fname       00445c30 f   libdb41s:dbreg_util.obj
 0001:00044cb0       ___dbreg_fid_to_fname      00445cb0 f   libdb41s:dbreg_util.obj
 0001:00044d50       ___dbreg_get_name          00445d50 f   libdb41s:dbreg_util.obj
 0001:00044da0       ___dbreg_do_open           00445da0 f   libdb41s:dbreg_util.obj
 0001:00044fc0       ___dbreg_lazy_id           00445fc0 f   libdb41s:dbreg_util.obj
 0001:00045020       ___dbreg_push_id           00446020 f   libdb41s:dbreg_util.obj
 0001:00045140       ___dbreg_pop_id            00446140 f   libdb41s:dbreg_util.obj
 0001:00045190       ___dbreg_pluck_id          00446190 f   libdb41s:dbreg_util.obj
 0001:000451f0       ___db_dispatch             004461f0 f   libdb41s:db_dispatch.obj
 0001:000454f0       ___db_add_recovery         004464f0 f   libdb41s:db_dispatch.obj
 0001:00045550       ___db_txnlist_init         00446550 f   libdb41s:db_dispatch.obj
 0001:000456b0       ___db_txnlist_add          004466b0 f   libdb41s:db_dispatch.obj
 0001:00045780       ___db_txnlist_remove       00446780 f   libdb41s:db_dispatch.obj
 0001:000457b0       ___db_txnlist_ckp          004467b0 f   libdb41s:db_dispatch.obj
 0001:000457f0       ___db_txnlist_end          004467f0 f   libdb41s:db_dispatch.obj
 0001:00045890       ___db_txnlist_find         00446890 f   libdb41s:db_dispatch.obj
 0001:000458c0       ___db_txnlist_update       004468c0 f   libdb41s:db_dispatch.obj
 0001:00045aa0       ___db_txnlist_gen          00446aa0 f   libdb41s:db_dispatch.obj
 0001:00045b40       ___db_txnlist_lsnadd       00446b40 f   libdb41s:db_dispatch.obj
 0001:00045c70       ___db_txnlist_lsninit      00446c70 f   libdb41s:db_dispatch.obj
 0001:00045d30       ___db_add_limbo            00446d30 f   libdb41s:db_dispatch.obj
 0001:00045dc0       ___db_do_the_limbo         00446dc0 f   libdb41s:db_dispatch.obj
 0001:00046770       ___txn_regop_log           00447770 f   libdb41s:txn_auto.obj
 0001:000468b0       ___txn_regop_getpgnos      004478b0 f   libdb41s:txn_auto.obj
 0001:00046930       ___txn_regop_print         00447930 f   libdb41s:txn_auto.obj
 0001:000469c0       ___txn_regop_read          004479c0 f   libdb41s:txn_auto.obj
 0001:00046a40       ___txn_ckp_log             00447a40 f   libdb41s:txn_auto.obj
 0001:00046bb0       ___txn_ckp_getpgnos        00447bb0 f   libdb41s:txn_auto.obj
 0001:00046c30       ___txn_ckp_print           00447c30 f   libdb41s:txn_auto.obj
 0001:00046ce0       ___txn_ckp_read            00447ce0 f   libdb41s:txn_auto.obj
 0001:00046d80       ___txn_child_log           00447d80 f   libdb41s:txn_auto.obj
 0001:00046ed0       ___txn_child_getpgnos      00447ed0 f   libdb41s:txn_auto.obj
 0001:00046f50       ___txn_child_print         00447f50 f   libdb41s:txn_auto.obj
 0001:00046fe0       ___txn_child_read          00447fe0 f   libdb41s:txn_auto.obj
 0001:00047070       ___txn_xa_regop_log        00448070 f   libdb41s:txn_auto.obj
 0001:00047210       ___txn_xa_regop_getpgnos   00448210 f   libdb41s:txn_auto.obj
 0001:00047290       ___txn_xa_regop_print      00448290 f   libdb41s:txn_auto.obj
 0001:000473e0       ___txn_xa_regop_read       004483e0 f   libdb41s:txn_auto.obj
 0001:000474c0       ___txn_recycle_log         004484c0 f   libdb41s:txn_auto.obj
 0001:00047600       ___txn_recycle_getpgnos    00448600 f   libdb41s:txn_auto.obj
 0001:00047680       ___txn_recycle_print       00448680 f   libdb41s:txn_auto.obj
 0001:00047710       ___txn_recycle_read        00448710 f   libdb41s:txn_auto.obj
 0001:00047790       ___txn_init_print          00448790 f   libdb41s:txn_auto.obj
 0001:00047810       ___txn_init_getpgnos       00448810 f   libdb41s:txn_auto.obj
 0001:00047890       ___txn_init_recover        00448890 f   libdb41s:txn_auto.obj
 0001:00047910       ___txn_regop_recover       00448910 f   libdb41s:txn_rec.obj
 0001:00047a80       ___txn_xa_regop_recover    00448a80 f   libdb41s:txn_rec.obj
 0001:00047be0       ___txn_ckp_recover         00448be0 f   libdb41s:txn_rec.obj
 0001:00047c40       ___txn_child_recover       00448c40 f   libdb41s:txn_rec.obj
 0001:00047dc0       ___txn_restore_txn         00448dc0 f   libdb41s:txn_rec.obj
 0001:00047f90       ___txn_recycle_recover     00448f90 f   libdb41s:txn_rec.obj
 0001:00048000       _log_compare               00449000 f   libdb41s:log_compare.obj
 0001:00048030       ___os_clock                00449030 f   libdb41s:os_clock.obj
 0001:00048080       ___os_id                   00449080 f   libdb41s:os_id.obj
 0001:00048090       ___os_sleep                00449090 f   libdb41s:os_sleep.obj
 0001:000480f0       ___memp_trickle            004490f0 f   libdb41s:mp_trickle.obj
 0001:00048250       ___memp_sync               00449250 f   libdb41s:mp_sync.obj
 0001:000483b0       ___memp_fsync              004493b0 f   libdb41s:mp_sync.obj
 0001:00048410       ___mp_xxx_fh               00449410 f   libdb41s:mp_sync.obj
 0001:00048440       ___memp_sync_int           00449440 f   libdb41s:mp_sync.obj
 0001:00048c70       ___memp_stat               00449c70 f   libdb41s:mp_stat.obj
 0001:000491b0       ___memp_dump_region        0044a1b0 f   libdb41s:mp_stat.obj
 0001:00049700       ___memp_stat_hash          0044a700 f   libdb41s:mp_stat.obj
 0001:000497b0       ___memp_register           0044a7b0 f   libdb41s:mp_register.obj
 0001:00049910       ___memp_open               0044a910 f   libdb41s:mp_region.obj
 0001:00049f60       ___memp_dbenv_refresh      0044af60 f   libdb41s:mp_region.obj
 0001:0004a040       ___mpool_region_destroy    0044b040 f   libdb41s:mp_region.obj
 0001:0004a050       ___memp_nameop             0044b050 f   libdb41s:mp_region.obj
 0001:0004a210       ___memp_fcreate            0044b210 f   libdb41s:mp_fopen.obj
 0001:0004a670       ___memp_fopen_int          0044b670 f   libdb41s:mp_fopen.obj
 0001:0004b050       ___memp_fclose_int         0044c050 f   libdb41s:mp_fopen.obj
 0001:0004b2b0       ___memp_mf_discard         0044c2b0 f   libdb41s:mp_fopen.obj
 0001:0004b490       ___memp_fn                 0044c490 f   libdb41s:mp_fopen.obj
 0001:0004b4b0       ___memp_fns                0044c4b0 f   libdb41s:mp_fopen.obj
 0001:0004b4d0       ___lock_id                 0044c4d0 f   libdb41s:lock.obj
 0001:0004b660       ___lock_id_free            0044c660 f   libdb41s:lock.obj
 0001:0004b750       ___lock_vec                0044c750 f   libdb41s:lock.obj
 0001:0004be20       ___lock_get                0044ce20 f   libdb41s:lock.obj
 0001:0004c9b0       ___lock_put                0044d9b0 f   libdb41s:lock.obj
 0001:0004cb20       ___lock_downgrade          0044db20 f   libdb41s:lock.obj
 0001:0004d090       ___lock_addfamilylocker    0044e090 f   libdb41s:lock.obj
 0001:0004d1d0       ___lock_freefamilylocker   0044e1d0 f   libdb41s:lock.obj
 0001:0004d390       ___lock_set_timeout        0044e390 f   libdb41s:lock.obj
 0001:0004d4a0       ___lock_inherit_timeout    0044e4a0 f   libdb41s:lock.obj
 0001:0004d5a0       ___lock_getlocker          0044e5a0 f   libdb41s:lock.obj
 0001:0004d970       ___lock_promote            0044e970 f   libdb41s:lock.obj
 0001:0004dcc0       ___lock_expired            0044ecc0 f   libdb41s:lock.obj
 0001:0004de20       ___lock_stat               0044ee20 f   libdb41s:lock_stat.obj
 0001:0004dfd0       ___lock_dump_region        0044efd0 f   libdb41s:lock_stat.obj
 0001:0004e4c0       ___lock_printlock          0044f4c0 f   libdb41s:lock_stat.obj
 0001:0004e6a0       ___lock_detect             0044f6a0 f   libdb41s:lock_deadlock.obj
 0001:0004f7c0       ___log_open                004507c0 f   libdb41s:log.obj
 0001:0004fd10       ___log_find                00450d10 f   libdb41s:log.obj
 0001:0004ff40       ___log_valid               00450f40 f   libdb41s:log.obj
 0001:000501f0       ___log_dbenv_refresh       004511f0 f   libdb41s:log.obj
 0001:00050290       ___log_stat                00451290 f   libdb41s:log.obj
 0001:00050430       ___log_get_cached_ckp_lsn  00451430 f   libdb41s:log.obj
 0001:00050490       ___log_region_destroy      00451490 f   libdb41s:log.obj
 0001:000504a0       ___log_vtruncate           004514a0 f   libdb41s:log.obj
 0001:000506e0       ___log_is_outdated         004516e0 f   libdb41s:log.obj
 0001:000508f0       ___log_put                 004518f0 f   libdb41s:log_put.obj
 0001:00050c80       ___log_txn_lsn             00451c80 f   libdb41s:log_put.obj
 0001:00050e90       ___log_newfile             00451e90 f   libdb41s:log_put.obj
 0001:000511d0       ___log_flush               004521d0 f   libdb41s:log_put.obj
 0001:00051b30       ___log_file                00452b30 f   libdb41s:log_put.obj
 0001:00051cd0       ___log_name                00452cd0 f   libdb41s:log_put.obj
 0001:00051e10       ___log_rep_put             00452e10 f   libdb41s:log_put.obj
 0001:00051f90       ___log_cursor              00452f90 f   libdb41s:log_get.obj
 0001:00052f70       ___log_archive             00453f70 f   libdb41s:log_archive.obj
 0001:00053b30       ___db_mutex_setup          00454b30 f   libdb41s:mutex.obj
 0001:00053bf0       ___db_mutex_free           00454bf0 f   libdb41s:mutex.obj
 0001:00053c00       ___db_apprec               00454c00 f   libdb41s:env_recover.obj
 0001:00054a40       ___env_openfiles           00455a40 f   libdb41s:env_recover.obj
 0001:00054b50       ___qam_incfirst_log        00455b50 f   libdb41s:qam_auto.obj
 0001:00054cb0       ___qam_incfirst_getpgnos   00455cb0 f   libdb41s:qam_auto.obj
 0001:00054dd0       ___qam_incfirst_print      00455dd0 f   libdb41s:qam_auto.obj
 0001:00054e70       ___qam_incfirst_read       00455e70 f   libdb41s:qam_auto.obj
 0001:00054f00       ___qam_mvptr_log           00455f00 f   libdb41s:qam_auto.obj
 0001:000550a0       ___qam_mvptr_getpgnos      004560a0 f   libdb41s:qam_auto.obj
 0001:000551c0       ___qam_mvptr_print         004561c0 f   libdb41s:qam_auto.obj
 0001:000552c0       ___qam_mvptr_read          004562c0 f   libdb41s:qam_auto.obj
 0001:000553a0       ___qam_del_log             004563a0 f   libdb41s:qam_auto.obj
 0001:00055530       ___qam_del_getpgnos        00456530 f   libdb41s:qam_auto.obj
 0001:00055650       ___qam_del_print           00456650 f   libdb41s:qam_auto.obj
 0001:00055720       ___qam_del_read            00456720 f   libdb41s:qam_auto.obj
 0001:000557d0       ___qam_add_log             004567d0 f   libdb41s:qam_auto.obj
 0001:000559d0       ___qam_add_getpgnos        004569d0 f   libdb41s:qam_auto.obj
 0001:00055af0       ___qam_add_print           00456af0 f   libdb41s:qam_auto.obj
 0001:00055cd0       ___qam_add_read            00456cd0 f   libdb41s:qam_auto.obj
 0001:00055df0       ___qam_delext_log          00456df0 f   libdb41s:qam_auto.obj
 0001:00055fb0       ___qam_delext_getpgnos     00456fb0 f   libdb41s:qam_auto.obj
 0001:00056030       ___qam_delext_print        00457030 f   libdb41s:qam_auto.obj
 0001:00056180       ___qam_delext_read         00457180 f   libdb41s:qam_auto.obj
 0001:00056260       ___qam_init_print          00457260 f   libdb41s:qam_auto.obj
 0001:000562e0       ___qam_init_getpgnos       004572e0 f   libdb41s:qam_auto.obj
 0001:00056360       ___qam_init_recover        00457360 f   libdb41s:qam_auto.obj
 0001:000563e0       ___ham_insdel_log          004573e0 f   libdb41s:hash_auto.obj
 0001:000565f0       ___ham_insdel_getpgnos     004575f0 f   libdb41s:hash_auto.obj
 0001:00056710       ___ham_insdel_print        00457710 f   libdb41s:hash_auto.obj
 0001:000568e0       ___ham_insdel_read         004578e0 f   libdb41s:hash_auto.obj
 0001:000569f0       ___ham_newpage_log         004579f0 f   libdb41s:hash_auto.obj
 0001:00056bd0       ___ham_newpage_getpgnos    00457bd0 f   libdb41s:hash_auto.obj
 0001:00056e20       ___ham_newpage_print       00457e20 f   libdb41s:hash_auto.obj
 0001:00056f30       ___ham_newpage_read        00457f30 f   libdb41s:hash_auto.obj
 0001:00057020       ___ham_splitdata_log       00458020 f   libdb41s:hash_auto.obj
 0001:000571e0       ___ham_splitdata_getpgnos  004581e0 f   libdb41s:hash_auto.obj
 0001:00057300       ___ham_splitdata_print     00458300 f   libdb41s:hash_auto.obj
 0001:00057440       ___ham_splitdata_read      00458440 f   libdb41s:hash_auto.obj
 0001:00057520       ___ham_replace_log         00458520 f   libdb41s:hash_auto.obj
 0001:00057730       ___ham_replace_getpgnos    00458730 f   libdb41s:hash_auto.obj
 0001:00057850       ___ham_replace_print       00458850 f   libdb41s:hash_auto.obj
 0001:00057a40       ___ham_replace_read        00458a40 f   libdb41s:hash_auto.obj
 0001:00057b60       ___ham_copypage_log        00458b60 f   libdb41s:hash_auto.obj
 0001:00057d60       ___ham_copypage_getpgnos   00458d60 f   libdb41s:hash_auto.obj
 0001:00057f90       ___ham_copypage_print      00458f90 f   libdb41s:hash_auto.obj
 0001:00058110       ___ham_copypage_read       00459110 f   libdb41s:hash_auto.obj
 0001:00058220       ___ham_metagroup_log       00459220 f   libdb41s:hash_auto.obj
 0001:00058400       ___ham_metagroup_getpgnos  00459400 f   libdb41s:hash_auto.obj
 0001:00058640       ___ham_metagroup_print     00459640 f   libdb41s:hash_auto.obj
 0001:00058760       ___ham_metagroup_read      00459760 f   libdb41s:hash_auto.obj
 0001:00058860       ___ham_groupalloc_log      00459860 f   libdb41s:hash_auto.obj
 0001:000589f0       ___ham_groupalloc_getpgnos 004599f0 f   libdb41s:hash_auto.obj
 0001:00058b10       ___ham_groupalloc_print    00459b10 f   libdb41s:hash_auto.obj
 0001:00058be0       ___ham_groupalloc_read     00459be0 f   libdb41s:hash_auto.obj
 0001:00058c90       ___ham_curadj_log          00459c90 f   libdb41s:hash_auto.obj
 0001:00058e20       ___ham_curadj_getpgnos     00459e20 f   libdb41s:hash_auto.obj
 0001:00058ea0       ___ham_curadj_print        00459ea0 f   libdb41s:hash_auto.obj
 0001:00058fa0       ___ham_curadj_read         00459fa0 f   libdb41s:hash_auto.obj
 0001:00059070       ___ham_chgpg_log           0045a070 f   libdb41s:hash_auto.obj
 0001:000591f0       ___ham_chgpg_getpgnos      0045a1f0 f   libdb41s:hash_auto.obj
 0001:00059270       ___ham_chgpg_print         0045a270 f   libdb41s:hash_auto.obj
 0001:00059350       ___ham_chgpg_read          0045a350 f   libdb41s:hash_auto.obj
 0001:00059410       ___ham_init_print          0045a410 f   libdb41s:hash_auto.obj
 0001:00059500       ___ham_init_getpgnos       0045a500 f   libdb41s:hash_auto.obj
 0001:000595f0       ___ham_init_recover        0045a5f0 f   libdb41s:hash_auto.obj
 0001:000596e0       ___fop_create_log          0045a6e0 f   libdb41s:fileops_auto.obj
 0001:00059850       ___fop_create_getpgnos     0045a850 f   libdb41s:fileops_auto.obj
 0001:000598d0       ___fop_create_print        0045a8d0 f   libdb41s:fileops_auto.obj
 0001:000599e0       ___fop_create_read         0045a9e0 f   libdb41s:fileops_auto.obj
 0001:00059a90       ___fop_remove_log          0045aa90 f   libdb41s:fileops_auto.obj
 0001:00059c50       ___fop_remove_getpgnos     0045ac50 f   libdb41s:fileops_auto.obj
 0001:00059cd0       ___fop_remove_print        0045acd0 f   libdb41s:fileops_auto.obj
 0001:00059e50       ___fop_remove_read         0045ae50 f   libdb41s:fileops_auto.obj
 0001:00059f20       ___fop_write_log           0045af20 f   libdb41s:fileops_auto.obj
 0001:0005a0f0       ___fop_write_getpgnos      0045b0f0 f   libdb41s:fileops_auto.obj
 0001:0005a170       ___fop_write_print         0045b170 f   libdb41s:fileops_auto.obj
 0001:0005a320       ___fop_write_read          0045b320 f   libdb41s:fileops_auto.obj
 0001:0005a400       ___fop_rename_log          0045b400 f   libdb41s:fileops_auto.obj
 0001:0005a610       ___fop_rename_getpgnos     0045b610 f   libdb41s:fileops_auto.obj
 0001:0005a690       ___fop_rename_print        0045b690 f   libdb41s:fileops_auto.obj
 0001:0005a890       ___fop_rename_read         0045b890 f   libdb41s:fileops_auto.obj
 0001:0005a990       ___fop_file_remove_log     0045b990 f   libdb41s:fileops_auto.obj
 0001:0005aba0       ___fop_file_remove_getpgnos 0045bba0 f   libdb41s:fileops_auto.obj
 0001:0005ac20       ___fop_file_remove_print   0045bc20 f   libdb41s:fileops_auto.obj
 0001:0005ae30       ___fop_file_remove_read    0045be30 f   libdb41s:fileops_auto.obj
 0001:0005af30       ___fop_init_print          0045bf30 f   libdb41s:fileops_auto.obj
 0001:0005afc0       ___fop_init_getpgnos       0045bfc0 f   libdb41s:fileops_auto.obj
 0001:0005b050       ___fop_init_recover        0045c050 f   libdb41s:fileops_auto.obj
 0001:0005b0e0       ___dbreg_register_log      0045c0e0 f   libdb41s:dbreg_auto.obj
 0001:0005b2c0       ___dbreg_register_getpgnos 0045c2c0 f   libdb41s:dbreg_auto.obj
 0001:0005b340       ___dbreg_register_print    0045c340 f   libdb41s:dbreg_auto.obj
 0001:0005b510       ___dbreg_register_read     0045c510 f   libdb41s:dbreg_auto.obj
 0001:0005b610       ___dbreg_init_print        0045c610 f   libdb41s:dbreg_auto.obj
 0001:0005b630       ___dbreg_init_getpgnos     0045c630 f   libdb41s:dbreg_auto.obj
 0001:0005b650       ___dbreg_init_recover      0045c650 f   libdb41s:dbreg_auto.obj
 0001:0005b670       ___db_addrem_log           0045c670 f   libdb41s:db_auto.obj
 0001:0005b890       ___db_addrem_getpgnos      0045c890 f   libdb41s:db_auto.obj
 0001:0005b9b0       ___db_addrem_print         0045c9b0 f   libdb41s:db_auto.obj
 0001:0005bb90       ___db_addrem_read          0045cb90 f   libdb41s:db_auto.obj
 0001:0005bcb0       ___db_big_log              0045ccb0 f   libdb41s:db_auto.obj
 0001:0005bec0       ___db_big_getpgnos         0045cec0 f   libdb41s:db_auto.obj
 0001:0005c110       ___db_big_print            0045d110 f   libdb41s:db_auto.obj
 0001:0005c2a0       ___db_big_read             0045d2a0 f   libdb41s:db_auto.obj
 0001:0005c3c0       ___db_ovref_log            0045d3c0 f   libdb41s:db_auto.obj
 0001:0005c540       ___db_ovref_getpgnos       0045d540 f   libdb41s:db_auto.obj
 0001:0005c660       ___db_ovref_print          0045d660 f   libdb41s:db_auto.obj
 0001:0005c720       ___db_ovref_read           0045d720 f   libdb41s:db_auto.obj
 0001:0005c7d0       ___db_relink_log           0045d7d0 f   libdb41s:db_auto.obj
 0001:0005c9b0       ___db_relink_getpgnos      0045d9b0 f   libdb41s:db_auto.obj
 0001:0005cc00       ___db_relink_print         0045dc00 f   libdb41s:db_auto.obj
 0001:0005cd10       ___db_relink_read          0045dd10 f   libdb41s:db_auto.obj
 0001:0005ce00       ___db_debug_log            0045de00 f   libdb41s:db_auto.obj
 0001:0005cfe0       ___db_debug_getpgnos       0045dfe0 f   libdb41s:db_auto.obj
 0001:0005d060       ___db_debug_print          0045e060 f   libdb41s:db_auto.obj
 0001:0005d270       ___db_debug_read           0045e270 f   libdb41s:db_auto.obj
 0001:0005d370       ___db_noop_log             0045e370 f   libdb41s:db_auto.obj
 0001:0005d4e0       ___db_noop_getpgnos        0045e4e0 f   libdb41s:db_auto.obj
 0001:0005d600       ___db_noop_print           0045e600 f   libdb41s:db_auto.obj
 0001:0005d6a0       ___db_noop_read            0045e6a0 f   libdb41s:db_auto.obj
 0001:0005d740       ___db_pg_alloc_log         0045e740 f   libdb41s:db_auto.obj
 0001:0005d8f0       ___db_pg_alloc_getpgnos    0045e8f0 f   libdb41s:db_auto.obj
 0001:0005daa0       ___db_pg_alloc_print       0045eaa0 f   libdb41s:db_auto.obj
 0001:0005dba0       ___db_pg_alloc_read        0045eba0 f   libdb41s:db_auto.obj
 0001:0005dc80       ___db_pg_free_log          0045ec80 f   libdb41s:db_auto.obj
 0001:0005de40       ___db_pg_free_getpgnos     0045ee40 f   libdb41s:db_auto.obj
 0001:0005dff0       ___db_pg_free_print        0045eff0 f   libdb41s:db_auto.obj
 0001:0005e140       ___db_pg_free_read         0045f140 f   libdb41s:db_auto.obj
 0001:0005e220       ___db_cksum_log            0045f220 f   libdb41s:db_auto.obj
 0001:0005e350       ___db_cksum_getpgnos       0045f350 f   libdb41s:db_auto.obj
 0001:0005e3d0       ___db_cksum_print          0045f3d0 f   libdb41s:db_auto.obj
 0001:0005e440       ___db_cksum_read           0045f440 f   libdb41s:db_auto.obj
 0001:0005e4a0       ___db_init_print           0045f4a0 f   libdb41s:db_auto.obj
 0001:0005e590       ___db_init_getpgnos        0045f590 f   libdb41s:db_auto.obj
 0001:0005e680       ___db_init_recover         0045f680 f   libdb41s:db_auto.obj
 0001:0005e770       ___crdel_metasub_log       0045f770 f   libdb41s:crdel_auto.obj
 0001:0005e920       ___crdel_metasub_getpgnos  0045f920 f   libdb41s:crdel_auto.obj
 0001:0005ea40       ___crdel_metasub_print     0045fa40 f   libdb41s:crdel_auto.obj
 0001:0005eb70       ___crdel_metasub_read      0045fb70 f   libdb41s:crdel_auto.obj
 0001:0005ec40       ___crdel_init_print        0045fc40 f   libdb41s:crdel_auto.obj
 0001:0005ec70       ___crdel_init_getpgnos     0045fc70 f   libdb41s:crdel_auto.obj
 0001:0005eca0       ___crdel_init_recover      0045fca0 f   libdb41s:crdel_auto.obj
 0001:0005ecd0       ___bam_split_log           0045fcd0 f   libdb41s:btree_auto.obj
 0001:0005ef00       ___bam_split_getpgnos      0045ff00 f   libdb41s:btree_auto.obj
 0001:0005f130       ___bam_split_print         00460130 f   libdb41s:btree_auto.obj
 0001:0005f2e0       ___bam_split_read          004602e0 f   libdb41s:btree_auto.obj
 0001:0005f420       ___bam_rsplit_log          00460420 f   libdb41s:btree_auto.obj
 0001:0005f630       ___bam_rsplit_getpgnos     00460630 f   libdb41s:btree_auto.obj
 0001:0005f7e0       ___bam_rsplit_print        004607e0 f   libdb41s:btree_auto.obj
 0001:0005f9b0       ___bam_rsplit_read         004609b0 f   libdb41s:btree_auto.obj
 0001:0005fac0       ___bam_adj_log             00460ac0 f   libdb41s:btree_auto.obj
 0001:0005fc50       ___bam_adj_getpgnos        00460c50 f   libdb41s:btree_auto.obj
 0001:0005fd70       ___bam_adj_print           00460d70 f   libdb41s:btree_auto.obj
 0001:0005fe50       ___bam_adj_read            00460e50 f   libdb41s:btree_auto.obj
 0001:0005ff10       ___bam_cadjust_log         00460f10 f   libdb41s:btree_auto.obj
 0001:000600a0       ___bam_cadjust_getpgnos    004610a0 f   libdb41s:btree_auto.obj
 0001:000601c0       ___bam_cadjust_print       004611c0 f   libdb41s:btree_auto.obj
 0001:000602a0       ___bam_cadjust_read        004612a0 f   libdb41s:btree_auto.obj
 0001:00060360       ___bam_cdel_log            00461360 f   libdb41s:btree_auto.obj
 0001:000604e0       ___bam_cdel_getpgnos       004614e0 f   libdb41s:btree_auto.obj
 0001:00060600       ___bam_cdel_print          00461600 f   libdb41s:btree_auto.obj
 0001:000606c0       ___bam_cdel_read           004616c0 f   libdb41s:btree_auto.obj
 0001:00060770       ___bam_repl_log            00461770 f   libdb41s:btree_auto.obj
 0001:00060980       ___bam_repl_getpgnos       00461980 f   libdb41s:btree_auto.obj
 0001:00060aa0       ___bam_repl_print          00461aa0 f   libdb41s:btree_auto.obj
 0001:00060ca0       ___bam_repl_read           00461ca0 f   libdb41s:btree_auto.obj
 0001:00060dc0       ___bam_root_log            00461dc0 f   libdb41s:btree_auto.obj
 0001:00060f40       ___bam_root_getpgnos       00461f40 f   libdb41s:btree_auto.obj
 0001:000610f0       ___bam_root_print          004620f0 f   libdb41s:btree_auto.obj
 0001:000611b0       ___bam_root_read           004621b0 f   libdb41s:btree_auto.obj
 0001:00061260       ___bam_curadj_log          00462260 f   libdb41s:btree_auto.obj
 0001:000613f0       ___bam_curadj_getpgnos     004623f0 f   libdb41s:btree_auto.obj
 0001:00061470       ___bam_curadj_print        00462470 f   libdb41s:btree_auto.obj
 0001:00061570       ___bam_curadj_read         00462570 f   libdb41s:btree_auto.obj
 0001:00061640       ___bam_rcuradj_log         00462640 f   libdb41s:btree_auto.obj
 0001:000617c0       ___bam_rcuradj_getpgnos    004627c0 f   libdb41s:btree_auto.obj
 0001:00061840       ___bam_rcuradj_print       00462840 f   libdb41s:btree_auto.obj
 0001:00061910       ___bam_rcuradj_read        00462910 f   libdb41s:btree_auto.obj
 0001:000619c0       ___bam_init_print          004629c0 f   libdb41s:btree_auto.obj
 0001:00061ab0       ___bam_init_getpgnos       00462ab0 f   libdb41s:btree_auto.obj
 0001:00061ba0       ___bam_init_recover        00462ba0 f   libdb41s:btree_auto.obj
 0001:00061c90       ___txn_open                00462c90 f   libdb41s:txn_region.obj
 0001:00062000       ___txn_dbenv_refresh       00463000 f   libdb41s:txn_region.obj
 0001:00062110       ___txn_region_destroy      00463110 f   libdb41s:txn_region.obj
 0001:00062120       ___lock_open               00463120 f   libdb41s:lock_region.obj
 0001:000626d0       ___lock_dbenv_refresh      004636d0 f   libdb41s:lock_region.obj
 0001:000627c0       ___lock_region_destroy     004637c0 f   libdb41s:lock_region.obj
 0001:000627d0       ___db_e_attach             004637d0 f   libdb41s:env_region.obj
 0001:00062f10       ___db_e_detach             00463f10 f   libdb41s:env_region.obj
 0001:00062ff0       ___db_e_remove             00463ff0 f   libdb41s:env_region.obj
 0001:00063470       ___db_e_stat               00464470 f   libdb41s:env_region.obj
 0001:00063570       ___db_r_attach             00464570 f   libdb41s:env_region.obj
 0001:00063700       ___db_r_detach             00464700 f   libdb41s:env_region.obj
 0001:00063a90       ___db_oflags               00464a90 f   libdb41s:os_oflags.obj
 0001:00063ac0       ___db_omode                00464ac0 f   libdb41s:os_oflags.obj
 0001:00063ae0       ___os_tmpdir               00464ae0 f   libdb41s:os_tmpdir.obj
 0001:00063cd0       ___os_exists               00464cd0 f   libdb41s:os_stat.obj
 0001:00063d30       ___os_ioinfo               00464d30 f   libdb41s:os_stat.obj
 0001:00063e20       ___os_abspath              00464e20 f   libdb41s:os_abs.obj
 0001:00063e80       ___os_isroot               00464e80 f   libdb41s:os_root.obj
 0001:00063e90       ___db_Cstrcasecmp          00464e90 f   libdb41s:strcasecmp.obj
 0001:00063f00       ___db_Cstrncasecmp         00464f00 f   libdb41s:strcasecmp.obj
 0001:00063f80       ___os_open                 00464f80 f   libdb41s:os_open.obj
 0001:00064280       ___db_cursorchk            00465280 f   libdb41s:db_iface.obj
 0001:00064370       ___db_ccountchk            00465370 f   libdb41s:db_iface.obj
 0001:000643b0       ___db_cdelchk              004653b0 f   libdb41s:db_iface.obj
 0001:00064420       ___db_cgetchk              00465420 f   libdb41s:db_iface.obj
 0001:00064620       ___db_cputchk              00465620 f   libdb41s:db_iface.obj
 0001:00064790       ___db_pgetchk              00465790 f   libdb41s:db_iface.obj
 0001:00064850       ___db_cpgetchk             00465850 f   libdb41s:db_iface.obj
 0001:00064950       ___db_delchk               00465950 f   libdb41s:db_iface.obj
 0001:000649b0       ___db_getchk               004659b0 f   libdb41s:db_iface.obj
 0001:00064b50       ___db_joinchk              00465b50 f   libdb41s:db_iface.obj
 0001:00064be0       ___db_joingetchk           00465be0 f   libdb41s:db_iface.obj
 0001:00064c60       ___db_putchk               00465c60 f   libdb41s:db_iface.obj
 0001:00064da0       ___db_statchk              00465da0 f   libdb41s:db_iface.obj
 0001:00064e20       ___db_syncchk              00465e20 f   libdb41s:db_iface.obj
 0001:00064f70       ___db_secondary_corrupt    00465f70 f   libdb41s:db_iface.obj
 0001:00064f90       ___db_associatechk         00465f90 f   libdb41s:db_iface.obj
 0001:00065060       ___db_txn_auto             00466060 f   libdb41s:db_iface.obj
 0001:000650c0       ___fop_lock_handle         004660c0 f   libdb41s:fop_util.obj
 0001:00065250       ___fop_file_setup          00466250 f   libdb41s:fop_util.obj
 0001:00065c30       ___fop_subdb_setup         00466c30 f   libdb41s:fop_util.obj
 0001:00065e70       ___fop_remove_setup        00466e70 f   libdb41s:fop_util.obj
 0001:00065fe0       ___fop_read_meta           00466fe0 f   libdb41s:fop_util.obj
 0001:000660e0       ___fop_dummy               004670e0 f   libdb41s:fop_util.obj
 0001:000664e0       ___fop_dbrename            004674e0 f   libdb41s:fop_util.obj
 0001:00066610       ___fop_create              00467610 f   libdb41s:fop_basic.obj
 0001:00066750       ___fop_remove              00467750 f   libdb41s:fop_basic.obj
 0001:00066870       ___fop_write               00467870 f   libdb41s:fop_basic.obj
 0001:00066a00       ___fop_rename              00467a00 f   libdb41s:fop_basic.obj
 0001:00066b60       ___bam_reclaim             00467b60 f   libdb41s:bt_reclaim.obj
 0001:00066bc0       ___bam_truncate            00467bc0 f   libdb41s:bt_reclaim.obj
 0001:00066c40       ___ham_reclaim             00467c40 f   libdb41s:hash_reclaim.obj
 0001:00066cf0       ___ham_truncate            00467cf0 f   libdb41s:hash_reclaim.obj
 0001:00066dc0       ___qam_fprobe              00467dc0 f   libdb41s:qam_files.obj
 0001:00067300       ___qam_fclose              00468300 f   libdb41s:qam_files.obj
 0001:00067390       ___qam_fremove             00468390 f   libdb41s:qam_files.obj
 0001:000674a0       ___qam_sync                004684a0 f   libdb41s:qam_files.obj
 0001:00067670       ___qam_gen_filelist        00468670 f   libdb41s:qam_files.obj
 0001:000677c0       ___qam_extent_names        004687c0 f   libdb41s:qam_files.obj
 0001:000679b0       ___qam_exid                004689b0 f   libdb41s:qam_files.obj
 0001:000679e0       ___db_loadme               004689e0 f   libdb41s:db_pr.obj
 0001:000679f0       ___db_dump                 004689f0 f   libdb41s:db_pr.obj
 0001:00067aa0       ___db_inmemdbflags         00468aa0 f   libdb41s:db_pr.obj
 0001:00067d10       ___db_prnpage              00468d10 f   libdb41s:db_pr.obj
 0001:00067d70       ___db_prpage               00468d70 f   libdb41s:db_pr.obj
 0001:00068980       ___db_pr                   00469980 f   libdb41s:db_pr.obj
 0001:00068a80       ___db_prdbt                00469a80 f   libdb41s:db_pr.obj
 0001:00068d40       ___db_prflags              00469d40 f   libdb41s:db_pr.obj
 0001:00068da0       ___db_dbtype_to_string     00469da0 f   libdb41s:db_pr.obj
 0001:00068e70       ___db_prheader             00469e70 f   libdb41s:db_pr.obj
 0001:000695d0       ___db_prfooter             0046a5d0 f   libdb41s:db_pr.obj
 0001:000695f0       ___txn_remevent            0046a5f0 f   libdb41s:txn_util.obj
 0001:000696c0       ___txn_lockevent           0046a6c0 f   libdb41s:txn_util.obj
 0001:00069760       ___txn_remlock             0046a760 f   libdb41s:txn_util.obj
 0001:000697d0       ___txn_doevents            0046a7d0 f   libdb41s:txn_util.obj
 0001:000699e0       ___db_rpath                0046a9e0 f   libdb41s:os_rpath.obj
 0001:00069a40       ___bam_cmp                 0046aa40 f   libdb41s:bt_compare.obj
 0001:00069bc0       ___bam_defcmp              0046abc0 f   libdb41s:bt_compare.obj
 0001:00069c10       ___bam_defpfx              0046ac10 f   libdb41s:bt_compare.obj
 0001:00069c70       ___db_vrfy_dbinfo_create   0046ac70 f   libdb41s:db_vrfyutil.obj
 0001:00069e00       ___db_vrfy_dbinfo_destroy  0046ae00 f   libdb41s:db_vrfyutil.obj
 0001:00069e80       ___db_vrfy_getpageinfo     0046ae80 f   libdb41s:db_vrfyutil.obj
 0001:00069f90       ___db_vrfy_putpageinfo     0046af90 f   libdb41s:db_vrfyutil.obj
 0001:0006a040       ___db_vrfy_pgset           0046b040 f   libdb41s:db_vrfyutil.obj
 0001:0006a0c0       ___db_vrfy_pgset_get       0046b0c0 f   libdb41s:db_vrfyutil.obj
 0001:0006a150       ___db_vrfy_pgset_inc       0046b150 f   libdb41s:db_vrfyutil.obj
 0001:0006a170       ___db_vrfy_pgset_dec       0046b170 f   libdb41s:db_vrfyutil.obj
 0001:0006a240       ___db_vrfy_pgset_next      0046b240 f   libdb41s:db_vrfyutil.obj
 0001:0006a2b0       ___db_vrfy_childcursor     0046b2b0 f   libdb41s:db_vrfyutil.obj
 0001:0006a2e0       ___db_vrfy_childput        0046b2e0 f   libdb41s:db_vrfyutil.obj
 0001:0006a3e0       ___db_vrfy_ccset           0046b3e0 f   libdb41s:db_vrfyutil.obj
 0001:0006a440       ___db_vrfy_ccnext          0046b440 f   libdb41s:db_vrfyutil.obj
 0001:0006a490       ___db_vrfy_ccclose         0046b490 f   libdb41s:db_vrfyutil.obj
 0001:0006a4e0       ___db_salvage_init         0046b4e0 f   libdb41s:db_vrfyutil.obj
 0001:0006a560       ___db_salvage_destroy      0046b560 f   libdb41s:db_vrfyutil.obj
 0001:0006a580       ___db_salvage_getnext      0046b580 f   libdb41s:db_vrfyutil.obj
 0001:0006a650       ___db_salvage_isdone       0046b650 f   libdb41s:db_vrfyutil.obj
 0001:0006a6f0       ___db_salvage_markdone     0046b6f0 f   libdb41s:db_vrfyutil.obj
 0001:0006a7a0       ___db_salvage_markneeded   0046b7a0 f   libdb41s:db_vrfyutil.obj
 0001:0006a810       ___os_openhandle           0046b810 f   libdb41s:os_handle.obj
 0001:0006a8e0       ___os_closehandle          0046b8e0 f   libdb41s:os_handle.obj
 0001:0006a960       ___os_io                   0046b960 f   libdb41s:os_rw.obj
 0001:0006aab0       ___os_read                 0046bab0 f   libdb41s:os_rw.obj
 0001:0006ab70       ___os_write                0046bb70 f   libdb41s:os_rw.obj
 0001:0006aeb0       ___os_seek                 0046beb0 f   libdb41s:os_seek.obj
 0001:0006b010       ___qam_vrfy_meta           0046c010 f   libdb41s:qam_verify.obj
 0001:0006b150       ___qam_vrfy_data           0046c150 f   libdb41s:qam_verify.obj
 0001:0006b200       ___qam_vrfy_structure      0046c200 f   libdb41s:qam_verify.obj
 0001:0006b340       ___bam_vrfy_meta           0046c340 f   libdb41s:bt_verify.obj
 0001:0006b690       ___ram_vrfy_leaf           0046c690 f   libdb41s:bt_verify.obj
 0001:0006b8b0       ___bam_vrfy                0046c8b0 f   libdb41s:bt_verify.obj
 0001:0006c3f0       ___bam_vrfy_itemorder      0046d3f0 f   libdb41s:bt_verify.obj
 0001:0006c8d0       ___bam_vrfy_structure      0046d8d0 f   libdb41s:bt_verify.obj
 0001:0006cb40       ___bam_vrfy_subtree        0046db40 f   libdb41s:bt_verify.obj
 0001:0006da20       ___bam_salvage             0046ea20 f   libdb41s:bt_verify.obj
 0001:0006de60       ___bam_salvage_walkdupint  0046ee60 f   libdb41s:bt_verify.obj
 0001:0006df80       ___bam_meta2pgset          0046ef80 f   libdb41s:bt_verify.obj
 0001:0006e230       ___ham_vrfy_meta           0046f230 f   libdb41s:hash_verify.obj
 0001:0006e4d0       ___ham_vrfy                0046f4d0 f   libdb41s:hash_verify.obj
 0001:0006eab0       ___ham_vrfy_structure      0046fab0 f   libdb41s:hash_verify.obj
 0001:0006f1e0       ___ham_vrfy_hashing        004701e0 f   libdb41s:hash_verify.obj
 0001:0006f320       ___ham_salvage             00470320 f   libdb41s:hash_verify.obj
 0001:0006f730       ___ham_meta2pgset          00470730 f   libdb41s:hash_verify.obj
 0001:0006f910       ___db_goff                 00470910 f   libdb41s:db_overflow.obj
 0001:0006faf0       ___db_poff                 00470af0 f   libdb41s:db_overflow.obj
 0001:0006fd70       ___db_ovref                00470d70 f   libdb41s:db_overflow.obj
 0001:0006fe40       ___db_doff                 00470e40 f   libdb41s:db_overflow.obj
 0001:0006ffc0       ___db_moff                 00470fc0 f   libdb41s:db_overflow.obj
 0001:00070150       ___db_vrfy_overflow        00471150 f   libdb41s:db_overflow.obj
 0001:00070230       ___db_vrfy_ovfl_structure  00471230 f   libdb41s:db_overflow.obj
 0001:000704e0       ___db_safe_goff            004714e0 f   libdb41s:db_overflow.obj
 0001:000706c0       ___db_c_close              004716c0 f   libdb41s:db_cam.obj
 0001:000708e0       ___db_c_destroy            004718e0 f   libdb41s:db_cam.obj
 0001:000709c0       ___db_c_count              004719c0 f   libdb41s:db_cam.obj
 0001:00070aa0       ___db_c_del                00471aa0 f   libdb41s:db_cam.obj
 0001:00070c00       ___db_c_dup                00471c00 f   libdb41s:db_cam.obj
 0001:00070d60       ___db_c_idup               00471d60 f   libdb41s:db_cam.obj
 0001:00070f20       ___db_c_newopd             00471f20 f   libdb41s:db_cam.obj
 0001:00070fe0       ___db_c_get                00471fe0 f   libdb41s:db_cam.obj
 0001:000716b0       ___db_c_put                004726b0 f   libdb41s:db_cam.obj
 0001:00072180       ___db_duperr               00473180 f   libdb41s:db_cam.obj
 0001:000722e0       ___db_c_secondary_get      004732e0 f   libdb41s:db_cam.obj
 0001:00072300       ___db_c_pget               00473300 f   libdb41s:db_cam.obj
 0001:00072810       ___db_c_del_primary        00473810 f   libdb41s:db_cam.obj
 0001:00072a30       ___db_s_first              00473a30 f   libdb41s:db_cam.obj
 0001:00072a80       ___db_s_next               00473a80 f   libdb41s:db_cam.obj
 0001:00072b30       ___db_s_done               00473b30 f   libdb41s:db_cam.obj
 0001:00072cd0       ___db_partsize             00473cd0 f   libdb41s:db_cam.obj
 0001:00072d00       ___db_log2                 00473d00 f   libdb41s:db_log2.obj
 0001:00072d20       ___ham_func2               00473d20 f   libdb41s:hash_func.obj
 0001:00072d60       ___ham_func3               00473d60 f   libdb41s:hash_func.obj
 0001:00072e60       ___ham_func4               00473e60 f   libdb41s:hash_func.obj
 0001:00072f20       ___ham_func5               00473f20 f   libdb41s:hash_func.obj
 0001:00072f50       ___ham_test                00473f50 f   libdb41s:hash_func.obj
 0001:00072f60       ___bam_30_btreemeta        00473f60 f   libdb41s:bt_upgrade.obj
 0001:00072fc0       ___bam_31_btreemeta        00473fc0 f   libdb41s:bt_upgrade.obj
 0001:00073040       ___bam_31_lbtree           00474040 f   libdb41s:bt_upgrade.obj
 0001:00073180       ___ham_30_hashmeta         00474180 f   libdb41s:hash_upgrade.obj
 0001:000732a0       ___ham_30_sizefix          004742a0 f   libdb41s:hash_upgrade.obj
 0001:00073350       ___ham_31_hashmeta         00474350 f   libdb41s:hash_upgrade.obj
 0001:000733f0       ___ham_31_hash             004743f0 f   libdb41s:hash_upgrade.obj
 0001:00073490       ___os_fsync                00474490 f   libdb41s:os_fsync.obj
 0001:00073510       ___qam_31_qammeta          00474510 f   libdb41s:qam_upgrade.obj
 0001:00073570       ___qam_32_qammeta          00474570 f   libdb41s:qam_upgrade.obj
 0001:000735c0       ___bam_c_init              004745c0 f   libdb41s:bt_cursor.obj
 0001:000736d0       ___bam_c_refresh           004746d0 f   libdb41s:bt_cursor.obj
 0001:00073c50       ___bam_c_count             00474c50 f   libdb41s:bt_cursor.obj
 0001:00074070       ___bam_c_dup               00475070 f   libdb41s:bt_cursor.obj
 0001:00074ff0       ___bam_bulk_overflow       00475ff0 f   libdb41s:bt_cursor.obj
 0001:00075040       ___bam_bulk_duplicates     00476040 f   libdb41s:bt_cursor.obj
 0001:000760a0       ___bam_c_rget              004770a0 f   libdb41s:bt_cursor.obj
 0001:00077410       ___qam_position            00478410 f   libdb41s:qam.obj
 0001:00077590       ___qam_pitem               00478590 f   libdb41s:qam.obj
 0001:00077870       ___qam_append              00478870 f   libdb41s:qam.obj
 0001:00077bd0       ___qam_c_dup               00478bd0 f   libdb41s:qam.obj
 0001:00077c40       ___qam_c_init              00478c40 f   libdb41s:qam.obj
 0001:000798f0       ___qam_truncate            0047a8f0 f   libdb41s:qam.obj
 0001:00079ad0       ___ham_quick_delete        0047aad0 f   libdb41s:hash.obj
 0001:00079b10       ___ham_c_init              0047ab10 f   libdb41s:hash.obj
 0001:00079d80       ___ham_c_count             0047ad80 f   libdb41s:hash.obj
 0001:0007a150       ___ham_c_dup               0047b150 f   libdb41s:hash.obj
 0001:0007b730       ___ham_call_hash           0047c730 f   libdb41s:hash.obj
 0001:0007c2d0       ___ham_init_dbt            0047d2d0 f   libdb41s:hash.obj
 0001:0007c330       ___ham_c_update            0047d330 f   libdb41s:hash.obj
 0001:0007c740       ___ham_get_clist           0047d740 f   libdb41s:hash.obj
 0001:0007c9b0       ___ram_open                0047d9b0 f   libdb41s:bt_recno.obj
 0001:0007ca60       ___ram_append              0047da60 f   libdb41s:bt_recno.obj
 0001:0007cad0       ___ram_c_del               0047dad0 f   libdb41s:bt_recno.obj
 0001:0007cd60       ___ram_c_get               0047dd60 f   libdb41s:bt_recno.obj
 0001:0007d1c0       ___ram_c_put               0047e1c0 f   libdb41s:bt_recno.obj
 0001:0007d640       ___ram_ca                  0047e640 f   libdb41s:bt_recno.obj
 0001:0007daa0       ___ram_getno               0047eaa0 f   libdb41s:bt_recno.obj
 0001:0007dc50       ___ram_writeback           0047ec50 f   libdb41s:bt_recno.obj
 0001:0007e260       ___db_new                  0047f260 f   libdb41s:db_meta.obj
 0001:0007e570       ___db_free                 0047f570 f   libdb41s:db_meta.obj
 0001:0007e760       ___db_lget                 0047f760 f   libdb41s:db_meta.obj
 0001:0007e9b0       ___db_lput                 0047f9b0 f   libdb41s:db_meta.obj
 0001:0007ea30       ___dbreg_setup             0047fa30 f   libdb41s:dbreg.obj
 0001:0007eba0       ___dbreg_teardown          0047fba0 f   libdb41s:dbreg.obj
 0001:0007ec10       ___dbreg_new_id            0047fc10 f   libdb41s:dbreg.obj
 0001:0007eda0       ___dbreg_assign_id         0047fda0 f   libdb41s:dbreg.obj
 0001:0007eee0       ___dbreg_revoke_id         0047fee0 f   libdb41s:dbreg.obj
 0001:0007efa0       ___dbreg_close_id          0047ffa0 f   libdb41s:dbreg.obj
 0001:0007f0a0       ___db_pgin                 004800a0 f   libdb41s:db_conv.obj
 0001:0007f360       ___db_pgout                00480360 f   libdb41s:db_conv.obj
 0001:0007f540       ___db_metaswap             00480540 f   libdb41s:db_conv.obj
 0001:0007f6e0       ___db_byteswap             004806e0 f   libdb41s:db_conv.obj
 0001:0007fe40       ___qam_open                00480e40 f   libdb41s:qam_open.obj
 0001:00080090       ___qam_metachk             00481090 f   libdb41s:qam_open.obj
 0001:000801a0       ___qam_new_file            004811a0 f   libdb41s:qam_open.obj
 0001:00080410       ___ham_open                00481410 f   libdb41s:hash_open.obj
 0001:000805d0       ___ham_metachk             004815d0 f   libdb41s:hash_open.obj
 0001:00080790       ___ham_new_file            00481790 f   libdb41s:hash_open.obj
 0001:00080b80       ___ham_new_subdb           00481b80 f   libdb41s:hash_open.obj
 0001:00080ec0       ___bam_open                00481ec0 f   libdb41s:bt_open.obj
 0001:00080fc0       ___bam_metachk             00481fc0 f   libdb41s:bt_open.obj
 0001:000812e0       ___bam_read_root           004822e0 f   libdb41s:bt_open.obj
 0001:00081450       ___bam_new_file            00482450 f   libdb41s:bt_open.obj
 0001:000817f0       ___bam_new_subdb           004827f0 f   libdb41s:bt_open.obj
 0001:00081a20       ___db_chksum               00482a20 f   libdb41s:hmac.obj
 0001:00081bd0       ___db_derive_mac           00482bd0 f   libdb41s:hmac.obj
 0001:00081c30       ___db_check_chksum         00482c30 f   libdb41s:hmac.obj
 0001:00081d30       ___db_ret                  00482d30 f   libdb41s:db_ret.obj
 0001:00081ef0       ___db_retcopy              00482ef0 f   libdb41s:db_ret.obj
 0001:00082000       ___db_shalloc_init         00483000 f   libdb41s:db_salloc.obj
 0001:00082060       ___db_shalloc_size         00483060 f   libdb41s:db_salloc.obj
 0001:00082090       ___db_shalloc              00483090 f   libdb41s:db_salloc.obj
 0001:00082160       ___db_shalloc_free         00483160 f   libdb41s:db_salloc.obj
 0001:00082330       ___db_shsizeof             00483330 f   libdb41s:db_salloc.obj
 0001:00082350       ___db_shalloc_dump         00483350 f   libdb41s:db_salloc.obj
 0001:000823c0       ___db_idspace              004833c0 f   libdb41s:db_idspace.obj
 0001:00082490       ___os_spin                 00483490 f   libdb41s:os_spin.obj
 0001:000824e0       ___os_yield                004834e0 f   libdb41s:os_spin.obj
 0001:00082510       ___memp_bhwrite            00483510 f   libdb41s:mp_bh.obj
 0001:00082760       ___memp_pgread             00483760 f   libdb41s:mp_bh.obj
 0001:00082ad0       ___memp_pg                 00483ad0 f   libdb41s:mp_bh.obj
 0001:00082c30       ___memp_bhfree             00483c30 f   libdb41s:mp_bh.obj
 0001:00082e60       ___db_tablesize            00483e60 f   libdb41s:db_shash.obj
 0001:00082ea0       ___db_hashinit             00483ea0 f   libdb41s:db_shash.obj
 0001:00082ec0       ___os_rename               00483ec0 f   libdb41s:os_rename.obj
 0001:00082f70       ___os_region_unlink        00483f70 f   libdb41s:os_unlink.obj
 0001:00082fa0       ___os_unlink               00483fa0 f   libdb41s:os_unlink.obj
 0001:00083000       ___memp_alloc              00484000 f   libdb41s:mp_alloc.obj
 0001:00083580       ___memp_fset               00484580 f   libdb41s:mp_fset.obj
 0001:00083710       ___memp_fput               00484710 f   libdb41s:mp_fput.obj
 0001:00083ab0       ___memp_fget               00484ab0 f   libdb41s:mp_fget.obj
 0001:00084510       ___os_r_sysattach          00485510 f   libdb41s:os_map.obj
 0001:000845d0       ___os_r_sysdetach          004855d0 f   libdb41s:os_map.obj
 0001:00084670       ___os_mapfile              00485670 f   libdb41s:os_map.obj
 0001:000846d0       ___os_unmapfile            004856d0 f   libdb41s:os_map.obj
 0001:00084990       ___os_fileid               00485990 f   libdb41s:os_fid.obj
 0001:00084b10       ___lock_cmp                00485b10 f   libdb41s:lock_util.obj
 0001:00084b40       ___lock_locker_cmp         00485b40 f   libdb41s:lock_util.obj
 0001:00084b60       ___lock_ohash              00485b60 f   libdb41s:lock_util.obj
 0001:00084bc0       ___lock_lhash              00485bc0 f   libdb41s:lock_util.obj
 0001:00084c20       ___lock_locker_hash        00485c20 f   libdb41s:lock_util.obj
 0001:00084c30       ___os_dirlist              00485c30 f   libdb41s:os_dir.obj
 0001:00084d90       ___os_dirfree              00485d90 f   libdb41s:os_dir.obj
 0001:00084df0       ___qam_incfirst_recover    00485df0 f   libdb41s:qam_rec.obj
 0001:000851b0       ___qam_mvptr_recover       004861b0 f   libdb41s:qam_rec.obj
 0001:00085470       ___qam_del_recover         00486470 f   libdb41s:qam_rec.obj
 0001:000857f0       ___qam_delext_recover      004867f0 f   libdb41s:qam_rec.obj
 0001:00085ba0       ___qam_add_recover         00486ba0 f   libdb41s:qam_rec.obj
 0001:00085fb0       ___ham_insdel_recover      00486fb0 f   libdb41s:hash_rec.obj
 0001:00086310       ___ham_newpage_recover     00487310 f   libdb41s:hash_rec.obj
 0001:000868b0       ___ham_replace_recover     004878b0 f   libdb41s:hash_rec.obj
 0001:00086bc0       ___ham_splitdata_recover   00487bc0 f   libdb41s:hash_rec.obj
 0001:00086ea0       ___ham_copypage_recover    00487ea0 f   libdb41s:hash_rec.obj
 0001:000873d0       ___ham_metagroup_recover   004883d0 f   libdb41s:hash_rec.obj
 0001:000878f0       ___ham_groupalloc_recover  004888f0 f   libdb41s:hash_rec.obj
 0001:00087ce0       ___ham_curadj_recover      00488ce0 f   libdb41s:hash_rec.obj
 0001:00087e50       ___ham_chgpg_recover       00488e50 f   libdb41s:hash_rec.obj
 0001:000881d0       ___fop_create_recover      004891d0 f   libdb41s:fop_rec.obj
 0001:000882d0       ___fop_remove_recover      004892d0 f   libdb41s:fop_rec.obj
 0001:000883a0       ___fop_write_recover       004893a0 f   libdb41s:fop_rec.obj
 0001:00088440       ___fop_rename_recover      00489440 f   libdb41s:fop_rec.obj
 0001:00088600       ___fop_file_remove_recover 00489600 f   libdb41s:fop_rec.obj
 0001:000887e0       ___dbreg_register_recover  004897e0 f   libdb41s:dbreg_rec.obj
 0001:00088cc0       ___db_addrem_recover       00489cc0 f   libdb41s:db_rec.obj
 0001:00088fc0       ___db_big_recover          00489fc0 f   libdb41s:db_rec.obj
 0001:000895e0       ___db_ovref_recover        0048a5e0 f   libdb41s:db_rec.obj
 0001:00089830       ___db_relink_recover       0048a830 f   libdb41s:db_rec.obj
 0001:00089d80       ___db_debug_recover        0048ad80 f   libdb41s:db_rec.obj
 0001:00089dd0       ___db_noop_recover         0048add0 f   libdb41s:db_rec.obj
 0001:00089fd0       ___db_pg_alloc_recover     0048afd0 f   libdb41s:db_rec.obj
 0001:0008a4e0       ___db_pg_free_recover      0048b4e0 f   libdb41s:db_rec.obj
 0001:0008a8e0       ___db_cksum_recover        0048b8e0 f   libdb41s:db_rec.obj
 0001:0008a950       ___crdel_metasub_recover   0048b950 f   libdb41s:crdel_rec.obj
 0001:0008aba0       ___bam_split_recover       0048bba0 f   libdb41s:bt_rec.obj
 0001:0008b730       ___bam_rsplit_recover      0048c730 f   libdb41s:bt_rec.obj
 0001:0008bba0       ___bam_adj_recover         0048cba0 f   libdb41s:bt_rec.obj
 0001:0008be60       ___bam_cadjust_recover     0048ce60 f   libdb41s:bt_rec.obj
 0001:0008c230       ___bam_cdel_recover        0048d230 f   libdb41s:bt_rec.obj
 0001:0008c550       ___bam_repl_recover        0048d550 f   libdb41s:bt_rec.obj
 0001:0008ca00       ___bam_root_recover        0048da00 f   libdb41s:bt_rec.obj
 0001:0008cc70       ___bam_curadj_recover      0048dc70 f   libdb41s:bt_rec.obj
 0001:0008ce20       ___bam_rcuradj_recover     0048de20 f   libdb41s:bt_rec.obj
 0001:0008cfd0       ___os_r_attach             0048dfd0 f   libdb41s:os_region.obj
 0001:0008d060       ___os_r_detach             0048e060 f   libdb41s:os_region.obj
 0001:0008d0c0       ___db_fileinit             0048e0c0 f   libdb41s:env_file.obj
 0001:0008d1e0       ___db_overwrite            0048e1e0 f   libdb41s:env_file.obj
 0001:0008d400       ___os_is_winnt             0048e400 f   libdb41s:os_type.obj
 0001:0008d420       ___bam_stat                0048e420 f   libdb41s:bt_stat.obj
 0001:0008d950       ___bam_traverse            0048e950 f   libdb41s:bt_stat.obj
 0001:0008dde0       ___bam_stat_callback       0048ede0 f   libdb41s:bt_stat.obj
 0001:0008e1a0       ___bam_key_range           0048f1a0 f   libdb41s:bt_stat.obj
 0001:0008e3c0       ___db_traverse_big         0048f3c0 f   libdb41s:db_reclaim.obj
 0001:0008e460       ___db_reclaim_callback     0048f460 f   libdb41s:db_reclaim.obj
 0001:0008e490       ___db_truncate_callback    0048f490 f   libdb41s:db_reclaim.obj
 0001:0008ea00       ___ham_get_meta            0048fa00 f   libdb41s:hash_meta.obj
 0001:0008eab0       ___ham_release_meta        0048fab0 f   libdb41s:hash_meta.obj
 0001:0008eb20       ___ham_dirty_meta          0048fb20 f   libdb41s:hash_meta.obj
 0001:0008ebf0       ___ham_stat                0048fbf0 f   libdb41s:hash_stat.obj
 0001:0008ee90       ___ham_traverse            0048fe90 f   libdb41s:hash_stat.obj
 0001:0008f430       ___os_fs_notzero           00490430 f   libdb41s:os_config.obj
 0001:0008f440       ___db_31_offdup            00490440 f   libdb41s:db_upg_opd.obj
 0001:0008fea0       ___bam_ca_delete           00490ea0 f   libdb41s:bt_curadj.obj
 0001:0008ffb0       ___ram_ca_delete           00490fb0 f   libdb41s:bt_curadj.obj
 0001:00090080       ___bam_ca_di               00491080 f   libdb41s:bt_curadj.obj
 0001:00090210       ___bam_ca_dup              00491210 f   libdb41s:bt_curadj.obj
 0001:00090480       ___bam_ca_undodup          00491480 f   libdb41s:bt_curadj.obj
 0001:000905b0       ___bam_ca_rsplit           004915b0 f   libdb41s:bt_curadj.obj
 0001:00090720       ___bam_ca_split            00491720 f   libdb41s:bt_curadj.obj
 0001:000908e0       ___bam_ca_undosplit        004918e0 f   libdb41s:bt_curadj.obj
 0001:000909e0       ___bam_search              004919e0 f   libdb41s:bt_search.obj
 0001:00091560       ___bam_stkrel              00492560 f   libdb41s:bt_search.obj
 0001:00091640       ___bam_stkgrow             00492640 f   libdb41s:bt_search.obj
 0001:000916f0       ___bam_rsearch             004926f0 f   libdb41s:bt_rsearch.obj
 0001:00091e20       ___bam_adjust              00492e20 f   libdb41s:bt_rsearch.obj
 0001:00091f80       ___bam_nrecs               00492f80 f   libdb41s:bt_rsearch.obj
 0001:00092030       ___bam_total               00493030 f   libdb41s:bt_rsearch.obj
 0001:00092230       ___bam_split               00493230 f   libdb41s:bt_split.obj
 0001:00093f70       ___bam_copy                00494f70 f   libdb41s:bt_split.obj
 0001:00094230       ___bam_iitem               00495230 f   libdb41s:bt_put.obj
 0001:00094cb0       ___bam_ritem               00495cb0 f   libdb41s:bt_put.obj
 0001:00095420       ___bam_ditem               00496420 f   libdb41s:bt_delete.obj
 0001:00095680       ___bam_adjindx             00496680 f   libdb41s:bt_delete.obj
 0001:000957b0       ___bam_dpages              004967b0 f   libdb41s:bt_delete.obj
 0001:00095e30       ___ham_item                00496e30 f   libdb41s:hash_page.obj
 0001:00095ff0       ___ham_item_reset          00496ff0 f   libdb41s:hash_page.obj
 0001:00096030       ___ham_item_init           00497030 f   libdb41s:hash_page.obj
 0001:00096090       ___ham_item_last           00497090 f   libdb41s:hash_page.obj
 0001:000960f0       ___ham_item_first          004970f0 f   libdb41s:hash_page.obj
 0001:00096150       ___ham_item_prev           00497150 f   libdb41s:hash_page.obj
 0001:00096340       ___ham_item_next           00497340 f   libdb41s:hash_page.obj
 0001:000964d0       ___ham_putitem             004974d0 f   libdb41s:hash_page.obj
 0001:000965f0       ___ham_reputpair           004975f0 f   libdb41s:hash_page.obj
 0001:00096770       ___ham_del_pair            00497770 f   libdb41s:hash_page.obj
 0001:00096f50       ___ham_replpair            00497f50 f   libdb41s:hash_page.obj
 0001:00097410       ___ham_onpage_replace      00498410 f   libdb41s:hash_page.obj
 0001:000976a0       ___ham_split_page          004986a0 f   libdb41s:hash_page.obj
 0001:00097f40       ___ham_add_el              00498f40 f   libdb41s:hash_page.obj
 0001:00098310       ___ham_copy_item           00499310 f   libdb41s:hash_page.obj
 0001:00098440       ___ham_add_ovflpage        00499440 f   libdb41s:hash_page.obj
 0001:00098530       ___ham_get_cpage           00499530 f   libdb41s:hash_page.obj
 0001:000986a0       ___ham_next_cpage          004996a0 f   libdb41s:hash_page.obj
 0001:00098710       ___ham_lock_bucket         00499710 f   libdb41s:hash_page.obj
 0001:00098790       ___ham_dpair               00499790 f   libdb41s:hash_page.obj
 0001:00098bb0       ___ham_add_dup             00499bb0 f   libdb41s:hash_dup.obj
 0001:00099100       ___ham_dup_convert         0049a100 f   libdb41s:hash_dup.obj
 0001:00099680       ___ham_make_dup            0049a680 f   libdb41s:hash_dup.obj
 0001:0009a100       ___ham_dsearch             0049b100 f   libdb41s:hash_dup.obj
 0001:0009a4b0       ___db_ditem                0049b4b0 f   libdb41s:db_dup.obj
 0001:0009a640       ___db_pitem                0049b640 f   libdb41s:db_dup.obj
 0001:0009a820       ___db_relink               0049b820 f   libdb41s:db_dup.obj
 0001:0009ab20       ___bam_pgin                0049bb20 f   libdb41s:bt_conv.obj
 0001:0009ab70       ___bam_pgout               0049bb70 f   libdb41s:bt_conv.obj
 0001:0009abc0       ___bam_mswap               0049bbc0 f   libdb41s:bt_conv.obj
 0001:0009acb0       ___ham_pgin                0049bcb0 f   libdb41s:hash_conv.obj
 0001:0009ad30       ___ham_pgout               0049bd30 f   libdb41s:hash_conv.obj
 0001:0009ad80       ___ham_mswap               0049bd80 f   libdb41s:hash_conv.obj
 0001:0009aec0       ___qam_mswap               0049bec0 f   libdb41s:qam_conv.obj
 0001:0009afd0       ___qam_pgin_out            0049bfd0 f   libdb41s:qam_conv.obj
 0001:0009b050       ___qam_stat                0049c050 f   libdb41s:qam_stat.obj
 0001:0009b5e0       ___db_SHA1Transform        0049c5e0 f   libdb41s:sha1.obj
 0001:0009d4d0       ___db_SHA1Init             0049e4d0 f   libdb41s:sha1.obj
 0001:0009d500       ___db_SHA1Update           0049e500 f   libdb41s:sha1.obj
 0001:0009d5c0       ___db_SHA1Final            0049e5c0 f   libdb41s:sha1.obj
 0001:0009d6b0       ?get_allocator@?$basic_string@GV?$char_traits@G@_STL@@V?$allocator@G@2@@_STL@@QBE?AV?$allocator@G@2@XZ 0049e6b0 f i stlport_vc6_static:string_w.obj
 0001:0009d6d0       ??0?$basic_string@GV?$char_traits@G@_STL@@V?$allocator@G@2@@_STL@@QAE@ABV?$allocator@G@1@@Z 0049e6d0 f i stlport_vc6_static:string_w.obj
 0001:0009d760       ??0?$basic_string@GV?$char_traits@G@_STL@@V?$allocator@G@2@@_STL@@QAE@U_String_reserve_t@1@IABV?$allocator@G@1@@Z 0049e760 f i stlport_vc6_static:string_w.obj
 0001:0009d830       ??0?$basic_string@GV?$char_traits@G@_STL@@V?$allocator@G@2@@_STL@@QAE@ABV01@IIABV?$allocator@G@1@@Z 0049e830 f i stlport_vc6_static:string_w.obj
 0001:0009d9a0       ??0?$basic_string@GV?$char_traits@G@_STL@@V?$allocator@G@2@@_STL@@QAE@PBGIABV?$allocator@G@1@@Z 0049e9a0 f i stlport_vc6_static:string_w.obj
 0001:0009dad0       ??0?$basic_string@GV?$char_traits@G@_STL@@V?$allocator@G@2@@_STL@@QAE@IGABV?$allocator@G@1@@Z 0049ead0 f i stlport_vc6_static:string_w.obj
 0001:0009dba0       ??1?$basic_string@GV?$char_traits@G@_STL@@V?$allocator@G@2@@_STL@@QAE@XZ 0049eba0 f i stlport_vc6_static:string_w.obj
 0001:0009dc30       ??4?$basic_string@GV?$char_traits@G@_STL@@V?$allocator@G@2@@_STL@@QAEAAV01@ABV01@@Z 0049ec30 f i stlport_vc6_static:string_w.obj
 0001:0009dcc0       ??4?$basic_string@GV?$char_traits@G@_STL@@V?$allocator@G@2@@_STL@@QAEAAV01@PBG@Z 0049ecc0 f i stlport_vc6_static:string_w.obj
 0001:0009dd90       ??4?$basic_string@GV?$char_traits@G@_STL@@V?$allocator@G@2@@_STL@@QAEAAV01@G@Z 0049ed90 f i stlport_vc6_static:string_w.obj
 0001:0009de30       ?_M_null@?$basic_string@GV?$char_traits@G@_STL@@V?$allocator@G@2@@_STL@@SAGXZ 0049ee30 f i stlport_vc6_static:string_w.obj
 0001:0009de40       ?_M_construct_null_aux@?$basic_string@GV?$char_traits@G@_STL@@V?$allocator@G@2@@_STL@@AAEXPAGABU__false_type@2@@Z 0049ee40 f i stlport_vc6_static:string_w.obj
 0001:0009de50       ?_M_construct_null_aux@?$basic_string@GV?$char_traits@G@_STL@@V?$allocator@G@2@@_STL@@AAEXPAGABU__true_type@2@@Z 0049ee50 f i stlport_vc6_static:string_w.obj
 0001:0009de60       ?_M_construct_null@?$basic_string@GV?$char_traits@G@_STL@@V?$allocator@G@2@@_STL@@AAEXPAG@Z 0049ee60 f i stlport_vc6_static:string_w.obj
 0001:0009de70       ?_M_terminate_string_aux@?$basic_string@GV?$char_traits@G@_STL@@V?$allocator@G@2@@_STL@@AAEXABU__false_type@2@@Z 0049ee70 f i stlport_vc6_static:string_w.obj
 0001:0009de80       ?_M_terminate_string_aux@?$basic_string@GV?$char_traits@G@_STL@@V?$allocator@G@2@@_STL@@AAEXABU__true_type@2@@Z 0049ee80 f i stlport_vc6_static:string_w.obj
 0001:0009de90       ?_M_terminate_string@?$basic_string@GV?$char_traits@G@_STL@@V?$allocator@G@2@@_STL@@AAEXXZ 0049ee90 f i stlport_vc6_static:string_w.obj
 0001:0009dea0       ?begin@?$basic_string@GV?$char_traits@G@_STL@@V?$allocator@G@2@@_STL@@QAEPAGXZ 0049eea0 f i stlport_vc6_static:string_w.obj
 0001:0009deb0       ?end@?$basic_string@GV?$char_traits@G@_STL@@V?$allocator@G@2@@_STL@@QAEPAGXZ 0049eeb0 f i stlport_vc6_static:string_w.obj
 0001:0009dec0       ?begin@?$basic_string@GV?$char_traits@G@_STL@@V?$allocator@G@2@@_STL@@QBEPBGXZ 0049eec0 f i stlport_vc6_static:string_w.obj
 0001:0009ded0       ?end@?$basic_string@GV?$char_traits@G@_STL@@V?$allocator@G@2@@_STL@@QBEPBGXZ 0049eed0 f i stlport_vc6_static:string_w.obj
 0001:0009dee0       ?rbegin@?$basic_string@GV?$char_traits@G@_STL@@V?$allocator@G@2@@_STL@@QAE?AV?$reverse_iterator@PAGGAAGPAGH@2@XZ 0049eee0 f i stlport_vc6_static:string_w.obj
 0001:0009def0       ?rend@?$basic_string@GV?$char_traits@G@_STL@@V?$allocator@G@2@@_STL@@QAE?AV?$reverse_iterator@PAGGAAGPAGH@2@XZ 0049eef0 f i stlport_vc6_static:string_w.obj
 0001:0009df00       ?rbegin@?$basic_string@GV?$char_traits@G@_STL@@V?$allocator@G@2@@_STL@@QBE?AV?$reverse_iterator@PBGGABGPBGH@2@XZ 0049ef00 f i stlport_vc6_static:string_w.obj
 0001:0009df10       ?rend@?$basic_string@GV?$char_traits@G@_STL@@V?$allocator@G@2@@_STL@@QBE?AV?$reverse_iterator@PBGGABGPBGH@2@XZ 0049ef10 f i stlport_vc6_static:string_w.obj
 0001:0009df20       ?size@?$basic_string@GV?$char_traits@G@_STL@@V?$allocator@G@2@@_STL@@QBEIXZ 0049ef20 f i stlport_vc6_static:string_w.obj
 0001:0009df30       ?length@?$basic_string@GV?$char_traits@G@_STL@@V?$allocator@G@2@@_STL@@QBEIXZ 0049ef30 f i stlport_vc6_static:string_w.obj
 0001:0009df40       ?max_size@?$basic_string@GV?$char_traits@G@_STL@@V?$allocator@G@2@@_STL@@QBEIXZ 0049ef40 f i stlport_vc6_static:string_w.obj
 0001:0009df50       ?resize@?$basic_string@GV?$char_traits@G@_STL@@V?$allocator@G@2@@_STL@@QAEXIG@Z 0049ef50 f i stlport_vc6_static:string_w.obj
 0001:0009dfb0       ?resize@?$basic_string@GV?$char_traits@G@_STL@@V?$allocator@G@2@@_STL@@QAEXI@Z 0049efb0 f i stlport_vc6_static:string_w.obj
 0001:0009e010       ?capacity@?$basic_string@GV?$char_traits@G@_STL@@V?$allocator@G@2@@_STL@@QBEIXZ 0049f010 f i stlport_vc6_static:string_w.obj
 0001:0009e020       ?clear@?$basic_string@GV?$char_traits@G@_STL@@V?$allocator@G@2@@_STL@@QAEXXZ 0049f020 f i stlport_vc6_static:string_w.obj
 0001:0009e040       ?empty@?$basic_string@GV?$char_traits@G@_STL@@V?$allocator@G@2@@_STL@@QBE_NXZ 0049f040 f i stlport_vc6_static:string_w.obj
 0001:0009e060       ??A?$basic_string@GV?$char_traits@G@_STL@@V?$allocator@G@2@@_STL@@QBEABGI@Z 0049f060 f i stlport_vc6_static:string_w.obj
 0001:0009e070       ??A?$basic_string@GV?$char_traits@G@_STL@@V?$allocator@G@2@@_STL@@QAEAAGI@Z 0049f070 f i stlport_vc6_static:string_w.obj
 0001:0009e080       ?at@?$basic_string@GV?$char_traits@G@_STL@@V?$allocator@G@2@@_STL@@QBEABGI@Z 0049f080 f i stlport_vc6_static:string_w.obj
 0001:0009e0b0       ?at@?$basic_string@GV?$char_traits@G@_STL@@V?$allocator@G@2@@_STL@@QAEAAGI@Z 0049f0b0 f i stlport_vc6_static:string_w.obj
 0001:0009e0e0       ??Y?$basic_string@GV?$char_traits@G@_STL@@V?$allocator@G@2@@_STL@@QAEAAV01@ABV01@@Z 0049f0e0 f i stlport_vc6_static:string_w.obj
 0001:0009e110       ??Y?$basic_string@GV?$char_traits@G@_STL@@V?$allocator@G@2@@_STL@@QAEAAV01@PBG@Z 0049f110 f i stlport_vc6_static:string_w.obj
 0001:0009e150       ??Y?$basic_string@GV?$char_traits@G@_STL@@V?$allocator@G@2@@_STL@@QAEAAV01@G@Z 0049f150 f i stlport_vc6_static:string_w.obj
 0001:0009e1c0       ?append@?$basic_string@GV?$char_traits@G@_STL@@V?$allocator@G@2@@_STL@@QAEAAV12@ABV12@@Z 0049f1c0 f i stlport_vc6_static:string_w.obj
 0001:0009e1f0       ?append@?$basic_string@GV?$char_traits@G@_STL@@V?$allocator@G@2@@_STL@@QAEAAV12@ABV12@II@Z 0049f1f0 f i stlport_vc6_static:string_w.obj
 0001:0009e260       ?append@?$basic_string@GV?$char_traits@G@_STL@@V?$allocator@G@2@@_STL@@QAEAAV12@PBGI@Z 0049f260 f i stlport_vc6_static:string_w.obj
 0001:0009e290       ?append@?$basic_string@GV?$char_traits@G@_STL@@V?$allocator@G@2@@_STL@@QAEAAV12@PBG@Z 0049f290 f i stlport_vc6_static:string_w.obj
 0001:0009e2d0       ?push_back@?$basic_string@GV?$char_traits@G@_STL@@V?$allocator@G@2@@_STL@@QAEXG@Z 0049f2d0 f i stlport_vc6_static:string_w.obj
 0001:0009e340       ?pop_back@?$basic_string@GV?$char_traits@G@_STL@@V?$allocator@G@2@@_STL@@QAEXXZ 0049f340 f i stlport_vc6_static:string_w.obj
 0001:0009e360       ?assign@?$basic_string@GV?$char_traits@G@_STL@@V?$allocator@G@2@@_STL@@QAEAAV12@ABV12@@Z 0049f360 f i stlport_vc6_static:string_w.obj
 0001:0009e3f0       ?assign@?$basic_string@GV?$char_traits@G@_STL@@V?$allocator@G@2@@_STL@@QAEAAV12@ABV12@II@Z 0049f3f0 f i stlport_vc6_static:string_w.obj
 0001:0009e4c0       ?assign@?$basic_string@GV?$char_traits@G@_STL@@V?$allocator@G@2@@_STL@@QAEAAV12@PBGI@Z 0049f4c0 f i stlport_vc6_static:string_w.obj
 0001:0009e580       ?assign@?$basic_string@GV?$char_traits@G@_STL@@V?$allocator@G@2@@_STL@@QAEAAV12@PBG@Z 0049f580 f i stlport_vc6_static:string_w.obj
 0001:0009e650       ?assign@?$basic_string@GV?$char_traits@G@_STL@@V?$allocator@G@2@@_STL@@QAEAAV12@PBG0@Z 0049f650 f i stlport_vc6_static:string_w.obj
 0001:0009e710       ?_M_acquire_lock@_STLP_mutex_base@_STL@@QAEXXZ 0049f710 f i stlport_vc6_static:string_w.obj
 0001:0009e800       ?_M_release_lock@_STLP_mutex_base@_STL@@QAEXXZ 0049f800 f i stlport_vc6_static:string_w.obj
 0001:0009e810       ?insert@?$basic_string@GV?$char_traits@G@_STL@@V?$allocator@G@2@@_STL@@QAEAAV12@IABV12@@Z 0049f810 f i stlport_vc6_static:string_w.obj
 0001:0009e890       ?insert@?$basic_string@GV?$char_traits@G@_STL@@V?$allocator@G@2@@_STL@@QAEAAV12@IABV12@II@Z 0049f890 f i stlport_vc6_static:string_w.obj
 0001:0009e940       ?insert@?$basic_string@GV?$char_traits@G@_STL@@V?$allocator@G@2@@_STL@@QAEAAV12@IPBGI@Z 0049f940 f i stlport_vc6_static:string_w.obj
 0001:0009e9c0       ?insert@?$basic_string@GV?$char_traits@G@_STL@@V?$allocator@G@2@@_STL@@QAEAAV12@IPBG@Z 0049f9c0 f i stlport_vc6_static:string_w.obj
 0001:0009ea50       ?insert@?$basic_string@GV?$char_traits@G@_STL@@V?$allocator@G@2@@_STL@@QAEAAV12@IIG@Z 0049fa50 f i stlport_vc6_static:string_w.obj
 0001:0009eac0       ?insert@?$basic_string@GV?$char_traits@G@_STL@@V?$allocator@G@2@@_STL@@QAEPAGPAGG@Z 0049fac0 f i stlport_vc6_static:string_w.obj
 0001:0009eb40       ?_M_copy@?$basic_string@GV?$char_traits@G@_STL@@V?$allocator@G@2@@_STL@@AAEXPBG0PAG@Z 0049fb40 f i stlport_vc6_static:string_w.obj
 0001:0009eb70       ?erase@?$basic_string@GV?$char_traits@G@_STL@@V?$allocator@G@2@@_STL@@QAEAAV12@II@Z 0049fb70 f i stlport_vc6_static:string_w.obj
 0001:0009ec00       ?erase@?$basic_string@GV?$char_traits@G@_STL@@V?$allocator@G@2@@_STL@@QAEPAGPAG@Z 0049fc00 f i stlport_vc6_static:string_w.obj
 0001:0009ec40       ?erase@?$basic_string@GV?$char_traits@G@_STL@@V?$allocator@G@2@@_STL@@QAEPAGPAG0@Z 0049fc40 f i stlport_vc6_static:string_w.obj
 0001:0009ec80       ?replace@?$basic_string@GV?$char_traits@G@_STL@@V?$allocator@G@2@@_STL@@QAEAAV12@IIABV12@@Z 0049fc80 f i stlport_vc6_static:string_w.obj
 0001:0009edb0       ?replace@?$basic_string@GV?$char_traits@G@_STL@@V?$allocator@G@2@@_STL@@QAEAAV12@IIABV12@II@Z 0049fdb0 f i stlport_vc6_static:string_w.obj
 0001:0009ef10       ?replace@?$basic_string@GV?$char_traits@G@_STL@@V?$allocator@G@2@@_STL@@QAEAAV12@IIPBGI@Z 0049ff10 f i stlport_vc6_static:string_w.obj
 0001:0009f040       ?replace@?$basic_string@GV?$char_traits@G@_STL@@V?$allocator@G@2@@_STL@@QAEAAV12@IIPBG@Z 004a0040 f i stlport_vc6_static:string_w.obj
 0001:0009f190       ?replace@?$basic_string@GV?$char_traits@G@_STL@@V?$allocator@G@2@@_STL@@QAEAAV12@IIIG@Z 004a0190 f i stlport_vc6_static:string_w.obj
 0001:0009f2c0       ?replace@?$basic_string@GV?$char_traits@G@_STL@@V?$allocator@G@2@@_STL@@QAEAAV12@PAG0ABV12@@Z 004a02c0 f i stlport_vc6_static:string_w.obj
 0001:0009f380       ?replace@?$basic_string@GV?$char_traits@G@_STL@@V?$allocator@G@2@@_STL@@QAEAAV12@PAG0PBGI@Z 004a0380 f i stlport_vc6_static:string_w.obj
 0001:0009f440       ?replace@?$basic_string@GV?$char_traits@G@_STL@@V?$allocator@G@2@@_STL@@QAEAAV12@PAG0PBG@Z 004a0440 f i stlport_vc6_static:string_w.obj
 0001:0009f520       ?copy@?$basic_string@GV?$char_traits@G@_STL@@V?$allocator@G@2@@_STL@@QBEIPAGII@Z 004a0520 f i stlport_vc6_static:string_w.obj
 0001:0009f590       ?swap@?$basic_string@GV?$char_traits@G@_STL@@V?$allocator@G@2@@_STL@@QAEXAAV12@@Z 004a0590 f i stlport_vc6_static:string_w.obj
 0001:0009f5c0       ?c_str@?$basic_string@GV?$char_traits@G@_STL@@V?$allocator@G@2@@_STL@@QBEPBGXZ 004a05c0 f i stlport_vc6_static:string_w.obj
 0001:0009f5d0       ?data@?$basic_string@GV?$char_traits@G@_STL@@V?$allocator@G@2@@_STL@@QBEPBGXZ 004a05d0 f i stlport_vc6_static:string_w.obj
 0001:0009f5e0       ?find@?$basic_string@GV?$char_traits@G@_STL@@V?$allocator@G@2@@_STL@@QBEIABV12@I@Z 004a05e0 f i stlport_vc6_static:string_w.obj
 0001:0009f6e0       ?find@?$basic_string@GV?$char_traits@G@_STL@@V?$allocator@G@2@@_STL@@QBEIPBGI@Z 004a06e0 f i stlport_vc6_static:string_w.obj
 0001:0009f7e0       ?rfind@?$basic_string@GV?$char_traits@G@_STL@@V?$allocator@G@2@@_STL@@QBEIABV12@I@Z 004a07e0 f i stlport_vc6_static:string_w.obj
 0001:0009f930       ?rfind@?$basic_string@GV?$char_traits@G@_STL@@V?$allocator@G@2@@_STL@@QBEIPBGI@Z 004a0930 f i stlport_vc6_static:string_w.obj
 0001:0009fa90       ?find_first_of@?$basic_string@GV?$char_traits@G@_STL@@V?$allocator@G@2@@_STL@@QBEIABV12@I@Z 004a0a90 f i stlport_vc6_static:string_w.obj
 0001:0009fb00       ?find_first_of@?$basic_string@GV?$char_traits@G@_STL@@V?$allocator@G@2@@_STL@@QBEIPBGI@Z 004a0b00 f i stlport_vc6_static:string_w.obj
 0001:0009fb80       ?find_first_of@?$basic_string@GV?$char_traits@G@_STL@@V?$allocator@G@2@@_STL@@QBEIGI@Z 004a0b80 f i stlport_vc6_static:string_w.obj
 0001:0009fc10       ?find_last_of@?$basic_string@GV?$char_traits@G@_STL@@V?$allocator@G@2@@_STL@@QBEIABV12@I@Z 004a0c10 f i stlport_vc6_static:string_w.obj
 0001:0009fca0       ?find_last_of@?$basic_string@GV?$char_traits@G@_STL@@V?$allocator@G@2@@_STL@@QBEIPBGI@Z 004a0ca0 f i stlport_vc6_static:string_w.obj
 0001:0009fd40       ?find_last_of@?$basic_string@GV?$char_traits@G@_STL@@V?$allocator@G@2@@_STL@@QBEIGI@Z 004a0d40 f i stlport_vc6_static:string_w.obj
 0001:0009fdc0       ?find_first_not_of@?$basic_string@GV?$char_traits@G@_STL@@V?$allocator@G@2@@_STL@@QBEIABV12@I@Z 004a0dc0 f i stlport_vc6_static:string_w.obj
 0001:0009ffd0       ?find_first_not_of@?$basic_string@GV?$char_traits@G@_STL@@V?$allocator@G@2@@_STL@@QBEIPBGI@Z 004a0fd0 f i stlport_vc6_static:string_w.obj
 0001:000a01b0       ?find_last_not_of@?$basic_string@GV?$char_traits@G@_STL@@V?$allocator@G@2@@_STL@@QBEIABV12@I@Z 004a11b0 f i stlport_vc6_static:string_w.obj
 0001:000a0240       ?find_last_not_of@?$basic_string@GV?$char_traits@G@_STL@@V?$allocator@G@2@@_STL@@QBEIPBGI@Z 004a1240 f i stlport_vc6_static:string_w.obj
 0001:000a02e0       ?substr@?$basic_string@GV?$char_traits@G@_STL@@V?$allocator@G@2@@_STL@@QBE?AV12@II@Z 004a12e0 f i stlport_vc6_static:string_w.obj
 0001:000a0400       ?__stl_new@_STL@@YAPAXI@Z  004a1400 f i stlport_vc6_static:string_w.obj
 0001:000a0410       ?compare@?$basic_string@GV?$char_traits@G@_STL@@V?$allocator@G@2@@_STL@@QBEHABV12@@Z 004a1410 f i stlport_vc6_static:string_w.obj
 0001:000a04b0       ?compare@?$basic_string@GV?$char_traits@G@_STL@@V?$allocator@G@2@@_STL@@QBEHIIABV12@@Z 004a14b0 f i stlport_vc6_static:string_w.obj
 0001:000a0590       ?compare@?$basic_string@GV?$char_traits@G@_STL@@V?$allocator@G@2@@_STL@@QBEHIIABV12@II@Z 004a1590 f i stlport_vc6_static:string_w.obj
 0001:000a06b0       ?compare@?$basic_string@GV?$char_traits@G@_STL@@V?$allocator@G@2@@_STL@@QBEHPBG@Z 004a16b0 f i stlport_vc6_static:string_w.obj
 0001:000a0760       ?compare@?$basic_string@GV?$char_traits@G@_STL@@V?$allocator@G@2@@_STL@@QBEHIIPBG@Z 004a1760 f i stlport_vc6_static:string_w.obj
 0001:000a0840       ?compare@?$basic_string@GV?$char_traits@G@_STL@@V?$allocator@G@2@@_STL@@QBEHIIPBGI@Z 004a1840 f i stlport_vc6_static:string_w.obj
 0001:000a0910       ?_M_compare@?$basic_string@GV?$char_traits@G@_STL@@V?$allocator@G@2@@_STL@@SAHPBG000@Z 004a1910 f i stlport_vc6_static:string_w.obj
 0001:000a09a0       ?_M_deallocate_block@?$_String_base@GV?$allocator@G@_STL@@@_STL@@QAEXXZ 004a19a0 f i stlport_vc6_static:string_w.obj
 0001:000a09d0       ?max_size@?$_String_base@GV?$allocator@G@_STL@@@_STL@@QBEIXZ 004a19d0 f i stlport_vc6_static:string_w.obj
 0001:000a09e0       ??0?$_String_base@GV?$allocator@G@_STL@@@_STL@@QAE@ABV?$allocator@G@1@@Z 004a19e0 f i stlport_vc6_static:string_w.obj
 0001:000a09f0       ??0?$_String_base@GV?$allocator@G@_STL@@@_STL@@QAE@ABV?$allocator@G@1@I@Z 004a19f0 f i stlport_vc6_static:string_w.obj
 0001:000a0b40       ??1?$_String_base@GV?$allocator@G@_STL@@@_STL@@QAE@XZ 004a1b40 f i stlport_vc6_static:string_w.obj
 0001:000a0bd0       ??0?$allocator@G@_STL@@QAE@XZ 004a1bd0 f i stlport_vc6_static:string_w.obj
 0001:000a0be0       ??0?$allocator@G@_STL@@QAE@ABV01@@Z 004a1be0 f i stlport_vc6_static:string_w.obj
 0001:000a0bf0       ??1?$allocator@G@_STL@@QAE@XZ 004a1bf0 f i stlport_vc6_static:string_w.obj
 0001:000a0c00       ?address@?$allocator@G@_STL@@QAEPAGAAG@Z 004a1c00 f i stlport_vc6_static:string_w.obj
 0001:000a0c10       ?address@?$allocator@G@_STL@@QBEPBGABG@Z 004a1c10 f i stlport_vc6_static:string_w.obj
 0001:000a0c20       ?allocate@?$allocator@G@_STL@@QBEPAGIPBX@Z 004a1c20 f i stlport_vc6_static:string_w.obj
 0001:000a0c50       ?deallocate@?$allocator@G@_STL@@QBEXPAGI@Z 004a1c50 f i stlport_vc6_static:string_w.obj
 0001:000a0c80       ?deallocate@?$allocator@G@_STL@@QBEXPAG@Z 004a1c80 f i stlport_vc6_static:string_w.obj
 0001:000a0ca0       ?max_size@?$allocator@G@_STL@@QBEIXZ 004a1ca0 f i stlport_vc6_static:string_w.obj
 0001:000a0cb0       ?construct@?$allocator@G@_STL@@QBEXPAGABG@Z 004a1cb0 f i stlport_vc6_static:string_w.obj
 0001:000a0cd0       ?destroy@?$allocator@G@_STL@@QBEXPAG@Z 004a1cd0 f i stlport_vc6_static:string_w.obj
 0001:000a0ce0       ??1?$_STLP_alloc_proxy@PAGGV?$allocator@G@_STL@@@_STL@@QAE@XZ 004a1ce0 f i stlport_vc6_static:string_w.obj
 0001:000a0cf0       ??0?$reverse_iterator@PBGGABGPBGH@_STL@@QAE@PBG@Z 004a1cf0 f i stlport_vc6_static:string_w.obj
 0001:000a0d00       ?_M_do_lock@?$_STLP_mutex_spin@$0A@@_STL@@SAXPCJ@Z 004a1d00 f i stlport_vc6_static:string_w.obj
 0001:000a0df0       ?_M_allocate_block@?$_String_base@GV?$allocator@G@_STL@@@_STL@@QAEXI@Z 004a1df0 f i stlport_vc6_static:string_w.obj
 0001:000a0e50       ?_M_throw_length_error@?$_String_base@GV?$allocator@G@_STL@@@_STL@@QBEXXZ 004a1e50 f i stlport_vc6_static:string_w.obj
 0001:000a0e60       ?_M_throw_out_of_range@?$_String_base@GV?$allocator@G@_STL@@@_STL@@QBEXXZ 004a1e60 f i stlport_vc6_static:string_w.obj
 0001:000a0e70       ??0?$basic_string@GV?$char_traits@G@_STL@@V?$allocator@G@2@@_STL@@QAE@PBGABV?$allocator@G@1@@Z 004a1e70 f i stlport_vc6_static:string_w.obj
 0001:000a0f40       ??0?$basic_string@GV?$char_traits@G@_STL@@V?$allocator@G@2@@_STL@@QAE@ABV01@@Z 004a1f40 f i stlport_vc6_static:string_w.obj
 0001:000a1010       ??0?$basic_string@GV?$char_traits@G@_STL@@V?$allocator@G@2@@_STL@@QAE@XZ 004a2010 f i stlport_vc6_static:string_w.obj
 0001:000a10e0       ?reserve@?$basic_string@GV?$char_traits@G@_STL@@V?$allocator@G@2@@_STL@@QAEXI@Z 004a20e0 f i stlport_vc6_static:string_w.obj
 0001:000a12a0       ?append@?$basic_string@GV?$char_traits@G@_STL@@V?$allocator@G@2@@_STL@@QAEAAV12@IG@Z 004a22a0 f i stlport_vc6_static:string_w.obj
 0001:000a1360       ?assign@?$basic_string@GV?$char_traits@G@_STL@@V?$allocator@G@2@@_STL@@QAEAAV12@IG@Z 004a2360 f i stlport_vc6_static:string_w.obj
 0001:000a1410       ?insert@?$basic_string@GV?$char_traits@G@_STL@@V?$allocator@G@2@@_STL@@QAEXPAGIG@Z 004a2410 f i stlport_vc6_static:string_w.obj
 0001:000a16d0       ?_M_insert_aux@?$basic_string@GV?$char_traits@G@_STL@@V?$allocator@G@2@@_STL@@AAEPAGPAGG@Z 004a26d0 f i stlport_vc6_static:string_w.obj
 0001:000a18f0       ?replace@?$basic_string@GV?$char_traits@G@_STL@@V?$allocator@G@2@@_STL@@QAEAAV12@PAG0IG@Z 004a28f0 f i stlport_vc6_static:string_w.obj
 0001:000a19b0       ?find@?$basic_string@GV?$char_traits@G@_STL@@V?$allocator@G@2@@_STL@@QBEIGI@Z 004a29b0 f i stlport_vc6_static:string_w.obj
 0001:000a1a40       ?find@?$basic_string@GV?$char_traits@G@_STL@@V?$allocator@G@2@@_STL@@QBEIPBGII@Z 004a2a40 f i stlport_vc6_static:string_w.obj
 0001:000a1b30       ?rfind@?$basic_string@GV?$char_traits@G@_STL@@V?$allocator@G@2@@_STL@@QBEIGI@Z 004a2b30 f i stlport_vc6_static:string_w.obj
 0001:000a1bb0       ?rfind@?$basic_string@GV?$char_traits@G@_STL@@V?$allocator@G@2@@_STL@@QBEIPBGII@Z 004a2bb0 f i stlport_vc6_static:string_w.obj
 0001:000a1cf0       ?find_first_of@?$basic_string@GV?$char_traits@G@_STL@@V?$allocator@G@2@@_STL@@QBEIPBGII@Z 004a2cf0 f i stlport_vc6_static:string_w.obj
 0001:000a1d60       ?find_last_of@?$basic_string@GV?$char_traits@G@_STL@@V?$allocator@G@2@@_STL@@QBEIPBGII@Z 004a2d60 f i stlport_vc6_static:string_w.obj
 0001:000a1df0       ?find_first_not_of@?$basic_string@GV?$char_traits@G@_STL@@V?$allocator@G@2@@_STL@@QBEIGI@Z 004a2df0 f i stlport_vc6_static:string_w.obj
 0001:000a1e80       ?find_first_not_of@?$basic_string@GV?$char_traits@G@_STL@@V?$allocator@G@2@@_STL@@QBEIPBGII@Z 004a2e80 f i stlport_vc6_static:string_w.obj
 0001:000a2090       ?find_last_not_of@?$basic_string@GV?$char_traits@G@_STL@@V?$allocator@G@2@@_STL@@QBEIGI@Z 004a3090 f i stlport_vc6_static:string_w.obj
 0001:000a2110       ?find_last_not_of@?$basic_string@GV?$char_traits@G@_STL@@V?$allocator@G@2@@_STL@@QBEIPBGII@Z 004a3110 f i stlport_vc6_static:string_w.obj
 0001:000a21a0       ?_M_range_initialize@?$basic_string@GV?$char_traits@G@_STL@@V?$allocator@G@2@@_STL@@AAEXPAG0@Z 004a31a0 f i stlport_vc6_static:string_w.obj
 0001:000a2230       ?_M_range_initialize@?$basic_string@GV?$char_traits@G@_STL@@V?$allocator@G@2@@_STL@@AAEXPBG0@Z 004a3230 f i stlport_vc6_static:string_w.obj
 0001:000a22c0       ?assign@?$basic_string@GV?$char_traits@G@_STL@@V?$allocator@G@2@@_STL@@QAEAAV12@PAG0@Z 004a32c0 f i stlport_vc6_static:string_w.obj
 0001:000a2350       ?append@?$basic_string@GV?$char_traits@G@_STL@@V?$allocator@G@2@@_STL@@QAEAAV12@PAG0@Z 004a3350 f i stlport_vc6_static:string_w.obj
 0001:000a2380       ?append@?$basic_string@GV?$char_traits@G@_STL@@V?$allocator@G@2@@_STL@@QAEAAV12@PBG0@Z 004a3380 f i stlport_vc6_static:string_w.obj
 0001:000a23b0       ?insert@?$basic_string@GV?$char_traits@G@_STL@@V?$allocator@G@2@@_STL@@QAEXPAG00@Z 004a33b0 f i stlport_vc6_static:string_w.obj
 0001:000a23e0       ?insert@?$basic_string@GV?$char_traits@G@_STL@@V?$allocator@G@2@@_STL@@QAEXPAGPBG1@Z 004a33e0 f i stlport_vc6_static:string_w.obj
 0001:000a2410       ?replace@?$basic_string@GV?$char_traits@G@_STL@@V?$allocator@G@2@@_STL@@QAEAAV12@PAG000@Z 004a3410 f i stlport_vc6_static:string_w.obj
 0001:000a24d0       ?replace@?$basic_string@GV?$char_traits@G@_STL@@V?$allocator@G@2@@_STL@@QAEAAV12@PAG0PBG1@Z 004a34d0 f i stlport_vc6_static:string_w.obj
 0001:000a2590       ?swap@_STL@@YAXAAV?$_STLP_alloc_proxy@PAGGV?$allocator@G@_STL@@@1@0@Z 004a3590 f i stlport_vc6_static:string_w.obj
 0001:000a25b0       ??0?$basic_string@GV?$char_traits@G@_STL@@V?$allocator@G@2@@_STL@@QAE@PAG0@Z 004a35b0 f i stlport_vc6_static:string_w.obj
 0001:000a26c0       ?_M_allocate@?$__node_alloc@$00$0A@@_STL@@CAPAXI@Z 004a36c0 f i stlport_vc6_static:string_w.obj
 0001:000a2870       ?_M_deallocate@?$__node_alloc@$00$0A@@_STL@@CAXPAXI@Z 004a3870 f i stlport_vc6_static:string_w.obj
 0001:000a29a0       ??0?$reverse_iterator@PBGGABGPBGH@_STL@@QAE@ABV01@@Z 004a39a0 f i stlport_vc6_static:string_w.obj
 0001:000a29b0       ??0?$_Node_Alloc_Lock@$00$0A@@_STL@@QAE@XZ 004a39b0 f i stlport_vc6_static:string_w.obj
 0001:000a2ac0       ??1?$_Node_Alloc_Lock@$00$0A@@_STL@@QAE@XZ 004a3ac0 f i stlport_vc6_static:string_w.obj
 0001:000a2ad0       ?find_if@_STL@@YA?AV?$reverse_iterator@PBGGABGPBGH@1@V21@0U?$_Eq_char_bound@V?$char_traits@G@_STL@@@1@@Z 004a3ad0 f i stlport_vc6_static:string_w.obj
 0001:000a2b10       ?__find_first_of@_STL@@YA?AV?$reverse_iterator@PBGGABGPBGH@1@V21@0PBG1U?$_Eq_traits@V?$char_traits@G@_STL@@@1@@Z 004a3b10 f i stlport_vc6_static:string_w.obj
 0001:000a2b60       ?find_if@_STL@@YA?AV?$reverse_iterator@PBGGABGPBGH@1@V21@0U?$_Neq_char_bound@V?$char_traits@G@_STL@@@1@@Z 004a3b60 f i stlport_vc6_static:string_w.obj
 0001:000a2ba0       ?find_if@_STL@@YA?AV?$reverse_iterator@PBGGABGPBGH@1@V21@0U?$_Not_within_traits@V?$char_traits@G@_STL@@@1@@Z 004a3ba0 f i stlport_vc6_static:string_w.obj
 0001:000a2bf0       ?iterator_category@_STL@@YA?AUrandom_access_iterator_tag@1@PBG@Z 004a3bf0 f i stlport_vc6_static:string_w.obj
 0001:000a2c00       ?_M_range_initialize@?$basic_string@GV?$char_traits@G@_STL@@V?$allocator@G@2@@_STL@@AAEXPAG0ABUforward_iterator_tag@2@@Z 004a3c00 f i stlport_vc6_static:string_w.obj
 0001:000a2c90       ?_M_range_initialize@?$basic_string@GV?$char_traits@G@_STL@@V?$allocator@G@2@@_STL@@AAEXPBG0ABUforward_iterator_tag@2@@Z 004a3c90 f i stlport_vc6_static:string_w.obj
 0001:000a2d20       ?_M_assign_dispatch@?$basic_string@GV?$char_traits@G@_STL@@V?$allocator@G@2@@_STL@@AAEAAV12@PAG0ABU__false_type@2@@Z 004a3d20 f i stlport_vc6_static:string_w.obj
 0001:000a2db0       ?_M_append_dispatch@?$basic_string@GV?$char_traits@G@_STL@@V?$allocator@G@2@@_STL@@AAEAAV12@PAG0ABU__false_type@2@@Z 004a3db0 f i stlport_vc6_static:string_w.obj
 0001:000a2de0       ?_M_append_dispatch@?$basic_string@GV?$char_traits@G@_STL@@V?$allocator@G@2@@_STL@@AAEAAV12@PBG0ABU__false_type@2@@Z 004a3de0 f i stlport_vc6_static:string_w.obj
 0001:000a2e10       ?_M_insert_dispatch@?$basic_string@GV?$char_traits@G@_STL@@V?$allocator@G@2@@_STL@@AAEXPAG00ABU__false_type@2@@Z 004a3e10 f i stlport_vc6_static:string_w.obj
 0001:000a2e40       ?_M_insert_dispatch@?$basic_string@GV?$char_traits@G@_STL@@V?$allocator@G@2@@_STL@@AAEXPAGPBG1ABU__false_type@2@@Z 004a3e40 f i stlport_vc6_static:string_w.obj
 0001:000a2e70       ?_M_replace_dispatch@?$basic_string@GV?$char_traits@G@_STL@@V?$allocator@G@2@@_STL@@AAEAAV12@PAG000ABU__false_type@2@@Z 004a3e70 f i stlport_vc6_static:string_w.obj
 0001:000a2f30       ?_M_replace_dispatch@?$basic_string@GV?$char_traits@G@_STL@@V?$allocator@G@2@@_STL@@AAEAAV12@PAG0PBG1ABU__false_type@2@@Z 004a3f30 f i stlport_vc6_static:string_w.obj
 0001:000a2ff0       ?_M_initialize_dispatch@?$basic_string@GV?$char_traits@G@_STL@@V?$allocator@G@2@@_STL@@AAEXPAG0ABU__false_type@2@@Z 004a3ff0 f i stlport_vc6_static:string_w.obj
 0001:000a3080       ?_S_refill@?$__node_alloc@$00$0A@@_STL@@CAPAXI@Z 004a4080 f i stlport_vc6_static:string_w.obj
 0001:000a31e0       ?__find_if@_STL@@YA?AV?$reverse_iterator@PBGGABGPBGH@1@V21@0U?$_Eq_char_bound@V?$char_traits@G@_STL@@@1@ABUrandom_access_iterator_tag@1@@Z 004a41e0 f i stlport_vc6_static:string_w.obj
 0001:000a3280       ?__find_if@_STL@@YA?AV?$reverse_iterator@PBGGABGPBGH@1@V21@0U?$_Neq_char_bound@V?$char_traits@G@_STL@@@1@ABUrandom_access_iterator_tag@1@@Z 004a4280 f i stlport_vc6_static:string_w.obj
 0001:000a3320       ?__find_if@_STL@@YA?AV?$reverse_iterator@PBGGABGPBGH@1@V21@0U?$_Not_within_traits@V?$char_traits@G@_STL@@@1@ABUrandom_access_iterator_tag@1@@Z 004a4320 f i stlport_vc6_static:string_w.obj
 0001:000a34f0       ?append@?$basic_string@GV?$char_traits@G@_STL@@V?$allocator@G@2@@_STL@@AAEAAV12@PAG0ABUforward_iterator_tag@2@@Z 004a44f0 f i stlport_vc6_static:string_w.obj
 0001:000a36b0       ?append@?$basic_string@GV?$char_traits@G@_STL@@V?$allocator@G@2@@_STL@@AAEAAV12@PBG0ABUforward_iterator_tag@2@@Z 004a46b0 f i stlport_vc6_static:string_w.obj
 0001:000a3860       ?insert@?$basic_string@GV?$char_traits@G@_STL@@V?$allocator@G@2@@_STL@@AAEXPAG00ABUforward_iterator_tag@2@@Z 004a4860 f i stlport_vc6_static:string_w.obj
 0001:000a3b20       ?insert@?$basic_string@GV?$char_traits@G@_STL@@V?$allocator@G@2@@_STL@@AAEXPAGPBG1ABUforward_iterator_tag@2@@Z 004a4b20 f i stlport_vc6_static:string_w.obj
 0001:000a3de0       ?replace@?$basic_string@GV?$char_traits@G@_STL@@V?$allocator@G@2@@_STL@@AAEAAV12@PAG000ABUforward_iterator_tag@2@@Z 004a4de0 f i stlport_vc6_static:string_w.obj
 0001:000a3ea0       ?replace@?$basic_string@GV?$char_traits@G@_STL@@V?$allocator@G@2@@_STL@@AAEAAV12@PAG0PBG1ABUforward_iterator_tag@2@@Z 004a4ea0 f i stlport_vc6_static:string_w.obj
 0001:000a3f60       ?_S_chunk_alloc@?$__node_alloc@$00$0A@@_STL@@CAPADIAAH@Z 004a4f60 f i stlport_vc6_static:string_w.obj
 0001:000a4090       ?__copy_aux@_STL@@YAPAGPAG00ABU__true_type@1@@Z 004a5090 f i stlport_vc6_static:string_w.obj
 0001:000a40c0       ?_M_copy@?$basic_string@GV?$char_traits@G@_STL@@V?$allocator@G@2@@_STL@@AAEXPAG00@Z 004a50c0 f i stlport_vc6_static:string_w.obj
 0001:000a40f0       ?__copy_ptrs@_STL@@YAPAGPAG00ABU__false_type@1@@Z 004a50f0 f i stlport_vc6_static:string_w.obj
 0001:000a4120       ?__find_if@_STL@@YAPAGPAG0U?$_Eq_char_bound@V?$char_traits@G@_STL@@@1@ABUrandom_access_iterator_tag@1@@Z 004a5120 f i stlport_vc6_static:string_w.obj
 0001:000a4190       ?distance_type@_STL@@YAPAHPBG@Z 004a5190 f i stlport_vc6_static:string_w.obj
 0001:000a41a0       ?__copy@_STL@@YAPAGPAG00ABUrandom_access_iterator_tag@1@PAH@Z 004a51a0 f i stlport_vc6_static:string_w.obj
 0001:000a41d0       ?__stl_throw_range_error@_STL@@YAXPBD@Z 004a51d0 f   stlport_vc6_static:dll_main.obj
 0001:000a4350       ??_Eruntime_error@_STL@@UAEPAXI@Z 004a5350 f i stlport_vc6_static:dll_main.obj
 0001:000a4350       ??_Gruntime_error@_STL@@UAEPAXI@Z 004a5350 f i stlport_vc6_static:dll_main.obj
 0001:000a4370       ??_Erange_error@_STL@@UAEPAXI@Z 004a5370 f i stlport_vc6_static:dll_main.obj
 0001:000a4370       ??_Grange_error@_STL@@UAEPAXI@Z 004a5370 f i stlport_vc6_static:dll_main.obj
 0001:000a4390       ??0range_error@_STL@@QAE@ABV01@@Z 004a5390 f i stlport_vc6_static:dll_main.obj
 0001:000a43e0       ??0runtime_error@_STL@@QAE@ABV01@@Z 004a53e0 f i stlport_vc6_static:dll_main.obj
 0001:000a4430       ??0__Named_exception@_STL@@QAE@ABV01@@Z 004a5430 f i stlport_vc6_static:dll_main.obj
 0001:000a4470       ??_E__Named_exception@_STL@@UAEPAXI@Z 004a5470 f i stlport_vc6_static:dll_main.obj
 0001:000a4470       ??_G__Named_exception@_STL@@UAEPAXI@Z 004a5470 f i stlport_vc6_static:dll_main.obj
 0001:000a44a0       ?__stl_throw_out_of_range@_STL@@YAXPBD@Z 004a54a0 f   stlport_vc6_static:dll_main.obj
 0001:000a4620       ??_Elogic_error@_STL@@UAEPAXI@Z 004a5620 f i stlport_vc6_static:dll_main.obj
 0001:000a4620       ??_Glogic_error@_STL@@UAEPAXI@Z 004a5620 f i stlport_vc6_static:dll_main.obj
 0001:000a4640       ??_Eout_of_range@_STL@@UAEPAXI@Z 004a5640 f i stlport_vc6_static:dll_main.obj
 0001:000a4640       ??_Gout_of_range@_STL@@UAEPAXI@Z 004a5640 f i stlport_vc6_static:dll_main.obj
 0001:000a4660       ??0out_of_range@_STL@@QAE@ABV01@@Z 004a5660 f i stlport_vc6_static:dll_main.obj
 0001:000a46b0       ??0logic_error@_STL@@QAE@ABV01@@Z 004a56b0 f i stlport_vc6_static:dll_main.obj
 0001:000a4700       ?__stl_throw_length_error@_STL@@YAXPBD@Z 004a5700 f   stlport_vc6_static:dll_main.obj
 0001:000a4880       ??_Elength_error@_STL@@UAEPAXI@Z 004a5880 f i stlport_vc6_static:dll_main.obj
 0001:000a4880       ??_Glength_error@_STL@@UAEPAXI@Z 004a5880 f i stlport_vc6_static:dll_main.obj
 0001:000a48a0       ??0length_error@_STL@@QAE@ABV01@@Z 004a58a0 f i stlport_vc6_static:dll_main.obj
 0001:000a48f0       ?__stl_throw_invalid_argument@_STL@@YAXPBD@Z 004a58f0 f   stlport_vc6_static:dll_main.obj
 0001:000a4a70       ??_Ginvalid_argument@_STL@@UAEPAXI@Z 004a5a70 f i stlport_vc6_static:dll_main.obj
 0001:000a4a70       ??_Einvalid_argument@_STL@@UAEPAXI@Z 004a5a70 f i stlport_vc6_static:dll_main.obj
 0001:000a4a90       ??0invalid_argument@_STL@@QAE@ABV01@@Z 004a5a90 f i stlport_vc6_static:dll_main.obj
 0001:000a4ae0       ?__stl_throw_overflow_error@_STL@@YAXPBD@Z 004a5ae0 f   stlport_vc6_static:dll_main.obj
 0001:000a4c60       ??_Eoverflow_error@_STL@@UAEPAXI@Z 004a5c60 f i stlport_vc6_static:dll_main.obj
 0001:000a4c60       ??_Goverflow_error@_STL@@UAEPAXI@Z 004a5c60 f i stlport_vc6_static:dll_main.obj
 0001:000a4c80       ??0overflow_error@_STL@@QAE@ABV01@@Z 004a5c80 f i stlport_vc6_static:dll_main.obj
 0001:000a4cd0       ?__get_c_string@_STL@@YAPBDABV?$basic_string@DV?$char_traits@D@_STL@@V?$allocator@D@2@@1@@Z 004a5cd0 f   stlport_vc6_static:dll_main.obj
 0001:000a4cf0       ??0__Named_exception@_STL@@QAE@ABV?$basic_string@DV?$char_traits@D@_STL@@V?$allocator@D@2@@1@@Z 004a5cf0 f   stlport_vc6_static:dll_main.obj
 0001:000a4d70       ?what@__Named_exception@_STL@@UBEPBDXZ 004a5d70 f   stlport_vc6_static:dll_main.obj
 0001:000a4d90       ??1__Named_exception@_STL@@UAE@XZ 004a5d90 f   stlport_vc6_static:dll_main.obj
 0001:000a4db0       ??1logic_error@_STL@@UAE@XZ 004a5db0 f   stlport_vc6_static:dll_main.obj
 0001:000a4dd0       ??1runtime_error@_STL@@UAE@XZ 004a5dd0 f   stlport_vc6_static:dll_main.obj
 0001:000a4df0       ??1domain_error@_STL@@UAE@XZ 004a5df0 f   stlport_vc6_static:dll_main.obj
 0001:000a4e10       ??_Edomain_error@_STL@@UAEPAXI@Z 004a5e10 f i stlport_vc6_static:dll_main.obj
 0001:000a4e10       ??_Gdomain_error@_STL@@UAEPAXI@Z 004a5e10 f i stlport_vc6_static:dll_main.obj
 0001:000a4e30       ??1invalid_argument@_STL@@UAE@XZ 004a5e30 f   stlport_vc6_static:dll_main.obj
 0001:000a4e50       ??1length_error@_STL@@UAE@XZ 004a5e50 f   stlport_vc6_static:dll_main.obj
 0001:000a4e70       ??1out_of_range@_STL@@UAE@XZ 004a5e70 f   stlport_vc6_static:dll_main.obj
 0001:000a4e90       ??1range_error@_STL@@UAE@XZ 004a5e90 f   stlport_vc6_static:dll_main.obj
 0001:000a4eb0       ??1overflow_error@_STL@@UAE@XZ 004a5eb0 f   stlport_vc6_static:dll_main.obj
 0001:000a4ed0       ??1underflow_error@_STL@@UAE@XZ 004a5ed0 f   stlport_vc6_static:dll_main.obj
 0001:000a4ef0       ??_Eunderflow_error@_STL@@UAEPAXI@Z 004a5ef0 f i stlport_vc6_static:dll_main.obj
 0001:000a4ef0       ??_Gunderflow_error@_STL@@UAEPAXI@Z 004a5ef0 f i stlport_vc6_static:dll_main.obj
 0001:000a4f10       ??0?$basic_string@DV?$char_traits@D@_STL@@V?$allocator@D@2@@_STL@@QAE@ABV?$allocator@D@1@@Z 004a5f10 f i stlport_vc6_static:dll_main.obj
 0001:000a5090       ??0?$basic_string@DV?$char_traits@D@_STL@@V?$allocator@D@2@@_STL@@QAE@U_String_reserve_t@1@IABV?$allocator@D@1@@Z 004a6090 f i stlport_vc6_static:dll_main.obj
 0001:000a5210       ??0?$basic_string@DV?$char_traits@D@_STL@@V?$allocator@D@2@@_STL@@QAE@ABV01@IIABV?$allocator@D@1@@Z 004a6210 f i stlport_vc6_static:dll_main.obj
 0001:000a5500       ??0?$basic_string@DV?$char_traits@D@_STL@@V?$allocator@D@2@@_STL@@QAE@PBDIABV?$allocator@D@1@@Z 004a6500 f i stlport_vc6_static:dll_main.obj
 0001:000a56e0       ??0?$basic_string@DV?$char_traits@D@_STL@@V?$allocator@D@2@@_STL@@QAE@IDABV?$allocator@D@1@@Z 004a66e0 f i stlport_vc6_static:dll_main.obj
 0001:000a5830       ??4?$basic_string@DV?$char_traits@D@_STL@@V?$allocator@D@2@@_STL@@QAEAAV01@PBD@Z 004a6830 f i stlport_vc6_static:dll_main.obj
 0001:000a5990       ??4?$basic_string@DV?$char_traits@D@_STL@@V?$allocator@D@2@@_STL@@QAEAAV01@D@Z 004a6990 f i stlport_vc6_static:dll_main.obj
 0001:000a5ac0       ?_M_null@?$basic_string@DV?$char_traits@D@_STL@@V?$allocator@D@2@@_STL@@SADXZ 004a6ac0 f i stlport_vc6_static:dll_main.obj
 0001:000a5ad0       ?_M_construct_null_aux@?$basic_string@DV?$char_traits@D@_STL@@V?$allocator@D@2@@_STL@@AAEXPADABU__false_type@2@@Z 004a6ad0 f i stlport_vc6_static:dll_main.obj
 0001:000a5af0       ?_M_construct_null_aux@?$basic_string@DV?$char_traits@D@_STL@@V?$allocator@D@2@@_STL@@AAEXPADABU__true_type@2@@Z 004a6af0 f i stlport_vc6_static:dll_main.obj
 0001:000a5b10       ?_M_construct_null@?$basic_string@DV?$char_traits@D@_STL@@V?$allocator@D@2@@_STL@@AAEXPAD@Z 004a6b10 f i stlport_vc6_static:dll_main.obj
 0001:000a5b30       ?_M_terminate_string_aux@?$basic_string@DV?$char_traits@D@_STL@@V?$allocator@D@2@@_STL@@AAEXABU__false_type@2@@Z 004a6b30 f i stlport_vc6_static:dll_main.obj
 0001:000a5b90       ?_M_terminate_string_aux@?$basic_string@DV?$char_traits@D@_STL@@V?$allocator@D@2@@_STL@@AAEXABU__true_type@2@@Z 004a6b90 f i stlport_vc6_static:dll_main.obj
 0001:000a5bb0       ?_M_terminate_string@?$basic_string@DV?$char_traits@D@_STL@@V?$allocator@D@2@@_STL@@AAEXXZ 004a6bb0 f i stlport_vc6_static:dll_main.obj
 0001:000a5bd0       ?begin@?$basic_string@DV?$char_traits@D@_STL@@V?$allocator@D@2@@_STL@@QAEPADXZ 004a6bd0 f i stlport_vc6_static:dll_main.obj
 0001:000a5be0       ?end@?$basic_string@DV?$char_traits@D@_STL@@V?$allocator@D@2@@_STL@@QAEPADXZ 004a6be0 f i stlport_vc6_static:dll_main.obj
 0001:000a5c00       ?begin@?$basic_string@DV?$char_traits@D@_STL@@V?$allocator@D@2@@_STL@@QBEPBDXZ 004a6c00 f i stlport_vc6_static:dll_main.obj
 0001:000a5c10       ?end@?$basic_string@DV?$char_traits@D@_STL@@V?$allocator@D@2@@_STL@@QBEPBDXZ 004a6c10 f i stlport_vc6_static:dll_main.obj
 0001:000a5c30       ?rbegin@?$basic_string@DV?$char_traits@D@_STL@@V?$allocator@D@2@@_STL@@QAE?AV?$reverse_iterator@PADDAADPADH@2@XZ 004a6c30 f i stlport_vc6_static:dll_main.obj
 0001:000a5c60       ?rend@?$basic_string@DV?$char_traits@D@_STL@@V?$allocator@D@2@@_STL@@QAE?AV?$reverse_iterator@PADDAADPADH@2@XZ 004a6c60 f i stlport_vc6_static:dll_main.obj
 0001:000a5c90       ?rbegin@?$basic_string@DV?$char_traits@D@_STL@@V?$allocator@D@2@@_STL@@QBE?AV?$reverse_iterator@PBDDABDPBDH@2@XZ 004a6c90 f i stlport_vc6_static:dll_main.obj
 0001:000a5cc0       ?size@?$basic_string@DV?$char_traits@D@_STL@@V?$allocator@D@2@@_STL@@QBEIXZ 004a6cc0 f i stlport_vc6_static:dll_main.obj
 0001:000a5ce0       ?length@?$basic_string@DV?$char_traits@D@_STL@@V?$allocator@D@2@@_STL@@QBEIXZ 004a6ce0 f i stlport_vc6_static:dll_main.obj
 0001:000a5d00       ?max_size@?$basic_string@DV?$char_traits@D@_STL@@V?$allocator@D@2@@_STL@@QBEIXZ 004a6d00 f i stlport_vc6_static:dll_main.obj
 0001:000a5d10       ?resize@?$basic_string@DV?$char_traits@D@_STL@@V?$allocator@D@2@@_STL@@QAEXID@Z 004a6d10 f i stlport_vc6_static:dll_main.obj
 0001:000a5dc0       ?resize@?$basic_string@DV?$char_traits@D@_STL@@V?$allocator@D@2@@_STL@@QAEXI@Z 004a6dc0 f i stlport_vc6_static:dll_main.obj
 0001:000a5e70       ?capacity@?$basic_string@DV?$char_traits@D@_STL@@V?$allocator@D@2@@_STL@@QBEIXZ 004a6e70 f i stlport_vc6_static:dll_main.obj
 0001:000a5e90       ?clear@?$basic_string@DV?$char_traits@D@_STL@@V?$allocator@D@2@@_STL@@QAEXXZ 004a6e90 f i stlport_vc6_static:dll_main.obj
 0001:000a5ee0       ?empty@?$basic_string@DV?$char_traits@D@_STL@@V?$allocator@D@2@@_STL@@QBE_NXZ 004a6ee0 f i stlport_vc6_static:dll_main.obj
 0001:000a5f00       ??A?$basic_string@DV?$char_traits@D@_STL@@V?$allocator@D@2@@_STL@@QBEABDI@Z 004a6f00 f i stlport_vc6_static:dll_main.obj
 0001:000a5f20       ??A?$basic_string@DV?$char_traits@D@_STL@@V?$allocator@D@2@@_STL@@QAEAADI@Z 004a6f20 f i stlport_vc6_static:dll_main.obj
 0001:000a5f40       ?at@?$basic_string@DV?$char_traits@D@_STL@@V?$allocator@D@2@@_STL@@QBEABDI@Z 004a6f40 f i stlport_vc6_static:dll_main.obj
 0001:000a5f80       ?at@?$basic_string@DV?$char_traits@D@_STL@@V?$allocator@D@2@@_STL@@QAEAADI@Z 004a6f80 f i stlport_vc6_static:dll_main.obj
 0001:000a5fc0       ??Y?$basic_string@DV?$char_traits@D@_STL@@V?$allocator@D@2@@_STL@@QAEAAV01@ABV01@@Z 004a6fc0 f i stlport_vc6_static:dll_main.obj
 0001:000a6000       ??Y?$basic_string@DV?$char_traits@D@_STL@@V?$allocator@D@2@@_STL@@QAEAAV01@PBD@Z 004a7000 f i stlport_vc6_static:dll_main.obj
 0001:000a6050       ??Y?$basic_string@DV?$char_traits@D@_STL@@V?$allocator@D@2@@_STL@@QAEAAV01@D@Z 004a7050 f i stlport_vc6_static:dll_main.obj
 0001:000a6100       ?append@?$basic_string@DV?$char_traits@D@_STL@@V?$allocator@D@2@@_STL@@QAEAAV12@ABV12@@Z 004a7100 f i stlport_vc6_static:dll_main.obj
 0001:000a6140       ?append@?$basic_string@DV?$char_traits@D@_STL@@V?$allocator@D@2@@_STL@@QAEAAV12@ABV12@II@Z 004a7140 f i stlport_vc6_static:dll_main.obj
 0001:000a61d0       ?append@?$basic_string@DV?$char_traits@D@_STL@@V?$allocator@D@2@@_STL@@QAEAAV12@PBDI@Z 004a71d0 f i stlport_vc6_static:dll_main.obj
 0001:000a6200       ?append@?$basic_string@DV?$char_traits@D@_STL@@V?$allocator@D@2@@_STL@@QAEAAV12@PBD@Z 004a7200 f i stlport_vc6_static:dll_main.obj
 0001:000a6250       ?pop_back@?$basic_string@DV?$char_traits@D@_STL@@V?$allocator@D@2@@_STL@@QAEXXZ 004a7250 f i stlport_vc6_static:dll_main.obj
 0001:000a6290       ?assign@?$basic_string@DV?$char_traits@D@_STL@@V?$allocator@D@2@@_STL@@QAEAAV12@ABV12@@Z 004a7290 f i stlport_vc6_static:dll_main.obj
 0001:000a6380       ?assign@?$basic_string@DV?$char_traits@D@_STL@@V?$allocator@D@2@@_STL@@QAEAAV12@ABV12@II@Z 004a7380 f i stlport_vc6_static:dll_main.obj
 0001:000a64c0       ?assign@?$basic_string@DV?$char_traits@D@_STL@@V?$allocator@D@2@@_STL@@QAEAAV12@PBDI@Z 004a74c0 f i stlport_vc6_static:dll_main.obj
 0001:000a6610       ?assign@?$basic_string@DV?$char_traits@D@_STL@@V?$allocator@D@2@@_STL@@QAEAAV12@PBD@Z 004a7610 f i stlport_vc6_static:dll_main.obj
 0001:000a6770       ?insert@?$basic_string@DV?$char_traits@D@_STL@@V?$allocator@D@2@@_STL@@QAEAAV12@IABV12@@Z 004a7770 f i stlport_vc6_static:dll_main.obj
 0001:000a6810       ?insert@?$basic_string@DV?$char_traits@D@_STL@@V?$allocator@D@2@@_STL@@QAEAAV12@IABV12@II@Z 004a7810 f i stlport_vc6_static:dll_main.obj
 0001:000a68f0       ?insert@?$basic_string@DV?$char_traits@D@_STL@@V?$allocator@D@2@@_STL@@QAEAAV12@IPBDI@Z 004a78f0 f i stlport_vc6_static:dll_main.obj
 0001:000a6970       ?insert@?$basic_string@DV?$char_traits@D@_STL@@V?$allocator@D@2@@_STL@@QAEAAV12@IPBD@Z 004a7970 f i stlport_vc6_static:dll_main.obj
 0001:000a6a10       ?insert@?$basic_string@DV?$char_traits@D@_STL@@V?$allocator@D@2@@_STL@@QAEAAV12@IID@Z 004a7a10 f i stlport_vc6_static:dll_main.obj
 0001:000a6a90       ?insert@?$basic_string@DV?$char_traits@D@_STL@@V?$allocator@D@2@@_STL@@QAEPADPADD@Z 004a7a90 f i stlport_vc6_static:dll_main.obj
 0001:000a6b70       ?_M_copy@?$basic_string@DV?$char_traits@D@_STL@@V?$allocator@D@2@@_STL@@AAEXPBD0PAD@Z 004a7b70 f i stlport_vc6_static:dll_main.obj
 0001:000a6bc0       ?erase@?$basic_string@DV?$char_traits@D@_STL@@V?$allocator@D@2@@_STL@@QAEAAV12@II@Z 004a7bc0 f i stlport_vc6_static:dll_main.obj
 0001:000a6ca0       ?erase@?$basic_string@DV?$char_traits@D@_STL@@V?$allocator@D@2@@_STL@@QAEPADPAD@Z 004a7ca0 f i stlport_vc6_static:dll_main.obj
 0001:000a6d00       ?replace@?$basic_string@DV?$char_traits@D@_STL@@V?$allocator@D@2@@_STL@@QAEAAV12@IIABV12@@Z 004a7d00 f i stlport_vc6_static:dll_main.obj
 0001:000a6f80       ?replace@?$basic_string@DV?$char_traits@D@_STL@@V?$allocator@D@2@@_STL@@QAEAAV12@IIABV12@II@Z 004a7f80 f i stlport_vc6_static:dll_main.obj
 0001:000a7270       ?replace@?$basic_string@DV?$char_traits@D@_STL@@V?$allocator@D@2@@_STL@@QAEAAV12@IIPBDI@Z 004a8270 f i stlport_vc6_static:dll_main.obj
 0001:000a74f0       ?replace@?$basic_string@DV?$char_traits@D@_STL@@V?$allocator@D@2@@_STL@@QAEAAV12@IIPBD@Z 004a84f0 f i stlport_vc6_static:dll_main.obj
 0001:000a77b0       ?replace@?$basic_string@DV?$char_traits@D@_STL@@V?$allocator@D@2@@_STL@@QAEAAV12@IIID@Z 004a87b0 f i stlport_vc6_static:dll_main.obj
 0001:000a7940       ?replace@?$basic_string@DV?$char_traits@D@_STL@@V?$allocator@D@2@@_STL@@QAEAAV12@PAD0ABV12@@Z 004a8940 f i stlport_vc6_static:dll_main.obj
 0001:000a7ab0       ?replace@?$basic_string@DV?$char_traits@D@_STL@@V?$allocator@D@2@@_STL@@QAEAAV12@PAD0PBDI@Z 004a8ab0 f i stlport_vc6_static:dll_main.obj
 0001:000a7c20       ?replace@?$basic_string@DV?$char_traits@D@_STL@@V?$allocator@D@2@@_STL@@QAEAAV12@PAD0PBD@Z 004a8c20 f i stlport_vc6_static:dll_main.obj
 0001:000a7db0       ?copy@?$basic_string@DV?$char_traits@D@_STL@@V?$allocator@D@2@@_STL@@QBEIPADII@Z 004a8db0 f i stlport_vc6_static:dll_main.obj
 0001:000a7e50       ?swap@?$basic_string@DV?$char_traits@D@_STL@@V?$allocator@D@2@@_STL@@QAEXAAV12@@Z 004a8e50 f i stlport_vc6_static:dll_main.obj
 0001:000a7ec0       ?c_str@?$basic_string@DV?$char_traits@D@_STL@@V?$allocator@D@2@@_STL@@QBEPBDXZ 004a8ec0 f i stlport_vc6_static:dll_main.obj
 0001:000a7ed0       ?data@?$basic_string@DV?$char_traits@D@_STL@@V?$allocator@D@2@@_STL@@QBEPBDXZ 004a8ed0 f i stlport_vc6_static:dll_main.obj
 0001:000a7ee0       ?find@?$basic_string@DV?$char_traits@D@_STL@@V?$allocator@D@2@@_STL@@QBEIABV12@I@Z 004a8ee0 f i stlport_vc6_static:dll_main.obj
 0001:000a8100       ?find@?$basic_string@DV?$char_traits@D@_STL@@V?$allocator@D@2@@_STL@@QBEIPBDI@Z 004a9100 f i stlport_vc6_static:dll_main.obj
 0001:000a8320       ?rfind@?$basic_string@DV?$char_traits@D@_STL@@V?$allocator@D@2@@_STL@@QBEIABV12@I@Z 004a9320 f i stlport_vc6_static:dll_main.obj
 0001:000a8600       ?rfind@?$basic_string@DV?$char_traits@D@_STL@@V?$allocator@D@2@@_STL@@QBEIPBDI@Z 004a9600 f i stlport_vc6_static:dll_main.obj
 0001:000a88e0       ?find_first_of@?$basic_string@DV?$char_traits@D@_STL@@V?$allocator@D@2@@_STL@@QBEIABV12@I@Z 004a98e0 f i stlport_vc6_static:dll_main.obj
 0001:000a89e0       ?find_first_of@?$basic_string@DV?$char_traits@D@_STL@@V?$allocator@D@2@@_STL@@QBEIPBDI@Z 004a99e0 f i stlport_vc6_static:dll_main.obj
 0001:000a8ae0       ?find_first_of@?$basic_string@DV?$char_traits@D@_STL@@V?$allocator@D@2@@_STL@@QBEIDI@Z 004a9ae0 f i stlport_vc6_static:dll_main.obj
 0001:000a8cf0       ?find_last_of@?$basic_string@DV?$char_traits@D@_STL@@V?$allocator@D@2@@_STL@@QBEIABV12@I@Z 004a9cf0 f i stlport_vc6_static:dll_main.obj
 0001:000a8e00       ?find_last_of@?$basic_string@DV?$char_traits@D@_STL@@V?$allocator@D@2@@_STL@@QBEIPBDI@Z 004a9e00 f i stlport_vc6_static:dll_main.obj
 0001:000a8f10       ?find_last_of@?$basic_string@DV?$char_traits@D@_STL@@V?$allocator@D@2@@_STL@@QBEIDI@Z 004a9f10 f i stlport_vc6_static:dll_main.obj
 0001:000a9010       ?find_first_not_of@?$basic_string@DV?$char_traits@D@_STL@@V?$allocator@D@2@@_STL@@QBEIABV12@I@Z 004aa010 f i stlport_vc6_static:dll_main.obj
 0001:000a97c0       ?find_first_not_of@?$basic_string@DV?$char_traits@D@_STL@@V?$allocator@D@2@@_STL@@QBEIPBDI@Z 004aa7c0 f i stlport_vc6_static:dll_main.obj
 0001:000a9f60       ?find_last_not_of@?$basic_string@DV?$char_traits@D@_STL@@V?$allocator@D@2@@_STL@@QBEIABV12@I@Z 004aaf60 f i stlport_vc6_static:dll_main.obj
 0001:000aa080       ?find_last_not_of@?$basic_string@DV?$char_traits@D@_STL@@V?$allocator@D@2@@_STL@@QBEIPBDI@Z 004ab080 f i stlport_vc6_static:dll_main.obj
 0001:000aa1a0       ?substr@?$basic_string@DV?$char_traits@D@_STL@@V?$allocator@D@2@@_STL@@QBE?AV12@II@Z 004ab1a0 f i stlport_vc6_static:dll_main.obj
 0001:000aa3f0       ?compare@?$basic_string@DV?$char_traits@D@_STL@@V?$allocator@D@2@@_STL@@QBEHABV12@@Z 004ab3f0 f i stlport_vc6_static:dll_main.obj
 0001:000aa4c0       ?compare@?$basic_string@DV?$char_traits@D@_STL@@V?$allocator@D@2@@_STL@@QBEHIIABV12@@Z 004ab4c0 f i stlport_vc6_static:dll_main.obj
 0001:000aa5e0       ?compare@?$basic_string@DV?$char_traits@D@_STL@@V?$allocator@D@2@@_STL@@QBEHIIABV12@II@Z 004ab5e0 f i stlport_vc6_static:dll_main.obj
 0001:000aa750       ?compare@?$basic_string@DV?$char_traits@D@_STL@@V?$allocator@D@2@@_STL@@QBEHPBD@Z 004ab750 f i stlport_vc6_static:dll_main.obj
 0001:000aa820       ?compare@?$basic_string@DV?$char_traits@D@_STL@@V?$allocator@D@2@@_STL@@QBEHIIPBD@Z 004ab820 f i stlport_vc6_static:dll_main.obj
 0001:000aa950       ?compare@?$basic_string@DV?$char_traits@D@_STL@@V?$allocator@D@2@@_STL@@QBEHIIPBDI@Z 004ab950 f i stlport_vc6_static:dll_main.obj
 0001:000aaa60       ?_M_compare@?$basic_string@DV?$char_traits@D@_STL@@V?$allocator@D@2@@_STL@@SAHPBD000@Z 004aba60 f i stlport_vc6_static:dll_main.obj
 0001:000aab00       ?max_size@?$_String_base@DV?$allocator@D@_STL@@@_STL@@QBEIXZ 004abb00 f i stlport_vc6_static:dll_main.obj
 0001:000aab10       ??0?$_String_base@DV?$allocator@D@_STL@@@_STL@@QAE@ABV?$allocator@D@1@I@Z 004abb10 f i stlport_vc6_static:dll_main.obj
 0001:000aad20       ?allocate@?$_STLP_alloc_proxy@PADDV?$allocator@D@_STL@@@_STL@@QAEPADI@Z 004abd20 f i stlport_vc6_static:dll_main.obj
 0001:000aad70       ??0?$allocator@D@_STL@@QAE@XZ 004abd70 f i stlport_vc6_static:dll_main.obj
 0001:000aad80       ??0?$allocator@D@_STL@@QAE@ABV01@@Z 004abd80 f i stlport_vc6_static:dll_main.obj
 0001:000aad90       ?address@?$allocator@D@_STL@@QAEPADAAD@Z 004abd90 f i stlport_vc6_static:dll_main.obj
 0001:000aada0       ?address@?$allocator@D@_STL@@QBEPBDABD@Z 004abda0 f i stlport_vc6_static:dll_main.obj
 0001:000aadb0       ?allocate@?$allocator@D@_STL@@QBEPADIPBX@Z 004abdb0 f i stlport_vc6_static:dll_main.obj
 0001:000aae00       ?deallocate@?$allocator@D@_STL@@QBEXPAD@Z 004abe00 f i stlport_vc6_static:dll_main.obj
 0001:000aae40       ?max_size@?$allocator@D@_STL@@QBEIXZ 004abe40 f i stlport_vc6_static:dll_main.obj
 0001:000aae50       ?construct@?$allocator@D@_STL@@QBEXPADABD@Z 004abe50 f i stlport_vc6_static:dll_main.obj
 0001:000aae90       ?destroy@?$allocator@D@_STL@@QBEXPAD@Z 004abe90 f i stlport_vc6_static:dll_main.obj
 0001:000aaea0       ?_S_round_up@?$__node_alloc@$0A@$0A@@_STL@@SAII@Z 004abea0 f i stlport_vc6_static:dll_main.obj
 0001:000aaeb0       ?allocate@?$__node_alloc@$0A@$0A@@_STL@@SAPAXI@Z 004abeb0 f i stlport_vc6_static:dll_main.obj
 0001:000aaef0       ?deallocate@?$__node_alloc@$0A@$0A@@_STL@@SAXPAXI@Z 004abef0 f i stlport_vc6_static:dll_main.obj
 0001:000aaf20       ?_S_round_up@?$__node_alloc@$00$0A@@_STL@@SAII@Z 004abf20 f i stlport_vc6_static:dll_main.obj
 0001:000aaf30       ?allocate@?$__node_alloc@$00$0A@@_STL@@SAPAXI@Z 004abf30 f i stlport_vc6_static:dll_main.obj
 0001:000aaf70       ?__extra_before_chunk@?$__debug_alloc@V?$__node_alloc@$00$0A@@_STL@@@_STL@@CAIXZ 004abf70 f i stlport_vc6_static:dll_main.obj
 0001:000aaf80       ?__extra_after_chunk@?$__debug_alloc@V?$__node_alloc@$00$0A@@_STL@@@_STL@@CAIXZ 004abf80 f i stlport_vc6_static:dll_main.obj
 0001:000aaf90       ??0?$__debug_alloc@V?$__node_alloc@$00$0A@@_STL@@@_STL@@QAE@XZ 004abf90 f i stlport_vc6_static:dll_main.obj
 0001:000aafa0       ??1?$__debug_alloc@V?$__node_alloc@$00$0A@@_STL@@@_STL@@QAE@XZ 004abfa0 f i stlport_vc6_static:dll_main.obj
 0001:000aafb0       ?__extra_before_chunk@?$__debug_alloc@V?$__node_alloc@$0A@$0A@@_STL@@@_STL@@CAIXZ 004abfb0 f i stlport_vc6_static:dll_main.obj
 0001:000aafc0       ?__extra_after_chunk@?$__debug_alloc@V?$__node_alloc@$0A@$0A@@_STL@@@_STL@@CAIXZ 004abfc0 f i stlport_vc6_static:dll_main.obj
 0001:000aafd0       ??0?$__debug_alloc@V?$__node_alloc@$0A@$0A@@_STL@@@_STL@@QAE@XZ 004abfd0 f i stlport_vc6_static:dll_main.obj
 0001:000aafe0       ??1?$__debug_alloc@V?$__node_alloc@$0A@$0A@@_STL@@@_STL@@QAE@XZ 004abfe0 f i stlport_vc6_static:dll_main.obj
 0001:000aaff0       ?__extra_before_chunk@?$__debug_alloc@V__new_alloc@_STL@@@_STL@@CAIXZ 004abff0 f i stlport_vc6_static:dll_main.obj
 0001:000ab000       ?__extra_after_chunk@?$__debug_alloc@V__new_alloc@_STL@@@_STL@@CAIXZ 004ac000 f i stlport_vc6_static:dll_main.obj
 0001:000ab010       ??0?$__debug_alloc@V__new_alloc@_STL@@@_STL@@QAE@XZ 004ac010 f i stlport_vc6_static:dll_main.obj
 0001:000ab020       ??1?$__debug_alloc@V__new_alloc@_STL@@@_STL@@QAE@XZ 004ac020 f i stlport_vc6_static:dll_main.obj
 0001:000ab030       ?allocate@?$__malloc_alloc@$0A@@_STL@@SAPAXI@Z 004ac030 f i stlport_vc6_static:dll_main.obj
 0001:000ab0a0       ??0bad_alloc@std@@QAE@PBD@Z 004ac0a0 f i stlport_vc6_static:dll_main.obj
 0001:000ab0c0       ??1bad_alloc@std@@UAE@XZ   004ac0c0 f i stlport_vc6_static:dll_main.obj
 0001:000ab0d0       ?_Doraise@bad_alloc@std@@MBEXXZ 004ac0d0 f i stlport_vc6_static:dll_main.obj
 0001:000ab0f0       ??_Gbad_alloc@std@@UAEPAXI@Z 004ac0f0 f i stlport_vc6_static:dll_main.obj
 0001:000ab0f0       ??_Ebad_alloc@std@@UAEPAXI@Z 004ac0f0 f i stlport_vc6_static:dll_main.obj
 0001:000ab110       ??0bad_alloc@std@@QAE@ABV01@@Z 004ac110 f i stlport_vc6_static:dll_main.obj
 0001:000ab130       ?deallocate@?$__malloc_alloc@$0A@@_STL@@SAXPAXI@Z 004ac130 f i stlport_vc6_static:dll_main.obj
 0001:000ab150       ?set_malloc_handler@?$__malloc_alloc@$0A@@_STL@@SAP6AXXZP6AXXZ@Z 004ac150 f i stlport_vc6_static:dll_main.obj
 0001:000ab170       ??0?$allocator@PAX@_STL@@QAE@XZ 004ac170 f i stlport_vc6_static:dll_main.obj
 0001:000ab180       ??0?$allocator@PAX@_STL@@QAE@ABV01@@Z 004ac180 f i stlport_vc6_static:dll_main.obj
 0001:000ab190       ??1?$allocator@PAX@_STL@@QAE@XZ 004ac190 f i stlport_vc6_static:dll_main.obj
 0001:000ab1a0       ?address@?$allocator@PAX@_STL@@QAEPAPAXAAPAX@Z 004ac1a0 f i stlport_vc6_static:dll_main.obj
 0001:000ab1b0       ?address@?$allocator@PAX@_STL@@QBEPBQAXABQAX@Z 004ac1b0 f i stlport_vc6_static:dll_main.obj
 0001:000ab1c0       ?allocate@?$allocator@PAX@_STL@@QBEPAPAXIPBX@Z 004ac1c0 f i stlport_vc6_static:dll_main.obj
 0001:000ab220       ?deallocate@?$allocator@PAX@_STL@@QBEXPAPAXI@Z 004ac220 f i stlport_vc6_static:dll_main.obj
 0001:000ab270       ?deallocate@?$allocator@PAX@_STL@@QBEXPAPAX@Z 004ac270 f i stlport_vc6_static:dll_main.obj
 0001:000ab2b0       ?max_size@?$allocator@PAX@_STL@@QBEIXZ 004ac2b0 f i stlport_vc6_static:dll_main.obj
 0001:000ab2c0       ?construct@?$allocator@PAX@_STL@@QBEXPAPAXABQAX@Z 004ac2c0 f i stlport_vc6_static:dll_main.obj
 0001:000ab300       ?destroy@?$allocator@PAX@_STL@@QBEXPAPAX@Z 004ac300 f i stlport_vc6_static:dll_main.obj
 0001:000ab310       ??0?$_STLP_alloc_proxy@PAPAXPAXV?$allocator@PAX@_STL@@@_STL@@QAE@ABV?$allocator@PAX@1@PAPAX@Z 004ac310 f i stlport_vc6_static:dll_main.obj
 0001:000ab330       ?allocate@?$_STLP_alloc_proxy@PAPAXPAXV?$allocator@PAX@_STL@@@_STL@@QAEPAPAXI@Z 004ac330 f i stlport_vc6_static:dll_main.obj
 0001:000ab390       ?deallocate@?$_STLP_alloc_proxy@PAPAXPAXV?$allocator@PAX@_STL@@@_STL@@QAEXPAPAXI@Z 004ac390 f i stlport_vc6_static:dll_main.obj
 0001:000ab3e0       ??0?$_Vector_base@PAXV?$allocator@PAX@_STL@@@_STL@@QAE@ABV?$allocator@PAX@1@@Z 004ac3e0 f i stlport_vc6_static:dll_main.obj
 0001:000ab420       ??0?$_Vector_base@PAXV?$allocator@PAX@_STL@@@_STL@@QAE@IABV?$allocator@PAX@1@@Z 004ac420 f i stlport_vc6_static:dll_main.obj
 0001:000ab720       ??1?$_Vector_base@PAXV?$allocator@PAX@_STL@@@_STL@@QAE@XZ 004ac720 f i stlport_vc6_static:dll_main.obj
 0001:000ab800       ?get_allocator@?$vector@PAXV?$allocator@PAX@_STL@@@_STL@@QBE?AV?$allocator@PAX@2@XZ 004ac800 f i stlport_vc6_static:dll_main.obj
 0001:000ab830       ?_M_insert_overflow@?$vector@PAXV?$allocator@PAX@_STL@@@_STL@@IAEXPAPAXABQAXABU__false_type@2@I_N@Z 004ac830 f i stlport_vc6_static:dll_main.obj
 0001:000abba0       ?_M_insert_overflow@?$vector@PAXV?$allocator@PAX@_STL@@@_STL@@IAEXPAPAXABQAXABU__true_type@2@I_N@Z 004acba0 f i stlport_vc6_static:dll_main.obj
 0001:000abd70       ?_M_range_check@?$vector@PAXV?$allocator@PAX@_STL@@@_STL@@IBEXI@Z 004acd70 f i stlport_vc6_static:dll_main.obj
 0001:000abda0       ?begin@?$vector@PAXV?$allocator@PAX@_STL@@@_STL@@QAEPAPAXXZ 004acda0 f i stlport_vc6_static:dll_main.obj
 0001:000abdb0       ?begin@?$vector@PAXV?$allocator@PAX@_STL@@@_STL@@QBEPBQAXXZ 004acdb0 f i stlport_vc6_static:dll_main.obj
 0001:000abdc0       ?end@?$vector@PAXV?$allocator@PAX@_STL@@@_STL@@QAEPAPAXXZ 004acdc0 f i stlport_vc6_static:dll_main.obj
 0001:000abde0       ?end@?$vector@PAXV?$allocator@PAX@_STL@@@_STL@@QBEPBQAXXZ 004acde0 f i stlport_vc6_static:dll_main.obj
 0001:000abe00       ?rbegin@?$vector@PAXV?$allocator@PAX@_STL@@@_STL@@QAE?AV?$reverse_iterator@PAPAXPAXAAPAXPAPAXH@2@XZ 004ace00 f i stlport_vc6_static:dll_main.obj
 0001:000abe30       ?rbegin@?$vector@PAXV?$allocator@PAX@_STL@@@_STL@@QBE?AV?$reverse_iterator@PBQAXPAXABQAXPBQAXH@2@XZ 004ace30 f i stlport_vc6_static:dll_main.obj
 0001:000abe60       ?rend@?$vector@PAXV?$allocator@PAX@_STL@@@_STL@@QAE?AV?$reverse_iterator@PAPAXPAXAAPAXPAPAXH@2@XZ 004ace60 f i stlport_vc6_static:dll_main.obj
 0001:000abe90       ?rend@?$vector@PAXV?$allocator@PAX@_STL@@@_STL@@QBE?AV?$reverse_iterator@PBQAXPAXABQAXPBQAXH@2@XZ 004ace90 f i stlport_vc6_static:dll_main.obj
 0001:000abec0       ?size@?$vector@PAXV?$allocator@PAX@_STL@@@_STL@@QBEIXZ 004acec0 f i stlport_vc6_static:dll_main.obj
 0001:000abee0       ?max_size@?$vector@PAXV?$allocator@PAX@_STL@@@_STL@@QBEIXZ 004acee0 f i stlport_vc6_static:dll_main.obj
 0001:000abef0       ?capacity@?$vector@PAXV?$allocator@PAX@_STL@@@_STL@@QBEIXZ 004acef0 f i stlport_vc6_static:dll_main.obj
 0001:000abf10       ?empty@?$vector@PAXV?$allocator@PAX@_STL@@@_STL@@QBE_NXZ 004acf10 f i stlport_vc6_static:dll_main.obj
 0001:000abf30       ??A?$vector@PAXV?$allocator@PAX@_STL@@@_STL@@QAEAAPAXI@Z 004acf30 f i stlport_vc6_static:dll_main.obj
 0001:000abf50       ??A?$vector@PAXV?$allocator@PAX@_STL@@@_STL@@QBEABQAXI@Z 004acf50 f i stlport_vc6_static:dll_main.obj
 0001:000abf70       ?front@?$vector@PAXV?$allocator@PAX@_STL@@@_STL@@QAEAAPAXXZ 004acf70 f i stlport_vc6_static:dll_main.obj
 0001:000abf90       ?front@?$vector@PAXV?$allocator@PAX@_STL@@@_STL@@QBEABQAXXZ 004acf90 f i stlport_vc6_static:dll_main.obj
 0001:000abfb0       ?back@?$vector@PAXV?$allocator@PAX@_STL@@@_STL@@QAEAAPAXXZ 004acfb0 f i stlport_vc6_static:dll_main.obj
 0001:000abfd0       ?back@?$vector@PAXV?$allocator@PAX@_STL@@@_STL@@QBEABQAXXZ 004acfd0 f i stlport_vc6_static:dll_main.obj
 0001:000abff0       ?at@?$vector@PAXV?$allocator@PAX@_STL@@@_STL@@QAEAAPAXI@Z 004acff0 f i stlport_vc6_static:dll_main.obj
 0001:000ac030       ?at@?$vector@PAXV?$allocator@PAX@_STL@@@_STL@@QBEABQAXI@Z 004ad030 f i stlport_vc6_static:dll_main.obj
 0001:000ac070       ??0?$vector@PAXV?$allocator@PAX@_STL@@@_STL@@QAE@ABV?$allocator@PAX@1@@Z 004ad070 f i stlport_vc6_static:dll_main.obj
 0001:000ac0b0       ??0?$vector@PAXV?$allocator@PAX@_STL@@@_STL@@QAE@IABQAXABV?$allocator@PAX@1@@Z 004ad0b0 f i stlport_vc6_static:dll_main.obj
 0001:000ac2f0       ??0?$vector@PAXV?$allocator@PAX@_STL@@@_STL@@QAE@I@Z 004ad2f0 f i stlport_vc6_static:dll_main.obj
 0001:000ac4a0       ??0?$vector@PAXV?$allocator@PAX@_STL@@@_STL@@QAE@ABV01@@Z 004ad4a0 f i stlport_vc6_static:dll_main.obj
 0001:000ac680       ??1?$vector@PAXV?$allocator@PAX@_STL@@@_STL@@QAE@XZ 004ad680 f i stlport_vc6_static:dll_main.obj
 0001:000ac760       ?assign@?$vector@PAXV?$allocator@PAX@_STL@@@_STL@@QAEXIABQAX@Z 004ad760 f i stlport_vc6_static:dll_main.obj
 0001:000ac780       ?push_back@?$vector@PAXV?$allocator@PAX@_STL@@@_STL@@QAEXABQAX@Z 004ad780 f i stlport_vc6_static:dll_main.obj
 0001:000ac9b0       ?swap@?$vector@PAXV?$allocator@PAX@_STL@@@_STL@@QAEXAAV12@@Z 004ad9b0 f i stlport_vc6_static:dll_main.obj
 0001:000aca20       ?insert@?$vector@PAXV?$allocator@PAX@_STL@@@_STL@@QAEPAPAXPAPAXABQAX@Z 004ada20 f i stlport_vc6_static:dll_main.obj
 0001:000acd30       ?push_back@?$vector@PAXV?$allocator@PAX@_STL@@@_STL@@QAEXXZ 004add30 f i stlport_vc6_static:dll_main.obj
 0001:000acf60       ?insert@?$vector@PAXV?$allocator@PAX@_STL@@@_STL@@QAEPAPAXPAPAX@Z 004adf60 f i stlport_vc6_static:dll_main.obj
 0001:000ad260       ?insert@?$vector@PAXV?$allocator@PAX@_STL@@@_STL@@QAEXPAPAXIABQAX@Z 004ae260 f i stlport_vc6_static:dll_main.obj
 0001:000ad710       ?pop_back@?$vector@PAXV?$allocator@PAX@_STL@@@_STL@@QAEXXZ 004ae710 f i stlport_vc6_static:dll_main.obj
 0001:000ad730       ?erase@?$vector@PAXV?$allocator@PAX@_STL@@@_STL@@QAEPAPAXPAPAX@Z 004ae730 f i stlport_vc6_static:dll_main.obj
 0001:000ad7b0       ?erase@?$vector@PAXV?$allocator@PAX@_STL@@@_STL@@QAEPAPAXPAPAX0@Z 004ae7b0 f i stlport_vc6_static:dll_main.obj
 0001:000ad810       ?resize@?$vector@PAXV?$allocator@PAX@_STL@@@_STL@@QAEXIABQAX@Z 004ae810 f i stlport_vc6_static:dll_main.obj
 0001:000add70       ?resize@?$vector@PAXV?$allocator@PAX@_STL@@@_STL@@QAEXI@Z 004aed70 f i stlport_vc6_static:dll_main.obj
 0001:000ae280       ?clear@?$vector@PAXV?$allocator@PAX@_STL@@@_STL@@QAEXXZ 004af280 f i stlport_vc6_static:dll_main.obj
 0001:000ae2f0       ?_M_clear@?$vector@PAXV?$allocator@PAX@_STL@@@_STL@@IAEXXZ 004af2f0 f i stlport_vc6_static:dll_main.obj
 0001:000ae350       ?_M_set@?$vector@PAXV?$allocator@PAX@_STL@@@_STL@@IAEXPAPAX00@Z 004af350 f i stlport_vc6_static:dll_main.obj
 0001:000ae380       ?__previous@?$_Sl_global@_N@_STL@@SAPBU_Slist_node_base@2@PBU32@0@Z 004af380 f i stlport_vc6_static:dll_main.obj
 0001:000ae3b0       ??1?$_STLP_alloc_proxy@PAPAXPAXV?$allocator@PAX@_STL@@@_STL@@QAE@XZ 004af3b0 f i stlport_vc6_static:dll_main.obj
 0001:000ae3c0       ?_M_throw_length_error@?$_String_base@DV?$allocator@D@_STL@@@_STL@@QBEXXZ 004af3c0 f i stlport_vc6_static:dll_main.obj
 0001:000ae3e0       ?_M_throw_out_of_range@?$_String_base@DV?$allocator@D@_STL@@@_STL@@QBEXXZ 004af3e0 f i stlport_vc6_static:dll_main.obj
 0001:000ae400       ??0?$basic_string@DV?$char_traits@D@_STL@@V?$allocator@D@2@@_STL@@QAE@PBDABV?$allocator@D@1@@Z 004af400 f i stlport_vc6_static:dll_main.obj
 0001:000ae600       ?append@?$basic_string@DV?$char_traits@D@_STL@@V?$allocator@D@2@@_STL@@QAEAAV12@ID@Z 004af600 f i stlport_vc6_static:dll_main.obj
 0001:000ae770       ?assign@?$basic_string@DV?$char_traits@D@_STL@@V?$allocator@D@2@@_STL@@QAEAAV12@ID@Z 004af770 f i stlport_vc6_static:dll_main.obj
 0001:000ae890       ?insert@?$basic_string@DV?$char_traits@D@_STL@@V?$allocator@D@2@@_STL@@QAEXPADID@Z 004af890 f i stlport_vc6_static:dll_main.obj
 0001:000aee80       ?_M_insert_aux@?$basic_string@DV?$char_traits@D@_STL@@V?$allocator@D@2@@_STL@@AAEPADPADD@Z 004afe80 f i stlport_vc6_static:dll_main.obj
 0001:000af310       ?replace@?$basic_string@DV?$char_traits@D@_STL@@V?$allocator@D@2@@_STL@@QAEAAV12@PAD0ID@Z 004b0310 f i stlport_vc6_static:dll_main.obj
 0001:000af400       ?find@?$basic_string@DV?$char_traits@D@_STL@@V?$allocator@D@2@@_STL@@QBEIDI@Z 004b0400 f i stlport_vc6_static:dll_main.obj
 0001:000af600       ?find@?$basic_string@DV?$char_traits@D@_STL@@V?$allocator@D@2@@_STL@@QBEIPBDII@Z 004b0600 f i stlport_vc6_static:dll_main.obj
 0001:000af800       ?rfind@?$basic_string@DV?$char_traits@D@_STL@@V?$allocator@D@2@@_STL@@QBEIPBDII@Z 004b0800 f i stlport_vc6_static:dll_main.obj
 0001:000afab0       ?find_first_of@?$basic_string@DV?$char_traits@D@_STL@@V?$allocator@D@2@@_STL@@QBEIPBDII@Z 004b0ab0 f i stlport_vc6_static:dll_main.obj
 0001:000afb90       ?find_last_of@?$basic_string@DV?$char_traits@D@_STL@@V?$allocator@D@2@@_STL@@QBEIPBDII@Z 004b0b90 f i stlport_vc6_static:dll_main.obj
 0001:000afc80       ?find_first_not_of@?$basic_string@DV?$char_traits@D@_STL@@V?$allocator@D@2@@_STL@@QBEIDI@Z 004b0c80 f i stlport_vc6_static:dll_main.obj
 0001:000afed0       ?find_first_not_of@?$basic_string@DV?$char_traits@D@_STL@@V?$allocator@D@2@@_STL@@QBEIPBDII@Z 004b0ed0 f i stlport_vc6_static:dll_main.obj
 0001:000b0640       ?find_last_not_of@?$basic_string@DV?$char_traits@D@_STL@@V?$allocator@D@2@@_STL@@QBEIDI@Z 004b1640 f i stlport_vc6_static:dll_main.obj
 0001:000b0730       ?_Message@?$__stl_debug_engine@_N@_STL@@SAXPBDZZ 004b1730 f i stlport_vc6_static:dll_main.obj
 0001:000b0790       ?_IndexedError@?$__stl_debug_engine@_N@_STL@@SAXHPBDH@Z 004b1790 f i stlport_vc6_static:dll_main.obj
 0001:000b07c0       ?_Assert@?$__stl_debug_engine@_N@_STL@@SAXPBD0H@Z 004b17c0 f i stlport_vc6_static:dll_main.obj
 0001:000b07f0       ?_VerboseAssert@?$__stl_debug_engine@_N@_STL@@SAXPBDH0H@Z 004b17f0 f i stlport_vc6_static:dll_main.obj
 0001:000b0830       ?_Terminate@?$__stl_debug_engine@_N@_STL@@SAXXZ 004b1830 f i stlport_vc6_static:dll_main.obj
 0001:000b0840       ?_S_refill@?$__node_alloc@$0A@$0A@@_STL@@CAPAXI@Z 004b1840 f i stlport_vc6_static:dll_main.obj
 0001:000b0a80       ?_S_chunk_alloc@?$__node_alloc@$0A@$0A@@_STL@@CAPADIAAH@Z 004b1a80 f i stlport_vc6_static:dll_main.obj
 0001:000b0c30       ?_M_allocate@?$__node_alloc@$0A@$0A@@_STL@@CAPAXI@Z 004b1c30 f i stlport_vc6_static:dll_main.obj
 0001:000b0e90       ?_M_deallocate@?$__node_alloc@$0A@$0A@@_STL@@CAXPAXI@Z 004b1e90 f i stlport_vc6_static:dll_main.obj
 0001:000b1000       ?allocate@?$__debug_alloc@V?$__node_alloc@$00$0A@@_STL@@@_STL@@SAPAXI@Z 004b2000 f i stlport_vc6_static:dll_main.obj
 0001:000b10a0       ?deallocate@?$__debug_alloc@V?$__node_alloc@$00$0A@@_STL@@@_STL@@SAXPAXI@Z 004b20a0 f i stlport_vc6_static:dll_main.obj
 0001:000b1160       ?allocate@?$__debug_alloc@V?$__node_alloc@$0A@$0A@@_STL@@@_STL@@SAPAXI@Z 004b2160 f i stlport_vc6_static:dll_main.obj
 0001:000b1200       ?deallocate@?$__debug_alloc@V?$__node_alloc@$0A@$0A@@_STL@@@_STL@@SAXPAXI@Z 004b2200 f i stlport_vc6_static:dll_main.obj
 0001:000b12c0       ?allocate@?$__debug_alloc@V__new_alloc@_STL@@@_STL@@SAPAXI@Z 004b22c0 f i stlport_vc6_static:dll_main.obj
 0001:000b1340       ?deallocate@?$__debug_alloc@V__new_alloc@_STL@@@_STL@@SAXPAXI@Z 004b2340 f i stlport_vc6_static:dll_main.obj
 0001:000b13e0       ?_S_oom_malloc@?$__malloc_alloc@$0A@@_STL@@CAPAXI@Z 004b23e0 f i stlport_vc6_static:dll_main.obj
 0001:000b1440       ??4?$vector@PAXV?$allocator@PAX@_STL@@@_STL@@QAEAAV01@ABV01@@Z 004b2440 f i stlport_vc6_static:dll_main.obj
 0001:000b1640       ?reserve@?$vector@PAXV?$allocator@PAX@_STL@@@_STL@@QAEXI@Z 004b2640 f i stlport_vc6_static:dll_main.obj
 0001:000b1760       ?_M_fill_assign@?$vector@PAXV?$allocator@PAX@_STL@@@_STL@@QAEXIABQAX@Z 004b2760 f i stlport_vc6_static:dll_main.obj
 0001:000b1a60       ?_M_fill_insert@?$vector@PAXV?$allocator@PAX@_STL@@@_STL@@QAEXPAPAXIABQAX@Z 004b2a60 f i stlport_vc6_static:dll_main.obj
 0001:000b1f60       ?_Rebalance@?$_Rb_global@_N@_STL@@SAXPAU_Rb_tree_node_base@2@AAPAU32@@Z 004b2f60 f i stlport_vc6_static:dll_main.obj
 0001:000b22e0       ?_Rebalance_for_erase@?$_Rb_global@_N@_STL@@SAPAU_Rb_tree_node_base@2@PAU32@AAPAU32@11@Z 004b32e0 f i stlport_vc6_static:dll_main.obj
 0001:000b2a30       ?_M_increment@?$_Rb_global@_N@_STL@@SAPAU_Rb_tree_node_base@2@PAU32@@Z 004b3a30 f i stlport_vc6_static:dll_main.obj
 0001:000b2aa0       ?_M_decrement@?$_Rb_global@_N@_STL@@SAPAU_Rb_tree_node_base@2@PAU32@@Z 004b3aa0 f i stlport_vc6_static:dll_main.obj
 0001:000b2b30       ?_Rotate_left@?$_Rb_global@_N@_STL@@SAXPAU_Rb_tree_node_base@2@AAPAU32@@Z 004b3b30 f i stlport_vc6_static:dll_main.obj
 0001:000b2bc0       ?_Rotate_right@?$_Rb_global@_N@_STL@@SAXPAU_Rb_tree_node_base@2@AAPAU32@@Z 004b3bc0 f i stlport_vc6_static:dll_main.obj
 0001:000b2c50       ?_Transfer@?$_List_global@_N@_STL@@SAXPAU_List_node_base@2@00@Z 004b3c50 f i stlport_vc6_static:dll_main.obj
 0001:000b2cb0       ?size@?$_Sl_global@_N@_STL@@SAIPAU_Slist_node_base@2@@Z 004b3cb0 f i stlport_vc6_static:dll_main.obj
 0001:000b2ce0       ?__reverse@?$_Sl_global@_N@_STL@@SAPAU_Slist_node_base@2@PAU32@@Z 004b3ce0 f i stlport_vc6_static:dll_main.obj
 0001:000b2d30       ?__splice_after@?$_Sl_global@_N@_STL@@SAXPAU_Slist_node_base@2@0@Z 004b3d30 f i stlport_vc6_static:dll_main.obj
 0001:000b2da0       ?__splice_after@?$_Sl_global@_N@_STL@@SAXPAU_Slist_node_base@2@00@Z 004b3da0 f i stlport_vc6_static:dll_main.obj
 0001:000b2df0       ?__previous@?$_Sl_global@_N@_STL@@SAPAU_Slist_node_base@2@PAU32@PBU32@@Z 004b3df0 f i stlport_vc6_static:dll_main.obj
 0001:000b2e20       ?assign@?$basic_string@DV?$char_traits@D@_STL@@V?$allocator@D@2@@_STL@@QAEAAV12@PAD0@Z 004b3e20 f i stlport_vc6_static:dll_main.obj
 0001:000b2f00       ?append@?$basic_string@DV?$char_traits@D@_STL@@V?$allocator@D@2@@_STL@@QAEAAV12@PAD0@Z 004b3f00 f i stlport_vc6_static:dll_main.obj
 0001:000b2f30       ?append@?$basic_string@DV?$char_traits@D@_STL@@V?$allocator@D@2@@_STL@@QAEAAV12@PBD0@Z 004b3f30 f i stlport_vc6_static:dll_main.obj
 0001:000b2f60       ?insert@?$basic_string@DV?$char_traits@D@_STL@@V?$allocator@D@2@@_STL@@QAEXPAD00@Z 004b3f60 f i stlport_vc6_static:dll_main.obj
 0001:000b2f90       ?insert@?$basic_string@DV?$char_traits@D@_STL@@V?$allocator@D@2@@_STL@@QAEXPADPBD1@Z 004b3f90 f i stlport_vc6_static:dll_main.obj
 0001:000b2fc0       ?replace@?$basic_string@DV?$char_traits@D@_STL@@V?$allocator@D@2@@_STL@@QAEAAV12@PAD000@Z 004b3fc0 f i stlport_vc6_static:dll_main.obj
 0001:000b3120       ?replace@?$basic_string@DV?$char_traits@D@_STL@@V?$allocator@D@2@@_STL@@QAEAAV12@PAD0PBD1@Z 004b4120 f i stlport_vc6_static:dll_main.obj
 0001:000b3290       ?swap@_STL@@YAXAAV?$_STLP_alloc_proxy@PADDV?$allocator@D@_STL@@@1@0@Z 004b4290 f i stlport_vc6_static:dll_main.obj
 0001:000b32c0       ??0?$basic_string@DV?$char_traits@D@_STL@@V?$allocator@D@2@@_STL@@QAE@PAD0@Z 004b42c0 f i stlport_vc6_static:dll_main.obj
 0001:000b3520       ?__uninitialized_copy@_STL@@YAPAPAXPAPAX00ABU__false_type@1@@Z 004b4520 f i stlport_vc6_static:dll_main.obj
 0001:000b35c0       ?__uninitialized_fill_n@_STL@@YAPAPAXPAPAXIABQAXABU__false_type@1@@Z 004b45c0 f i stlport_vc6_static:dll_main.obj
 0001:000b3650       ?fill_n@_STL@@YAPAPAXPAPAXIABQAX@Z 004b4650 f i stlport_vc6_static:dll_main.obj
 0001:000b3680       ?swap@_STL@@YAXAAV?$_STLP_alloc_proxy@PAPAXPAXV?$allocator@PAX@_STL@@@1@0@Z 004b4680 f i stlport_vc6_static:dll_main.obj
 0001:000b36b0       ??0?$_STLP_alloc_proxy@PADDV?$allocator@D@_STL@@@_STL@@QAE@ABV01@@Z 004b46b0 f i stlport_vc6_static:dll_main.obj
 0001:000b36d0       ??0?$_STLP_alloc_proxy@PAPAXPAXV?$allocator@PAX@_STL@@@_STL@@QAE@ABV01@@Z 004b46d0 f i stlport_vc6_static:dll_main.obj
 0001:000b36f0       ??1?$_Node_Alloc_Lock@$0A@$0A@@_STL@@QAE@XZ 004b46f0 f i stlport_vc6_static:dll_main.obj
 0001:000b3720       ?__find_first_of@_STL@@YA?AV?$reverse_iterator@PBDDABDPBDH@1@V21@0PBD1U?$_Eq_traits@V?$char_traits@D@_STL@@@1@@Z 004b4720 f i stlport_vc6_static:dll_main.obj
 0001:000b37b0       ?find_if@_STL@@YA?AV?$reverse_iterator@PBDDABDPBDH@1@V21@0U?$_Neq_char_bound@V?$char_traits@D@_STL@@@1@@Z 004b47b0 f i stlport_vc6_static:dll_main.obj
 0001:000b37f0       ?_M_allocate_and_copy@?$vector@PAXV?$allocator@PAX@_STL@@@_STL@@IAEPAPAXIPBQAX0@Z 004b47f0 f i stlport_vc6_static:dll_main.obj
 0001:000b3ba0       ?_S_nsec_sleep@?$_STLP_mutex_spin@$0A@@_STL@@SAXH@Z 004b4ba0 f i stlport_vc6_static:dll_main.obj
 0001:000b3bd0       ?_M_allocate_and_copy@?$vector@PAXV?$allocator@PAX@_STL@@@_STL@@IAEPAPAXIPAPAX0@Z 004b4bd0 f i stlport_vc6_static:dll_main.obj
 0001:000b3f80       ?iterator_category@_STL@@YA?AUrandom_access_iterator_tag@1@PBD@Z 004b4f80 f i stlport_vc6_static:dll_main.obj
 0001:000b3fa0       ?_M_insert_dispatch@?$basic_string@DV?$char_traits@D@_STL@@V?$allocator@D@2@@_STL@@AAEXPAD00ABU__false_type@2@@Z 004b4fa0 f i stlport_vc6_static:dll_main.obj
 0001:000b3fd0       ?_M_insert_dispatch@?$basic_string@DV?$char_traits@D@_STL@@V?$allocator@D@2@@_STL@@AAEXPADPBD1ABU__false_type@2@@Z 004b4fd0 f i stlport_vc6_static:dll_main.obj
 0001:000b4000       ?_M_replace_dispatch@?$basic_string@DV?$char_traits@D@_STL@@V?$allocator@D@2@@_STL@@AAEAAV12@PAD000ABU__false_type@2@@Z 004b5000 f i stlport_vc6_static:dll_main.obj
 0001:000b4160       ?_M_replace_dispatch@?$basic_string@DV?$char_traits@D@_STL@@V?$allocator@D@2@@_STL@@AAEAAV12@PAD0PBD1ABU__false_type@2@@Z 004b5160 f i stlport_vc6_static:dll_main.obj
 0001:000b42d0       ?_M_initialize_dispatch@?$basic_string@DV?$char_traits@D@_STL@@V?$allocator@D@2@@_STL@@AAEXPAD0ABU__false_type@2@@Z 004b52d0 f i stlport_vc6_static:dll_main.obj
 0001:000b4420       ?__find_if@_STL@@YA?AV?$reverse_iterator@PBDDABDPBDH@1@V21@0U?$_Neq_char_bound@V?$char_traits@D@_STL@@@1@ABUrandom_access_iterator_tag@1@@Z 004b5420 f i stlport_vc6_static:dll_main.obj
 0001:000b4630       ?insert@?$basic_string@DV?$char_traits@D@_STL@@V?$allocator@D@2@@_STL@@AAEXPAD00ABUforward_iterator_tag@2@@Z 004b5630 f i stlport_vc6_static:dll_main.obj
 0001:000b4cb0       ?insert@?$basic_string@DV?$char_traits@D@_STL@@V?$allocator@D@2@@_STL@@AAEXPADPBD1ABUforward_iterator_tag@2@@Z 004b5cb0 f i stlport_vc6_static:dll_main.obj
 0001:000b5380       ?replace@?$basic_string@DV?$char_traits@D@_STL@@V?$allocator@D@2@@_STL@@AAEAAV12@PAD000ABUforward_iterator_tag@2@@Z 004b6380 f i stlport_vc6_static:dll_main.obj
 0001:000b54d0       ?replace@?$basic_string@DV?$char_traits@D@_STL@@V?$allocator@D@2@@_STL@@AAEAAV12@PAD0PBD1ABUforward_iterator_tag@2@@Z 004b64d0 f i stlport_vc6_static:dll_main.obj
 0001:000b5630       ?_M_copy@?$basic_string@DV?$char_traits@D@_STL@@V?$allocator@D@2@@_STL@@AAEXPAD00@Z 004b6630 f i stlport_vc6_static:dll_main.obj
 0001:000b5670       ?distance_type@_STL@@YAPAHPBD@Z 004b6670 f i stlport_vc6_static:dll_main.obj
 0001:000b5677       ??3@YAXPAX@Z               004b6677 f   libcpmt:delop.obj
 0001:000b5682       ?_JumpToContinuation@@YGXPAXPAUEHRegistrationNode@@@Z 004b6682 f   LIBCMT:trnsctrl.obj
 0001:000b56b6       ?_CallMemberFunction0@@YGXPAX0@Z 004b66b6 f   LIBCMT:trnsctrl.obj
 0001:000b56bd       ?_CallMemberFunction1@@YGXPAX00@Z 004b66bd f   LIBCMT:trnsctrl.obj
 0001:000b56c4       ?_CallMemberFunction2@@YGXPAX00H@Z 004b66c4 f   LIBCMT:trnsctrl.obj
 0001:000b56cb       ?_UnwindNestedFrames@@YGXPAUEHRegistrationNode@@PAUEHExceptionRecord@@@Z 004b66cb f   LIBCMT:trnsctrl.obj
 0001:000b571a       ___CxxFrameHandler         004b671a f   LIBCMT:trnsctrl.obj
 0001:000b5750       ___CxxLongjmpUnwind@4      004b6750 f   LIBCMT:trnsctrl.obj
 0001:000b576a       ?_CallCatchBlock2@@YAPAXPAUEHRegistrationNode@@PBU_s_FuncInfo@@PAXHK@Z 004b676a f   LIBCMT:trnsctrl.obj
 0001:000b57e3       ?_CallSETranslator@@YAHPAUEHExceptionRecord@@PAUEHRegistrationNode@@PAX2PBU_s_FuncInfo@@H1@Z 004b67e3 f   LIBCMT:trnsctrl.obj
 0001:000b590e       ?_GetRangeOfTrysToCheck@@YAPBU_s_TryBlockMapEntry@@PBU_s_FuncInfo@@HHPAI1@Z 004b690e f   LIBCMT:trnsctrl.obj
 0001:000b598c       __global_unwind2           004b698c f   LIBCMT:exsup.obj
 0001:000b59ce       __local_unwind2            004b69ce f   LIBCMT:exsup.obj
 0001:000b5a26       __NLG_Return2              004b6a26 f   LIBCMT:exsup.obj
 0001:000b5a36       __abnormal_termination     004b6a36 f   LIBCMT:exsup.obj
 0001:000b5a59       __NLG_Notify1              004b6a59 f   LIBCMT:exsup.obj
 0001:000b5a62       __NLG_Notify               004b6a62 f   LIBCMT:exsup.obj
 0001:000b5a75       __NLG_Dispatch             004b6a75 f   LIBCMT:exsup.obj
 0001:000b5a7a       __mbscmp                   004b6a7a f   LIBCMT:mbscmp.obj
 0001:000b5b30       __alloca_probe             004b6b30 f   LIBCMT:chkstk.obj
 0001:000b5b30       __chkstk                   004b6b30 f   LIBCMT:chkstk.obj
 0001:000b5b5f       _atol                      004b6b5f f   LIBCMT:atox.obj
 0001:000b5bea       _atoi                      004b6bea f   LIBCMT:atox.obj
 0001:000b5bf5       __atoi64                   004b6bf5 f   LIBCMT:atox.obj
 0001:000b5caf       __itoa                     004b6caf f   LIBCMT:xtoa.obj
 0001:000b5caf       _itoa                      004b6caf f   LIBCMT:xtoa.obj
 0001:000b5d38       __ltoa                     004b6d38 f   LIBCMT:xtoa.obj
 0001:000b5d62       __ultoa                    004b6d62 f   LIBCMT:xtoa.obj
 0001:000b5d7d       __i64toa                   004b6d7d f   LIBCMT:xtoa.obj
 0001:000b5e34       __ui64toa                  004b6e34 f   LIBCMT:xtoa.obj
 0001:000b5e4f       ??2@YAPAXI@Z               004b6e4f f   LIBCMT:new.obj
 0001:000b5e5d       __CxxThrowException@8      004b6e5d f   LIBCMT:throw.obj
 0001:000b5ea0       _memmove                   004b6ea0 f   LIBCMT:memmove.obj
 0001:000b61d5       _sprintf                   004b71d5 f   LIBCMT:sprintf.obj
 0001:000b6227       __onexit                   004b7227 f   LIBCMT:onexit.obj
 0001:000b62a5       _atexit                    004b72a5 f   LIBCMT:onexit.obj
 0001:000b62b7       ___onexitinit              004b72b7 f   LIBCMT:onexit.obj
 0001:000b62f0       _strncpy                   004b72f0 f   LIBCMT:strncpy.obj
 0001:000b63ee       __fpmath                   004b73ee f   LIBCMT:fpinit.obj
 0001:000b6405       __fpclear                  004b7405 f   LIBCMT:fpinit.obj
 0001:000b6406       __cfltcvt_init             004b7406 f   LIBCMT:fpinit.obj
 0001:000b643e       ___setfflag                004b743e f   LIBCMT:fpinit.obj
 0001:000b6450       __ftol                     004b7450 f   LIBCMT:ftol.obj
 0001:000b6477       _free                      004b7477 f   LIBCMT:free.obj
 0001:000b6560       _malloc                    004b7560 f   LIBCMT:malloc.obj
 0001:000b6572       __nh_malloc                004b7572 f   LIBCMT:malloc.obj
 0001:000b659e       __heap_alloc               004b759e f   LIBCMT:malloc.obj
 0001:000b669a       __mbsrchr                  004b769a f   LIBCMT:mbsrchr.obj
 0001:000b670c       __mbsicmp                  004b770c f   LIBCMT:mbsicmp.obj
 0001:000b68a1       __purecall                 004b78a1 f   LIBCMT:purevirt.obj
 0001:000b68aa       __beginthreadex            004b78aa f   LIBCMT:threadex.obj
 0001:000b69db       __endthreadex              004b79db f   LIBCMT:threadex.obj
 0001:000b6a0d       ??1type_info@@UAE@XZ       004b7a0d f   LIBCMT:typinfo.obj
 0001:000b6a36       ??_Etype_info@@UAEPAXI@Z   004b7a36 f i LIBCMT:typinfo.obj
 0001:000b6a36       ??_Gtype_info@@UAEPAXI@Z   004b7a36 f i LIBCMT:typinfo.obj
 0001:000b6a52       ??8type_info@@QBEHABV0@@Z  004b7a52 f   LIBCMT:typinfo.obj
 0001:000b6a6d       ??9type_info@@QBEHABV0@@Z  004b7a6d f   LIBCMT:typinfo.obj
 0001:000b6a89       ?before@type_info@@QBEHABV1@@Z 004b7a89 f   LIBCMT:typinfo.obj
 0001:000b6aa8       ?raw_name@type_info@@QBEPBDXZ 004b7aa8 f   LIBCMT:typinfo.obj
 0001:000b6aac       ??0type_info@@AAE@ABV0@@Z  004b7aac f   LIBCMT:typinfo.obj
 0001:000b6ab7       ??4type_info@@AAEAAV0@ABV0@@Z 004b7ab7 f   LIBCMT:typinfo.obj
 0001:000b6abc       __msize                    004b7abc f   LIBCMT:msize.obj
 0001:000b6bc0       _strchr                    004b7bc0 f   LIBCMT:strchr.obj
 0001:000b6bc6       ___from_strstr_to_strchr   004b7bc6 f   LIBCMT:strchr.obj
 0001:000b6c7c       _vsprintf                  004b7c7c f   LIBCMT:vsprintf.obj
 0001:000b6ccd       _localtime                 004b7ccd f   LIBCMT:localtim.obj
 0001:000b6e2d       _time                      004b7e2d f   LIBCMT:time.obj
 0001:000b6f09       _WinMainCRTStartup         004b7f09 f   LIBCMT:wincrt0.obj
 0001:000b7011       __amsg_exit                004b8011 f   LIBCMT:wincrt0.obj
 0001:000b705a       _strerror                  004b805a f   LIBCMT:strerror.obj
 0001:000b70aa       _realloc                   004b80aa f   LIBCMT:realloc.obj
 0001:000b73d9       _srand                     004b83d9 f   LIBCMT:rand.obj
 0001:000b73e6       _rand                      004b83e6 f   LIBCMT:rand.obj
 0001:000b7408       _fclose                    004b8408 f   LIBCMT:fclose.obj
 0001:000b7439       __fclose_lk                004b8439 f   LIBCMT:fclose.obj
 0001:000b7485       __isctype                  004b8485 f   LIBCMT:isctype.obj
 0001:000b74fa       _fgets                     004b84fa f   LIBCMT:fgets.obj
 0001:000b755c       __fsopen                   004b855c f   LIBCMT:fopen.obj
 0001:000b758d       _fopen                     004b858d f   LIBCMT:fopen.obj
 0001:000b75a0       _getenv                    004b85a0 f   LIBCMT:getenv.obj
 0001:000b75c1       __getenv_lk                004b85c1 f   LIBCMT:getenv.obj
 0001:000b763e       _sscanf                    004b863e f   LIBCMT:sscanf.obj
 0001:000b7672       __snprintf                 004b8672 f   LIBCMT:snprintf.obj
 0001:000b76c3       _abort                     004b86c3 f   LIBCMT:abort.obj
 0001:000b76da       _fflush                    004b86da f   LIBCMT:fflush.obj
 0001:000b7709       __fflush_lk                004b8709 f   LIBCMT:fflush.obj
 0001:000b7737       __flush                    004b8737 f   LIBCMT:fflush.obj
 0001:000b7793       __flushall                 004b8793 f   LIBCMT:fflush.obj
 0001:000b7840       _fprintf                   004b8840 f   LIBCMT:fprintf.obj
 0001:000b787c       ___initstdio               004b887c f   LIBCMT:_file.obj
 0001:000b7924       ___endstdio                004b8924 f   LIBCMT:_file.obj
 0001:000b7938       __lock_file                004b8938 f   LIBCMT:_file.obj
 0001:000b7967       __lock_file2               004b8967 f   LIBCMT:_file.obj
 0001:000b798a       __unlock_file              004b898a f   LIBCMT:_file.obj
 0001:000b79b9       __unlock_file2             004b89b9 f   LIBCMT:_file.obj
 0001:000b79dc       __vsnprintf                004b89dc f   LIBCMT:vsnprint.obj
 0001:000b7a2c       _vfprintf                  004b8a2c f   LIBCMT:vfprintf.obj
 0001:000b7a67       _qsort                     004b8a67 f   LIBCMT:qsort.obj
 0001:000b7c35       __dosmaperr                004b8c35 f   LIBCMT:dosmap.obj
 0001:000b7ca8       __errno                    004b8ca8 f   LIBCMT:dosmap.obj
 0001:000b7cb1       ___doserrno                004b8cb1 f   LIBCMT:dosmap.obj
 0001:000b7cba       _printf                    004b8cba f   LIBCMT:printf.obj
 0001:000b7cfb       __ftime                    004b8cfb f   LIBCMT:ftime.obj
 0001:000b7de0       __Getdays                  004b8de0 f   LIBCMT:strftime.obj
 0001:000b7e6f       __Getmonths                004b8e6f f   LIBCMT:strftime.obj
 0001:000b7f04       __Gettnames                004b8f04 f   LIBCMT:strftime.obj
 0001:000b8136       _strftime                  004b9136 f   LIBCMT:strftime.obj
 0001:000b8151       __Strftime                 004b9151 f   LIBCMT:strftime.obj
 0001:000b8a30       _strncmp                   004b9a30 f   LIBCMT:strncmp.obj
 0001:000b8a68       __getcwd                   004b9a68 f   LIBCMT:getcwd.obj
 0001:000b8a68       _getcwd                    004b9a68 f   LIBCMT:getcwd.obj
 0001:000b8a8f       __getdcwd                  004b9a8f f   LIBCMT:getcwd.obj
 0001:000b8ab8       __getdcwd_lk               004b9ab8 f   LIBCMT:getcwd.obj
 0001:000b8b8d       __validdrive               004b9b8d f   LIBCMT:getcwd.obj
 0001:000b8bc4       _ctime                     004b9bc4 f   LIBCMT:ctime.obj
 0001:000b8be0       __aullshr                  004b9be0 f   LIBCMT:ullshr.obj
 0001:000b8c00       __allmul                   004b9c00 f   LIBCMT:llmul.obj
 0001:000b8c34       _fwrite                    004b9c34 f   LIBCMT:fwrite.obj
 0001:000b8c63       __fwrite_lk                004b9c63 f   LIBCMT:fwrite.obj
 0001:000b8d6d       _fgetc                     004b9d6d f   LIBCMT:fgetc.obj
 0001:000b8d9e       _getc                      004b9d9e f   LIBCMT:fgetc.obj
 0001:000b8db0       _strrchr                   004b9db0 f   LIBCMT:strrchr.obj
 0001:000b8dd7       __findfirst                004b9dd7 f   LIBCMT:findfile.obj
 0001:000b8ea4       __findnext                 004b9ea4 f   LIBCMT:findfile.obj
 0001:000b8f6c       __findclose                004b9f6c f   LIBCMT:findfile.obj
 0001:000b8f8c       ___timet_from_ft           004b9f8c f   LIBCMT:findfile.obj
 0001:000b8ff0       ??0exception@@QAE@XZ       004b9ff0 f   LIBCMT:stdexcpt.obj
 0001:000b9001       ??_Gexception@@UAEPAXI@Z   004ba001 f i LIBCMT:stdexcpt.obj
 0001:000b9001       ??_Eexception@@UAEPAXI@Z   004ba001 f i LIBCMT:stdexcpt.obj
 0001:000b901d       ??0exception@@QAE@ABQBD@Z  004ba01d f   LIBCMT:stdexcpt.obj
 0001:000b905a       ??0exception@@QAE@ABV0@@Z  004ba05a f   LIBCMT:stdexcpt.obj
 0001:000b90a4       ??4exception@@QAEAAV0@ABV0@@Z 004ba0a4 f   LIBCMT:stdexcpt.obj
 0001:000b90c3       ??1exception@@UAE@XZ       004ba0c3 f   LIBCMT:stdexcpt.obj
 0001:000b90d9       ?what@exception@@UBEPBDXZ  004ba0d9 f   LIBCMT:stdexcpt.obj
 0001:000b90e6       ___InternalCxxFrameHandler 004ba0e6 f   LIBCMT:frame.obj
 0001:000b943b       ___FrameUnwindToState      004ba43b f   LIBCMT:frame.obj
 0001:000b9873       ?_DestructExceptionObject@@YAXPAUEHExceptionRecord@@E@Z 004ba873 f   LIBCMT:frame.obj
 0001:000b9900       __CallSettingFrame@12      004ba900 f   LIBCMT:lowhelpr.obj
 0001:000b9927       __NLG_Return               004ba927 f   LIBCMT:lowhelpr.obj
 0001:000b994c       __mtinit                   004ba94c f   LIBCMT:tidtable.obj
 0001:000b99a0       __mtterm                   004ba9a0 f   LIBCMT:tidtable.obj
 0001:000b99be       __initptd                  004ba9be f   LIBCMT:tidtable.obj
 0001:000b99d1       __getptd                   004ba9d1 f   LIBCMT:tidtable.obj
 0001:000b9a38       __freeptd                  004baa38 f   LIBCMT:tidtable.obj
 0001:000b9ad8       ___threadid                004baad8 f   LIBCMT:tidtable.obj
 0001:000b9ade       ___threadhandle            004baade f   LIBCMT:tidtable.obj
 0001:000b9ae4       ?terminate@@YAXXZ          004baae4 f   LIBCMT:hooks.obj
 0001:000b9b45       ?unexpected@@YAXXZ         004bab45 f   LIBCMT:hooks.obj
 0001:000b9b5d       ?_inconsistency@@YAXXZ     004bab5d f   LIBCMT:hooks.obj
 0001:000b9bb3       __mtinitlocks              004babb3 f   LIBCMT:mlock.obj
 0001:000b9bdc       __mtdeletelocks            004babdc f   LIBCMT:mlock.obj
 0001:000b9c48       __lock                     004bac48 f   LIBCMT:mlock.obj
 0001:000b9ca9       __unlock                   004baca9 f   LIBCMT:mlock.obj
 0001:000b9cbe       __lockerr_exit             004bacbe f   LIBCMT:mlock.obj
 0001:000b9cd6       __setmbcp                  004bacd6 f   LIBCMT:mbctype.obj
 0001:000ba0ae       __getmbcp                  004bb0ae f   LIBCMT:mbctype.obj
 0001:000ba0be       ___initmbctable            004bb0be f   LIBCMT:mbctype.obj
 0001:000ba0e0       _strcmp                    004bb0e0 f   LIBCMT:strcmp.obj
 0001:000ba170       __aulldiv                  004bb170 f   LIBCMT:ulldiv.obj
 0001:000ba1e0       __aullrem                  004bb1e0 f   LIBCMT:ullrem.obj
 0001:000ba255       ?__CxxUnhandledExceptionFilter@@YGJPAU_EXCEPTION_POINTERS@@@Z 004bb255 f   LIBCMT:unhandld.obj
 0001:000ba29b       ?__CxxSetUnhandledExceptionFilter@@YAXXZ 004bb29b f   LIBCMT:unhandld.obj
 0001:000ba2ac       ?__CxxRestoreUnhandledExceptionFilter@@YAXXZ 004bb2ac f   LIBCMT:unhandld.obj
 0001:000ba2b9       __flsbuf                   004bb2b9 f   LIBCMT:_flsbuf.obj
 0001:000ba3d1       __output                   004bb3d1 f   LIBCMT:output.obj
 0001:000bac38       __cinit                    004bbc38 f   LIBCMT:crt0dat.obj
 0001:000bac65       _exit                      004bbc65 f   LIBCMT:crt0dat.obj
 0001:000bac76       __exit                     004bbc76 f   LIBCMT:crt0dat.obj
 0001:000bac87       __cexit                    004bbc87 f   LIBCMT:crt0dat.obj
 0001:000bac96       __c_exit                   004bbc96 f   LIBCMT:crt0dat.obj
 0001:000bad4a       __lockexit                 004bbd4a f   LIBCMT:crt0dat.obj
 0001:000bad53       __unlockexit               004bbd53 f   LIBCMT:crt0dat.obj
 0001:000bad76       __setdefaultprecision      004bbd76 f   LIBCMT:fp8.obj
 0001:000bad88       __ms_p5_test_fdiv          004bbd88 f   LIBCMT:testfdiv.obj
 0001:000badc6       __ms_p5_mp_test_fdiv       004bbdc6 f   LIBCMT:testfdiv.obj
 0001:000badef       __forcdecpt                004bbdef f   LIBCMT:cvt.obj
 0001:000bae49       __cropzeros                004bbe49 f   LIBCMT:cvt.obj
 0001:000bae97       __positive                 004bbe97 f   LIBCMT:cvt.obj
 0001:000baeaf       __fassign                  004bbeaf f   LIBCMT:cvt.obj
 0001:000baeed       __cftoe                    004bbeed f   LIBCMT:cvt.obj
 0001:000bb010       __cftof                    004bc010 f   LIBCMT:cvt.obj
 0001:000bb10c       __cftog                    004bc10c f   LIBCMT:cvt.obj
 0001:000bb19f       __cfltcvt                  004bc19f f   LIBCMT:cvt.obj
 0001:000bb215       __GetLinkerVersion         004bc215 f   LIBCMT:heapinit.obj
 0001:000bb242       ___heap_select             004bc242 f   LIBCMT:heapinit.obj
 0001:000bb38a       __heap_init                004bc38a f   LIBCMT:heapinit.obj
 0001:000bb3e7       __heap_term                004bc3e7 f   LIBCMT:heapinit.obj
 0001:000bb48f       __get_sbh_threshold        004bc48f f   LIBCMT:sbheap.obj
 0001:000bb4ae       __set_sbh_threshold        004bc4ae f   LIBCMT:sbheap.obj
 0001:000bb561       ___sbh_heap_init           004bc561 f   LIBCMT:sbheap.obj
 0001:000bb5a9       ___sbh_find_block          004bc5a9 f   LIBCMT:sbheap.obj
 0001:000bb5d4       ___sbh_free_block          004bc5d4 f   LIBCMT:sbheap.obj
 0001:000bb8fd       ___sbh_alloc_block         004bc8fd f   LIBCMT:sbheap.obj
 0001:000bbc06       ___sbh_alloc_new_region    004bcc06 f   LIBCMT:sbheap.obj
 0001:000bbcb7       ___sbh_alloc_new_group     004bccb7 f   LIBCMT:sbheap.obj
 0001:000bbdb2       ___sbh_resize_block        004bcdb2 f   LIBCMT:sbheap.obj
 0001:000bc0a8       ___sbh_heapmin             004bd0a8 f   LIBCMT:sbheap.obj
 0001:000bc179       ___sbh_heap_check          004bd179 f   LIBCMT:sbheap.obj
 0001:000bc4a8       __get_old_sbh_threshold    004bd4a8 f   LIBCMT:sbheap.obj
 0001:000bc4ae       __set_old_sbh_threshold    004bd4ae f   LIBCMT:sbheap.obj
 0001:000bc4ca       ___old_sbh_new_region      004bd4ca f   LIBCMT:sbheap.obj
 0001:000bc60e       ___old_sbh_release_region  004bd60e f   LIBCMT:sbheap.obj
 0001:000bc664       ___old_sbh_decommit_pages  004bd664 f   LIBCMT:sbheap.obj
 0001:000bc726       ___old_sbh_find_block      004bd726 f   LIBCMT:sbheap.obj
 0001:000bc77d       ___old_sbh_free_block      004bd77d f   LIBCMT:sbheap.obj
 0001:000bc7c2       ___old_sbh_alloc_block     004bd7c2 f   LIBCMT:sbheap.obj
 0001:000bc9ca       ___old_sbh_alloc_block_from_page 004bd9ca f   LIBCMT:sbheap.obj
 0001:000bcaee       ___old_sbh_resize_block    004bdaee f   LIBCMT:sbheap.obj
 0001:000bcb97       ___old_sbh_heap_check      004bdb97 f   LIBCMT:sbheap.obj
 0001:000bcd00       __except_handler3          004bdd00 f   LIBCMT:exsup3.obj
 0001:000bcdbd       __seh_longjmp_unwind@4     004bddbd f   LIBCMT:exsup3.obj
 0001:000bcdd8       ?_set_new_handler@@YAP6AHI@ZP6AHI@Z@Z 004bddd8 f   LIBCMT:handler.obj
 0001:000bcdfc       ?_query_new_handler@@YAP6AHI@ZXZ 004bddfc f   LIBCMT:handler.obj
 0001:000bce02       __callnewh                 004bde02 f   LIBCMT:handler.obj
 0001:000bce1d       ___crtLCMapStringA         004bde1d f   LIBCMT:a_map.obj
 0001:000bd070       __strcmpi                  004be070 f   LIBCMT:stricmp.obj
 0001:000bd070       __stricmp                  004be070 f   LIBCMT:stricmp.obj
 0001:000bd140       _calloc                    004be140 f   LIBCMT:calloc.obj
 0001:000bd27d       __XcptFilter               004be27d f   LIBCMT:winxfltr.obj
 0001:000bd3f5       ___tzset                   004be3f5 f   LIBCMT:tzset.obj
 0001:000bd423       __tzset                    004be423 f   LIBCMT:tzset.obj
 0001:000bd6c0       __isindst                  004be6c0 f   LIBCMT:tzset.obj
 0001:000bd9cd       _gmtime                    004be9cd f   LIBCMT:gmtime.obj
 0001:000bdad7       ___loctotime_t             004bead7 f   LIBCMT:dtoxtime.obj
 0001:000bdb99       __wincmdln                 004beb99 f   LIBCMT:wincmdln.obj
 0001:000bdbf1       __setenvp                  004bebf1 f   LIBCMT:stdenvp.obj
 0001:000bdcaa       __setargv                  004becaa f   LIBCMT:stdargv.obj
 0001:000bdef7       ___crtGetEnvironmentStringsA 004beef7 f   LIBCMT:a_env.obj
 0001:000be029       __ioinit                   004bf029 f   LIBCMT:ioinit.obj
 0001:000be1e5       __ioterm                   004bf1e5 f   LIBCMT:ioinit.obj
 0001:000be239       __FF_MSGBANNER             004bf239 f   LIBCMT:crt0msg.obj
 0001:000be272       __NMSG_WRITE               004bf272 f   LIBCMT:crt0msg.obj
 0001:000be3c5       __GET_RTERRMSG             004bf3c5 f   LIBCMT:crt0msg.obj
 0001:000be400       _strcpy                    004bf400 f   LIBCMT:strcat.obj
 0001:000be410       _strcat                    004bf410 f   LIBCMT:strcat.obj
 0001:000be4f0       _memcpy                    004bf4f0 f   LIBCMT:memcpy.obj
 0001:000be825       _close                     004bf825 f   LIBCMT:close.obj
 0001:000be825       __close                    004bf825 f   LIBCMT:close.obj
 0001:000be882       __close_lk                 004bf882 f   LIBCMT:close.obj
 0001:000be905       __freebuf                  004bf905 f   LIBCMT:_freebuf.obj
 0001:000be930       ___crtGetStringTypeA       004bf930 f   LIBCMT:a_str.obj
 0001:000bea79       __filbuf                   004bfa79 f   LIBCMT:_filbuf.obj
 0001:000beb55       __openfile                 004bfb55 f   LIBCMT:_open.obj
 0001:000becc5       __getstream                004bfcc5 f   LIBCMT:stream.obj
 0001:000bed8d       __mbsnbicoll               004bfd8d f   LIBCMT:mbsnbico.obj
 0001:000bedd0       _strlen                    004bfdd0 f   LIBCMT:strlen.obj
 0001:000bee4b       ___wtomb_environ           004bfe4b f   LIBCMT:wtombenv.obj
 0001:000beeb9       __input                    004bfeb9 f   LIBCMT:input.obj
 0001:000bf96a       _signal                    004c096a f   LIBCMT:winsig.obj
 0001:000bfb4e       _raise                     004c0b4e f   LIBCMT:winsig.obj
 0001:000bfd0d       ___fpecode                 004c0d0d f   LIBCMT:winsig.obj
 0001:000bfd16       ___pxcptinfoptrs           004c0d16 f   LIBCMT:winsig.obj
 0001:000bfd1f       __commit                   004c0d1f f   LIBCMT:commit.obj
 0001:000bfdb2       __write                    004c0db2 f   LIBCMT:write.obj
 0001:000bfe17       __write_lk                 004c0e17 f   LIBCMT:write.obj
 0001:000bffa2       __stbuf                    004c0fa2 f   LIBCMT:_sftbuf.obj
 0001:000c002f       __ftbuf                    004c102f f   LIBCMT:_sftbuf.obj
 0001:000c0059       __fcloseall                004c1059 f   LIBCMT:closeall.obj
 0001:000c00da       _setlocale                 004c10da f   LIBCMT:setlocal.obj
 0001:000c04f4       __expandlocale             004c14f4 f   LIBCMT:setlocal.obj
 0001:000c060c       ___init_dummy              004c160c f   LIBCMT:setlocal.obj
 0001:000c060f       __strcats                  004c160f f   LIBCMT:setlocal.obj
 0001:000c0634       ___lc_strtolc              004c1634 f   LIBCMT:setlocal.obj
 0001:000c0700       ___lc_lctostr              004c1700 f   LIBCMT:setlocal.obj
 0001:000c0753       _asctime                   004c1753 f   LIBCMT:asctime.obj
 0001:000c0845       ?_ValidateRead@@YAHPBXI@Z  004c1845 f   LIBCMT:validate.obj
 0001:000c0861       ?_ValidateWrite@@YAHPAXI@Z 004c1861 f   LIBCMT:validate.obj
 0001:000c087d       ?_ValidateExecute@@YAHP6GHXZ@Z 004c187d f   LIBCMT:validate.obj
 0001:000c0895       __lseek                    004c1895 f   LIBCMT:lseek.obj
 0001:000c08fa       __lseek_lk                 004c18fa f   LIBCMT:lseek.obj
 0001:000c096d       __getbuf                   004c196d f   LIBCMT:_getbuf.obj
 0001:000c09b1       __isatty                   004c19b1 f   LIBCMT:isatty.obj
 0001:000c09da       _wctomb                    004c19da f   LIBCMT:wctomb.obj
 0001:000c0a33       __wctomb_lk                004c1a33 f   LIBCMT:wctomb.obj
 0001:000c0a9c       __statusfp                 004c1a9c f   LIBCMT:ieee87.obj
 0001:000c0aaf       __clearfp                  004c1aaf f   LIBCMT:ieee87.obj
 0001:000c0ac3       __control87                004c1ac3 f   LIBCMT:ieee87.obj
 0001:000c0af8       __controlfp                004c1af8 f   LIBCMT:ieee87.obj
 0001:000c0b0e       __fpreset                  004c1b0e f   LIBCMT:ieee87.obj
 0001:000c0c89       __tolower                  004c1c89 f   LIBCMT:tolower.obj
 0001:000c0c91       _tolower                   004c1c91 f   LIBCMT:tolower.obj
 0001:000c0d00       __tolower_lk               004c1d00 f   LIBCMT:tolower.obj
 0001:000c0dcb       __ZeroTail                 004c1dcb f   LIBCMT:intrncvt.obj
 0001:000c0e14       __IncMan                   004c1e14 f   LIBCMT:intrncvt.obj
 0001:000c0e6a       __RoundMan                 004c1e6a f   LIBCMT:intrncvt.obj
 0001:000c0ef6       __CopyMan                  004c1ef6 f   LIBCMT:intrncvt.obj
 0001:000c0f11       __FillZeroMan              004c1f11 f   LIBCMT:intrncvt.obj
 0001:000c0f1d       __IsZeroMan                004c1f1d f   LIBCMT:intrncvt.obj
 0001:000c0f38       __ShrMan                   004c1f38 f   LIBCMT:intrncvt.obj
 0001:000c0fc5       __ld12cvt                  004c1fc5 f   LIBCMT:intrncvt.obj
 0001:000c1131       __ld12tod                  004c2131 f   LIBCMT:intrncvt.obj
 0001:000c1147       __ld12tof                  004c2147 f   LIBCMT:intrncvt.obj
 0001:000c115d       __ld12told                 004c215d f   LIBCMT:intrncvt.obj
 0001:000c11d7       __atodbl                   004c21d7 f   LIBCMT:intrncvt.obj
 0001:000c1204       __atoldbl                  004c2204 f   LIBCMT:intrncvt.obj
 0001:000c1232       __atoflt                   004c2232 f   LIBCMT:intrncvt.obj
 0001:000c125f       __fptostr                  004c225f f   LIBCMT:_fptostr.obj
 0001:000c12d6       __fltout2                  004c22d6 f   LIBCMT:cfout.obj
 0001:000c1332       ___dtold                   004c2332 f   LIBCMT:cfout.obj
 0001:000c13f0       _memset                    004c23f0 f   LIBCMT:memset.obj
 0001:000c1448       __fptrap                   004c2448 f   LIBCMT:crt0fp.obj
 0001:000c1451       _strtol                    004c2451 f   LIBCMT:strtol.obj
 0001:000c166d       _strtoul                   004c266d f   LIBCMT:strtol.obj
 0001:000c1690       _strstr                    004c2690 f   LIBCMT:strstr.obj
 0001:000c1710       __ismbbkalnum              004c2710 f   LIBCMT:ismbbyte.obj
 0001:000c1721       __ismbbkprint              004c2721 f   LIBCMT:ismbbyte.obj
 0001:000c1732       __ismbbkpunct              004c2732 f   LIBCMT:ismbbyte.obj
 0001:000c1743       __ismbbalnum               004c2743 f   LIBCMT:ismbbyte.obj
 0001:000c1757       __ismbbalpha               004c2757 f   LIBCMT:ismbbyte.obj
 0001:000c176b       __ismbbgraph               004c276b f   LIBCMT:ismbbyte.obj
 0001:000c177f       __ismbbprint               004c277f f   LIBCMT:ismbbyte.obj
 0001:000c1793       __ismbbpunct               004c2793 f   LIBCMT:ismbbyte.obj
 0001:000c17a4       __ismbblead                004c27a4 f   LIBCMT:ismbbyte.obj
 0001:000c17b5       __ismbbtrail               004c27b5 f   LIBCMT:ismbbyte.obj
 0001:000c17c6       __ismbbkana                004c27c6 f   LIBCMT:ismbbyte.obj
 0001:000c181e       ___crtMessageBoxA          004c281e f   LIBCMT:crtmbox.obj
 0001:000c18a7       __alloc_osfhnd             004c28a7 f   LIBCMT:osfinfo.obj
 0001:000c19ca       __set_osfhnd               004c29ca f   LIBCMT:osfinfo.obj
 0001:000c1a46       __free_osfhnd              004c2a46 f   LIBCMT:osfinfo.obj
 0001:000c1ac5       __get_osfhandle            004c2ac5 f   LIBCMT:osfinfo.obj
 0001:000c1b07       __open_osfhandle           004c2b07 f   LIBCMT:osfinfo.obj
 0001:000c1bae       __lock_fhandle             004c2bae f   LIBCMT:osfinfo.obj
 0001:000c1c0d       __unlock_fhandle           004c2c0d f   LIBCMT:osfinfo.obj
 0001:000c1c2f       __read                     004c2c2f f   LIBCMT:read.obj
 0001:000c1c94       __read_lk                  004c2c94 f   LIBCMT:read.obj
 0001:000c1e6d       __open                     004c2e6d f   LIBCMT:open.obj
 0001:000c1e6d       _open                      004c2e6d f   LIBCMT:open.obj
 0001:000c1e84       __sopen                    004c2e84 f   LIBCMT:open.obj
 0001:000c2153       ___crtCompareStringA       004c3153 f   LIBCMT:a_cmp.obj
 0001:000c23fb       ___crtsetenv               004c33fb f   LIBCMT:setenv.obj
 0001:000c2641       _mbtowc                    004c3641 f   LIBCMT:mbtowc.obj
 0001:000c269e       __mbtowc_lk                004c369e f   LIBCMT:mbtowc.obj
 0001:000c2767       _isalpha                   004c3767 f   LIBCMT:_ctype.obj
 0001:000c2795       _isupper                   004c3795 f   LIBCMT:_ctype.obj
 0001:000c27bd       _islower                   004c37bd f   LIBCMT:_ctype.obj
 0001:000c27e5       _isdigit                   004c37e5 f   LIBCMT:_ctype.obj
 0001:000c280d       _isxdigit                  004c380d f   LIBCMT:_ctype.obj
 0001:000c283a       _isspace                   004c383a f   LIBCMT:_ctype.obj
 0001:000c2862       _ispunct                   004c3862 f   LIBCMT:_ctype.obj
 0001:000c288a       _isalnum                   004c388a f   LIBCMT:_ctype.obj
 0001:000c28b8       _isprint                   004c38b8 f   LIBCMT:_ctype.obj
 0001:000c28e6       _isgraph                   004c38e6 f   LIBCMT:_ctype.obj
 0001:000c2914       _iscntrl                   004c3914 f   LIBCMT:_ctype.obj
 0001:000c293c       ___isascii                 004c393c f   LIBCMT:_ctype.obj
 0001:000c2949       ___toascii                 004c3949 f   LIBCMT:_ctype.obj
 0001:000c2951       ___iscsymf                 004c3951 f   LIBCMT:_ctype.obj
 0001:000c298e       ___iscsym                  004c398e f   LIBCMT:_ctype.obj
 0001:000c29d0       __allshl                   004c39d0 f   LIBCMT:llshl.obj
 0001:000c29ef       _ungetc                    004c39ef f   LIBCMT:ungetc.obj
 0001:000c2a18       __ungetc_lk                004c3a18 f   LIBCMT:ungetc.obj
 0001:000c2a86       ___init_time               004c3a86 f   LIBCMT:inittime.obj
 0001:000c2ff5       ___init_numeric            004c3ff5 f   LIBCMT:initnum.obj
 0001:000c3201       ___init_monetary           004c4201 f   LIBCMT:initmon.obj
 0001:000c3473       ___init_ctype              004c4473 f   LIBCMT:initctyp.obj
 0001:000c36b8       ___init_collate            004c46b8 f   LIBCMT:initcoll.obj
 0001:000c36c0       _strcspn                   004c46c0 f   LIBCMT:strcspn.obj
 0001:000c3700       _strpbrk                   004c4700 f   LIBCMT:strpbrk.obj
 0001:000c373a       ___get_qualified_locale    004c473a f   LIBCMT:getqloc.obj
 0001:000c3fe1       ___addl                    004c4fe1 f   LIBCMT:mantold.obj
 0001:000c4002       ___add_12                  004c5002 f   LIBCMT:mantold.obj
 0001:000c4060       ___shl_12                  004c5060 f   LIBCMT:mantold.obj
 0001:000c408e       ___shr_12                  004c508e f   LIBCMT:mantold.obj
 0001:000c40bb       ___mtold12                 004c50bb f   LIBCMT:mantold.obj
 0001:000c4182       ___strgtold12              004c5182 f   LIBCMT:strgtold.obj
 0001:000c4653       ___STRINGTOLD              004c5653 f   LIBCMT:strgtold.obj
 0001:000c468f       _$I10_OUTPUT               004c568f f   LIBCMT:x10fout.obj
 0001:000c4922       __toupper                  004c5922 f   LIBCMT:toupper.obj
 0001:000c492a       _toupper                   004c592a f   LIBCMT:toupper.obj
 0001:000c4999       __toupper_lk               004c5999 f   LIBCMT:toupper.obj
 0001:000c4a65       __chsize                   004c5a65 f   LIBCMT:chsize.obj
 0001:000c4abe       __chsize_lk                004c5abe f   LIBCMT:chsize.obj
 0001:000c4be3       __mbschr                   004c5be3 f   LIBCMT:mbschr.obj
 0001:000c4c7a       __strdup                   004c5c7a f   LIBCMT:strdup.obj
 0001:000c4ca5       ___getlocaleinfo           004c5ca5 f   LIBCMT:inithelp.obj
 0001:000c4ddd       _localeconv                004c5ddd f   LIBCMT:lconv.obj
 0001:000c4de3       ___crtGetStringTypeW       004c5de3 f   LIBCMT:w_str.obj
 0001:000c4fb0       __strnicmp                 004c5fb0 f   LIBCMT:strnicmp.obj
 0001:000c50b1       ___ld12mul                 004c60b1 f   LIBCMT:tenpow.obj
 0001:000c52d1       ___multtenpow12            004c62d1 f   LIBCMT:tenpow.obj
 0001:000c534d       __setmode                  004c634d f   LIBCMT:setmode.obj
 0001:000c53a6       __setmode_lk               004c63a6 f   LIBCMT:setmode.obj
 0001:000c5407       ___crtGetLocaleInfoW       004c6407 f   LIBCMT:w_loc.obj
 0001:000c551a       ___crtGetLocaleInfoA       004c651a f   LIBCMT:a_loc.obj
 0001:000c5640       _GetLastError@0            004c6640 f   kernel32:KERNEL32.dll
 0001:000c5646       _InterlockedDecrement@4    004c6646 f   kernel32:KERNEL32.dll
 0001:000c564c       _InterlockedIncrement@4    004c664c f   kernel32:KERNEL32.dll
 0001:000c5652       _InterlockedExchange@8     004c6652 f   kernel32:KERNEL32.dll
 0001:000c5658       _PulseEvent@4              004c6658 f   kernel32:KERNEL32.dll
 0001:000c565e       _GetTempPathA@8            004c665e f   kernel32:KERNEL32.dll
 0001:000c5664       _GetFileInformationByHandle@8 004c6664 f   kernel32:KERNEL32.dll
 0001:000c566a       _FlushFileBuffers@4        004c666a f   kernel32:KERNEL32.dll
 0001:000c5670       _SetEndOfFile@4            004c6670 f   kernel32:KERNEL32.dll
 0001:000c5676       _SetFilePointer@16         004c6676 f   kernel32:KERNEL32.dll
 0001:000c567c       _GetDiskFreeSpaceA@20      004c667c f   kernel32:KERNEL32.dll
 0001:000c5682       _ReadFile@20               004c6682 f   kernel32:KERNEL32.dll
 0001:000c5688       _GetSystemInfo@4           004c6688 f   kernel32:KERNEL32.dll
 0001:000c568e       _DeleteFileA@4             004c668e f   kernel32:KERNEL32.dll
 0001:000c5694       _MoveFileExA@12            004c6694 f   kernel32:KERNEL32.dll
 0001:000c569a       _MoveFileA@8               004c669a f   kernel32:KERNEL32.dll
 0001:000c56a0       _UnmapViewOfFile@4         004c66a0 f   kernel32:KERNEL32.dll
 0001:000c56a6       _MapViewOfFile@20          004c66a6 f   kernel32:KERNEL32.dll
 0001:000c56ac       _CreateFileMappingA@24     004c66ac f   kernel32:KERNEL32.dll
 0001:000c56b2       _OpenFileMappingA@12       004c66b2 f   kernel32:KERNEL32.dll
 0001:000c56b8       _GetSystemTime@4           004c66b8 f   kernel32:KERNEL32.dll
 0001:000c56be       _GetVersion@0              004c66be f   kernel32:KERNEL32.dll
 0001:000c56c4       _OutputDebugStringA@4      004c66c4 f   kernel32:KERNEL32.dll
 0001:000c56ca       _RtlUnwind@16              004c66ca f   kernel32:KERNEL32.dll
 0001:000c56d0       _RaiseException@16         004c66d0 f   kernel32:KERNEL32.dll
 0001:000c56d6       _HeapFree@12               004c66d6 f   kernel32:KERNEL32.dll
 0001:000c56dc       _HeapAlloc@12              004c66dc f   kernel32:KERNEL32.dll
 0001:000c56e2       _CreateThread@24           004c66e2 f   kernel32:KERNEL32.dll
 0001:000c56e8       _GetCurrentThreadId@0      004c66e8 f   kernel32:KERNEL32.dll
 0001:000c56ee       _TlsSetValue@8             004c66ee f   kernel32:KERNEL32.dll
 0001:000c56f4       _TlsGetValue@4             004c66f4 f   kernel32:KERNEL32.dll
 0001:000c56fa       _ExitThread@4              004c66fa f   kernel32:KERNEL32.dll
 0001:000c5700       _HeapSize@12               004c6700 f   kernel32:KERNEL32.dll
 0001:000c5706       _GetTimeZoneInformation@4  004c6706 f   kernel32:KERNEL32.dll
 0001:000c570c       _GetModuleHandleA@4        004c670c f   kernel32:KERNEL32.dll
 0001:000c5712       _GetStartupInfoA@4         004c6712 f   kernel32:KERNEL32.dll
 0001:000c5718       _GetCommandLineA@0         004c6718 f   kernel32:KERNEL32.dll
 0001:000c571e       _ExitProcess@4             004c671e f   kernel32:KERNEL32.dll
 0001:000c5724       _HeapReAlloc@16            004c6724 f   kernel32:KERNEL32.dll
 0001:000c572a       _GetSystemTimeAsFileTime@4 004c672a f   kernel32:KERNEL32.dll
 0001:000c5730       _GetCurrentDirectoryA@8    004c6730 f   kernel32:KERNEL32.dll
 0001:000c5736       _GetFullPathNameA@16       004c6736 f   kernel32:KERNEL32.dll
 0001:000c573c       _GetDriveTypeA@4           004c673c f   kernel32:KERNEL32.dll
 0001:000c5742       _FindFirstFileA@8          004c6742 f   kernel32:KERNEL32.dll
 0001:000c5748       _FindNextFileA@8           004c6748 f   kernel32:KERNEL32.dll
 0001:000c574e       _FindClose@4               004c674e f   kernel32:KERNEL32.dll
 0001:000c5754       _FileTimeToSystemTime@8    004c6754 f   kernel32:KERNEL32.dll
 0001:000c575a       _FileTimeToLocalFileTime@8 004c675a f   kernel32:KERNEL32.dll
 0001:000c5760       _TlsAlloc@0                004c6760 f   kernel32:KERNEL32.dll
 0001:000c5766       _TlsFree@4                 004c6766 f   kernel32:KERNEL32.dll
 0001:000c576c       _SetLastError@4            004c676c f   kernel32:KERNEL32.dll
 0001:000c5772       _GetCurrentThread@0        004c6772 f   kernel32:KERNEL32.dll
 0001:000c5778       _FatalAppExitA@8           004c6778 f   kernel32:KERNEL32.dll
 0001:000c577e       _GetCPInfo@8               004c677e f   kernel32:KERNEL32.dll
 0001:000c5784       _GetACP@0                  004c6784 f   kernel32:KERNEL32.dll
 0001:000c578a       _GetOEMCP@0                004c678a f   kernel32:KERNEL32.dll
 0001:000c5790       _SetUnhandledExceptionFilter@4 004c6790 f   kernel32:KERNEL32.dll
 0001:000c5796       _TerminateProcess@8        004c6796 f   kernel32:KERNEL32.dll
 0001:000c579c       _GetCurrentProcess@0       004c679c f   kernel32:KERNEL32.dll
 0001:000c57a2       _GetEnvironmentVariableA@12 004c67a2 f   kernel32:KERNEL32.dll
 0001:000c57a8       _GetVersionExA@4           004c67a8 f   kernel32:KERNEL32.dll
 0001:000c57ae       _HeapDestroy@4             004c67ae f   kernel32:KERNEL32.dll
 0001:000c57b4       _HeapCreate@12             004c67b4 f   kernel32:KERNEL32.dll
 0001:000c57ba       _VirtualFree@12            004c67ba f   kernel32:KERNEL32.dll
 0001:000c57c0       _VirtualAlloc@16           004c67c0 f   kernel32:KERNEL32.dll
 0001:000c57c6       _IsBadWritePtr@8           004c67c6 f   kernel32:KERNEL32.dll
 0001:000c57cc       _WideCharToMultiByte@32    004c67cc f   kernel32:KERNEL32.dll
 0001:000c57d2       _MultiByteToWideChar@24    004c67d2 f   kernel32:KERNEL32.dll
 0001:000c57d8       _LCMapStringA@24           004c67d8 f   kernel32:KERNEL32.dll
 0001:000c57de       _LCMapStringW@24           004c67de f   kernel32:KERNEL32.dll
 0001:000c57e4       _UnhandledExceptionFilter@4 004c67e4 f   kernel32:KERNEL32.dll
 0001:000c57ea       _FreeEnvironmentStringsA@4 004c67ea f   kernel32:KERNEL32.dll
 0001:000c57f0       _FreeEnvironmentStringsW@4 004c67f0 f   kernel32:KERNEL32.dll
 0001:000c57f6       _GetEnvironmentStrings@0   004c67f6 f   kernel32:KERNEL32.dll
 0001:000c57fc       _GetEnvironmentStringsW@0  004c67fc f   kernel32:KERNEL32.dll
 0001:000c5802       _SetHandleCount@4          004c6802 f   kernel32:KERNEL32.dll
 0001:000c5808       _GetStdHandle@4            004c6808 f   kernel32:KERNEL32.dll
 0001:000c580e       _GetFileType@4             004c680e f   kernel32:KERNEL32.dll
 0001:000c5814       _GetStringTypeA@20         004c6814 f   kernel32:KERNEL32.dll
 0001:000c581a       _GetStringTypeW@16         004c681a f   kernel32:KERNEL32.dll
 0001:000c5820       _SetConsoleCtrlHandler@8   004c6820 f   kernel32:KERNEL32.dll
 0001:000c5826       _IsBadReadPtr@8            004c6826 f   kernel32:KERNEL32.dll
 0001:000c582c       _IsBadCodePtr@4            004c682c f   kernel32:KERNEL32.dll
 0001:000c5832       _SetStdHandle@8            004c6832 f   kernel32:KERNEL32.dll
 0001:000c5838       _CompareStringA@24         004c6838 f   kernel32:KERNEL32.dll
 0001:000c583e       _CompareStringW@24         004c683e f   kernel32:KERNEL32.dll
 0001:000c5844       _SetEnvironmentVariableA@8 004c6844 f   kernel32:KERNEL32.dll
 0001:000c584a       _IsValidLocale@8           004c684a f   kernel32:KERNEL32.dll
 0001:000c5850       _IsValidCodePage@4         004c6850 f   kernel32:KERNEL32.dll
 0001:000c5856       _GetLocaleInfoA@16         004c6856 f   kernel32:KERNEL32.dll
 0001:000c585c       _EnumSystemLocalesA@8      004c685c f   kernel32:KERNEL32.dll
 0001:000c5862       _GetUserDefaultLCID@0      004c6862 f   kernel32:KERNEL32.dll
 0001:000c5868       _GetLocaleInfoW@16         004c6868 f   kernel32:KERNEL32.dll
 0001:000c586e       _mkdir                     004c686e f   LIBCMT:mkdir.obj
 0001:000c586e       __mkdir                    004c686e f   LIBCMT:mkdir.obj
 0001:000c589a       __getpid                   004c689a f   LIBCMT:getpid.obj
 0001:000c589a       _getpid                    004c689a f   LIBCMT:getpid.obj
 0001:000c58a0       _remove                    004c68a0 f   LIBCMT:unlink.obj
 0001:000c58ca       __unlink                   004c68ca f   LIBCMT:unlink.obj
 0001:000c58ca       _unlink                    004c68ca f   LIBCMT:unlink.obj
 0001:000c58d6       _GetCurrentProcessId@0     004c68d6 f   kernel32:KERNEL32.dll
 0002:00000000       __imp_?LoadBuffer@KLuaScript@@QAEHPAEK@Z 004cc000     engine:Engine.dll
 0002:00000004       __imp_?ExecuteCode@KLuaScript@@QAEHXZ 004cc004     engine:Engine.dll
 0002:00000008       __imp_?Init@KLuaScript@@UAEHXZ 004cc008     engine:Engine.dll
 0002:0000000c       __imp_?RegisterFunctions@KLuaScript@@QAEHQAUTLua_Funcs@@H@Z 004cc00c     engine:Engine.dll
 0002:00000010       __imp_??1KLuaScript@@UAE@XZ 004cc010     engine:Engine.dll
 0002:00000014       __imp_??0KLuaScript@@QAE@XZ 004cc014     engine:Engine.dll
 0002:00000018       __imp_?KSG_StringToMD5String@@YAHQADQBD@Z 004cc018     engine:Engine.dll
 0002:0000001c       \177Engine_NULL_THUNK_DATA 004cc01c     engine:Engine.dll
 0002:00000020       __imp__LoadLibraryA@4      004cc020     kernel32:KERNEL32.dll
 0002:00000024       __imp__Sleep@4             004cc024     kernel32:KERNEL32.dll
 0002:00000028       __imp__CreateEventA@16     004cc028     kernel32:KERNEL32.dll
 0002:0000002c       __imp__CloseHandle@4       004cc02c     kernel32:KERNEL32.dll
 0002:00000030       __imp__TerminateThread@8   004cc030     kernel32:KERNEL32.dll
 0002:00000034       __imp__WaitForSingleObject@8 004cc034     kernel32:KERNEL32.dll
 0002:00000038       __imp__SetEvent@4          004cc038     kernel32:KERNEL32.dll
 0002:0000003c       __imp__InitializeCriticalSection@4 004cc03c     kernel32:KERNEL32.dll
 0002:00000040       __imp__DeleteCriticalSection@4 004cc040     kernel32:KERNEL32.dll
 0002:00000044       __imp__EnterCriticalSection@4 004cc044     kernel32:KERNEL32.dll
 0002:00000048       __imp__LeaveCriticalSection@4 004cc048     kernel32:KERNEL32.dll
 0002:0000004c       __imp__ResetEvent@4        004cc04c     kernel32:KERNEL32.dll
 0002:00000050       __imp__GetFileAttributesA@4 004cc050     kernel32:KERNEL32.dll
 0002:00000054       __imp__WriteFile@20        004cc054     kernel32:KERNEL32.dll
 0002:00000058       __imp__GetLocalTime@4      004cc058     kernel32:KERNEL32.dll
 0002:0000005c       __imp__GetFileSize@8       004cc05c     kernel32:KERNEL32.dll
 0002:00000060       __imp__CreateDirectoryA@8  004cc060     kernel32:KERNEL32.dll
 0002:00000064       __imp__CreateFileA@28      004cc064     kernel32:KERNEL32.dll
 0002:00000068       __imp__GetLocaleInfoW@16   004cc068     kernel32:KERNEL32.dll
 0002:0000006c       __imp__GetUserDefaultLCID@0 004cc06c     kernel32:KERNEL32.dll
 0002:00000070       __imp__EnumSystemLocalesA@8 004cc070     kernel32:KERNEL32.dll
 0002:00000074       __imp__GetLocaleInfoA@16   004cc074     kernel32:KERNEL32.dll
 0002:00000078       __imp__IsValidCodePage@4   004cc078     kernel32:KERNEL32.dll
 0002:0000007c       __imp__IsValidLocale@8     004cc07c     kernel32:KERNEL32.dll
 0002:00000080       __imp__SetEnvironmentVariableA@8 004cc080     kernel32:KERNEL32.dll
 0002:00000084       __imp__CompareStringW@24   004cc084     kernel32:KERNEL32.dll
 0002:00000088       __imp__GetProcAddress@8    004cc088     kernel32:KERNEL32.dll
 0002:0000008c       __imp__SetStdHandle@8      004cc08c     kernel32:KERNEL32.dll
 0002:00000090       __imp__IsBadCodePtr@4      004cc090     kernel32:KERNEL32.dll
 0002:00000094       __imp__IsBadReadPtr@8      004cc094     kernel32:KERNEL32.dll
 0002:00000098       __imp__SetConsoleCtrlHandler@8 004cc098     kernel32:KERNEL32.dll
 0002:0000009c       __imp__GetStringTypeW@16   004cc09c     kernel32:KERNEL32.dll
 0002:000000a0       __imp__GetStringTypeA@20   004cc0a0     kernel32:KERNEL32.dll
 0002:000000a4       __imp__GetFileType@4       004cc0a4     kernel32:KERNEL32.dll
 0002:000000a8       __imp__GetStdHandle@4      004cc0a8     kernel32:KERNEL32.dll
 0002:000000ac       __imp__SetHandleCount@4    004cc0ac     kernel32:KERNEL32.dll
 0002:000000b0       __imp__GetEnvironmentStringsW@0 004cc0b0     kernel32:KERNEL32.dll
 0002:000000b4       __imp__GetEnvironmentStrings@0 004cc0b4     kernel32:KERNEL32.dll
 0002:000000b8       __imp__FreeEnvironmentStringsW@4 004cc0b8     kernel32:KERNEL32.dll
 0002:000000bc       __imp__FreeEnvironmentStringsA@4 004cc0bc     kernel32:KERNEL32.dll
 0002:000000c0       __imp__UnhandledExceptionFilter@4 004cc0c0     kernel32:KERNEL32.dll
 0002:000000c4       __imp__LCMapStringW@24     004cc0c4     kernel32:KERNEL32.dll
 0002:000000c8       __imp__LCMapStringA@24     004cc0c8     kernel32:KERNEL32.dll
 0002:000000cc       __imp__MultiByteToWideChar@24 004cc0cc     kernel32:KERNEL32.dll
 0002:000000d0       __imp__WideCharToMultiByte@32 004cc0d0     kernel32:KERNEL32.dll
 0002:000000d4       __imp__IsBadWritePtr@8     004cc0d4     kernel32:KERNEL32.dll
 0002:000000d8       __imp__VirtualAlloc@16     004cc0d8     kernel32:KERNEL32.dll
 0002:000000dc       __imp__VirtualFree@12      004cc0dc     kernel32:KERNEL32.dll
 0002:000000e0       __imp__HeapCreate@12       004cc0e0     kernel32:KERNEL32.dll
 0002:000000e4       __imp__HeapDestroy@4       004cc0e4     kernel32:KERNEL32.dll
 0002:000000e8       __imp__GetVersionExA@4     004cc0e8     kernel32:KERNEL32.dll
 0002:000000ec       __imp__GetEnvironmentVariableA@12 004cc0ec     kernel32:KERNEL32.dll
 0002:000000f0       __imp__GetCurrentProcess@0 004cc0f0     kernel32:KERNEL32.dll
 0002:000000f4       __imp__TerminateProcess@8  004cc0f4     kernel32:KERNEL32.dll
 0002:000000f8       __imp__FreeLibrary@4       004cc0f8     kernel32:KERNEL32.dll
 0002:000000fc       __imp__GetPrivateProfileSectionNamesA@12 004cc0fc     kernel32:KERNEL32.dll
 0002:00000100       __imp__GetPrivateProfileSectionA@16 004cc100     kernel32:KERNEL32.dll
 0002:00000104       __imp__GetPrivateProfileIntA@16 004cc104     kernel32:KERNEL32.dll
 0002:00000108       __imp__GetPrivateProfileStringA@24 004cc108     kernel32:KERNEL32.dll
 0002:0000010c       __imp__GetModuleFileNameA@12 004cc10c     kernel32:KERNEL32.dll
 0002:00000110       __imp__CompareStringA@24   004cc110     kernel32:KERNEL32.dll
 0002:00000114       __imp__GetTickCount@0      004cc114     kernel32:KERNEL32.dll
 0002:00000118       __imp__GetLastError@0      004cc118     kernel32:KERNEL32.dll
 0002:0000011c       __imp__InterlockedDecrement@4 004cc11c     kernel32:KERNEL32.dll
 0002:00000120       __imp__InterlockedIncrement@4 004cc120     kernel32:KERNEL32.dll
 0002:00000124       __imp__InterlockedExchange@8 004cc124     kernel32:KERNEL32.dll
 0002:00000128       __imp__PulseEvent@4        004cc128     kernel32:KERNEL32.dll
 0002:0000012c       __imp__GetTempPathA@8      004cc12c     kernel32:KERNEL32.dll
 0002:00000130       __imp__GetFileInformationByHandle@8 004cc130     kernel32:KERNEL32.dll
 0002:00000134       __imp__FlushFileBuffers@4  004cc134     kernel32:KERNEL32.dll
 0002:00000138       __imp__SetEndOfFile@4      004cc138     kernel32:KERNEL32.dll
 0002:0000013c       __imp__SetFilePointer@16   004cc13c     kernel32:KERNEL32.dll
 0002:00000140       __imp__GetDiskFreeSpaceA@20 004cc140     kernel32:KERNEL32.dll
 0002:00000144       __imp__ReadFile@20         004cc144     kernel32:KERNEL32.dll
 0002:00000148       __imp__GetSystemInfo@4     004cc148     kernel32:KERNEL32.dll
 0002:0000014c       __imp__DeleteFileA@4       004cc14c     kernel32:KERNEL32.dll
 0002:00000150       __imp__MoveFileExA@12      004cc150     kernel32:KERNEL32.dll
 0002:00000154       __imp__MoveFileA@8         004cc154     kernel32:KERNEL32.dll
 0002:00000158       __imp__UnmapViewOfFile@4   004cc158     kernel32:KERNEL32.dll
 0002:0000015c       __imp__MapViewOfFile@20    004cc15c     kernel32:KERNEL32.dll
 0002:00000160       __imp__CreateFileMappingA@24 004cc160     kernel32:KERNEL32.dll
 0002:00000164       __imp__OpenFileMappingA@12 004cc164     kernel32:KERNEL32.dll
 0002:00000168       __imp__GetSystemTime@4     004cc168     kernel32:KERNEL32.dll
 0002:0000016c       __imp__GetVersion@0        004cc16c     kernel32:KERNEL32.dll
 0002:00000170       __imp__OutputDebugStringA@4 004cc170     kernel32:KERNEL32.dll
 0002:00000174       __imp__RtlUnwind@16        004cc174     kernel32:KERNEL32.dll
 0002:00000178       __imp__RaiseException@16   004cc178     kernel32:KERNEL32.dll
 0002:0000017c       __imp__HeapFree@12         004cc17c     kernel32:KERNEL32.dll
 0002:00000180       __imp__HeapAlloc@12        004cc180     kernel32:KERNEL32.dll
 0002:00000184       __imp__CreateThread@24     004cc184     kernel32:KERNEL32.dll
 0002:00000188       __imp__GetCurrentThreadId@0 004cc188     kernel32:KERNEL32.dll
 0002:0000018c       __imp__TlsSetValue@8       004cc18c     kernel32:KERNEL32.dll
 0002:00000190       __imp__TlsGetValue@4       004cc190     kernel32:KERNEL32.dll
 0002:00000194       __imp__ExitThread@4        004cc194     kernel32:KERNEL32.dll
 0002:00000198       __imp__HeapSize@12         004cc198     kernel32:KERNEL32.dll
 0002:0000019c       __imp__GetTimeZoneInformation@4 004cc19c     kernel32:KERNEL32.dll
 0002:000001a0       __imp__GetModuleHandleA@4  004cc1a0     kernel32:KERNEL32.dll
 0002:000001a4       __imp__GetStartupInfoA@4   004cc1a4     kernel32:KERNEL32.dll
 0002:000001a8       __imp__GetCommandLineA@0   004cc1a8     kernel32:KERNEL32.dll
 0002:000001ac       __imp__ExitProcess@4       004cc1ac     kernel32:KERNEL32.dll
 0002:000001b0       __imp__HeapReAlloc@16      004cc1b0     kernel32:KERNEL32.dll
 0002:000001b4       __imp__GetSystemTimeAsFileTime@4 004cc1b4     kernel32:KERNEL32.dll
 0002:000001b8       __imp__GetCurrentDirectoryA@8 004cc1b8     kernel32:KERNEL32.dll
 0002:000001bc       __imp__GetFullPathNameA@16 004cc1bc     kernel32:KERNEL32.dll
 0002:000001c0       __imp__GetDriveTypeA@4     004cc1c0     kernel32:KERNEL32.dll
 0002:000001c4       __imp__FindFirstFileA@8    004cc1c4     kernel32:KERNEL32.dll
 0002:000001c8       __imp__FindNextFileA@8     004cc1c8     kernel32:KERNEL32.dll
 0002:000001cc       __imp__FindClose@4         004cc1cc     kernel32:KERNEL32.dll
 0002:000001d0       __imp__FileTimeToSystemTime@8 004cc1d0     kernel32:KERNEL32.dll
 0002:000001d4       __imp__FileTimeToLocalFileTime@8 004cc1d4     kernel32:KERNEL32.dll
 0002:000001d8       __imp__TlsAlloc@0          004cc1d8     kernel32:KERNEL32.dll
 0002:000001dc       __imp__TlsFree@4           004cc1dc     kernel32:KERNEL32.dll
 0002:000001e0       __imp__SetLastError@4      004cc1e0     kernel32:KERNEL32.dll
 0002:000001e4       __imp__GetCurrentThread@0  004cc1e4     kernel32:KERNEL32.dll
 0002:000001e8       __imp__FatalAppExitA@8     004cc1e8     kernel32:KERNEL32.dll
 0002:000001ec       __imp__GetCPInfo@8         004cc1ec     kernel32:KERNEL32.dll
 0002:000001f0       __imp__GetACP@0            004cc1f0     kernel32:KERNEL32.dll
 0002:000001f4       __imp__GetOEMCP@0          004cc1f4     kernel32:KERNEL32.dll
 0002:000001f8       __imp__SetUnhandledExceptionFilter@4 004cc1f8     kernel32:KERNEL32.dll
 0002:000001fc       __imp__GetCurrentProcessId@0 004cc1fc     kernel32:KERNEL32.dll
 0002:00000200       \177KERNEL32_NULL_THUNK_DATA 004cc200     kernel32:KERNEL32.dll
 0002:00000204       __imp__lua_pushstring      004cc204     lualibdll:LuaLibDll.dll
 0002:00000208       __imp__lua_tonumber        004cc208     lualibdll:LuaLibDll.dll
 0002:0000020c       __imp__lua_gettop          004cc20c     lualibdll:LuaLibDll.dll
 0002:00000210       __imp__lua_tostring        004cc210     lualibdll:LuaLibDll.dll
 0002:00000214       \177LuaLibDll_NULL_THUNK_DATA 004cc214     lualibdll:LuaLibDll.dll
 0002:00000218       __imp__SendMessageA@16     004cc218     user32:USER32.dll
 0002:0000021c       __imp__KillTimer@8         004cc21c     user32:USER32.dll
 0002:00000220       __imp__GetDlgItemTextA@16  004cc220     user32:USER32.dll
 0002:00000224       __imp__EndDialog@8         004cc224     user32:USER32.dll
 0002:00000228       __imp__BeginPaint@8        004cc228     user32:USER32.dll
 0002:0000022c       __imp__EndPaint@8          004cc22c     user32:USER32.dll
 0002:00000230       __imp__MoveWindow@24       004cc230     user32:USER32.dll
 0002:00000234       __imp__PostQuitMessage@4   004cc234     user32:USER32.dll
 0002:00000238       __imp__DestroyWindow@4     004cc238     user32:USER32.dll
 0002:0000023c       __imp__DefWindowProcA@16   004cc23c     user32:USER32.dll
 0002:00000240       __imp__CreateWindowExA@48  004cc240     user32:USER32.dll
 0002:00000244       __imp__SetTimer@16         004cc244     user32:USER32.dll
 0002:00000248       __imp__ShowWindow@8        004cc248     user32:USER32.dll
 0002:0000024c       __imp__UpdateWindow@4      004cc24c     user32:USER32.dll
 0002:00000250       __imp__GetClientRect@8     004cc250     user32:USER32.dll
 0002:00000254       __imp__LoadIconA@8         004cc254     user32:USER32.dll
 0002:00000258       __imp__LoadCursorA@8       004cc258     user32:USER32.dll
 0002:0000025c       __imp__RegisterClassExA@4  004cc25c     user32:USER32.dll
 0002:00000260       __imp__DialogBoxParamA@20  004cc260     user32:USER32.dll
 0002:00000264       __imp__MessageBoxA@16      004cc264     user32:USER32.dll
 0002:00000268       __imp__LoadStringA@16      004cc268     user32:USER32.dll
 0002:0000026c       __imp__LoadAcceleratorsA@8 004cc26c     user32:USER32.dll
 0002:00000270       __imp__GetMessageA@16      004cc270     user32:USER32.dll
 0002:00000274       __imp__TranslateAcceleratorA@12 004cc274     user32:USER32.dll
 0002:00000278       __imp__TranslateMessage@4  004cc278     user32:USER32.dll
 0002:0000027c       __imp__DispatchMessageA@4  004cc27c     user32:USER32.dll
 0002:00000280       __imp__PostMessageA@16     004cc280     user32:USER32.dll
 0002:00000284       \177USER32_NULL_THUNK_DATA 004cc284     user32:USER32.dll
 0002:00000288       __imp__inet_ntoa@4         004cc288     Ws2_32:WS2_32.dll
 0002:0000028c       __imp__inet_addr@4         004cc28c     Ws2_32:WS2_32.dll
 0002:00000290       \177WS2_32_NULL_THUNK_DATA 004cc290     Ws2_32:WS2_32.dll
 0002:0000036c       ??_7CChannelMgr@@6B@       004cc36c     ChannelMgr.obj
 0002:00000370       ??_7CNetConnectDup@@6B@    004cc370     ChannelMgr.obj
 0002:00000374       ??_7CChatConnect@@6BIMessageProcess@@@ 004cc374     ChatConnect.obj
 0002:00000378       ??_7CChatConnect@@6BKThread@@@ 004cc378     ChatConnect.obj
 0002:000003a0       ??_7CChatServer@@6B@       004cc3a0     ChatServer.obj
 0002:000003bc       ??_7CDBCenter@@6B@         004cc3bc     DBConnect.obj
 0002:000003d0       ??_7CDBClient@@6B@         004cc3d0     DBConnect.obj
 0002:00000404       ??_7ZDBTable@@6B@          004cc404     DBTable.obj
 0002:00000408       ??_7CDBTableReadOnly@@6B@  004cc408     DBTable.obj
 0002:0000040c       ??_7CNetClientDup@@6B@     004cc40c     DealRelay.obj
 0002:00000464       ??_7CFriendMgr@@6B@        004cc464     FriendMgr.obj
 0002:00000468       ??_7CGatewayCenter@@6B@    004cc468     GatewayCenter.obj
 0002:0000047c       ??_7CGatewayClient@@6B@    004cc47c     GatewayClient.obj
 0002:00000544       ??_7CHeavenLib@@6B@        004cc544     HeavenLib.obj
 0002:00000548       ??_7CHostConnect@@6BIMessageProcess@@@ 004cc548     HostConnect.obj
 0002:0000054c       ??_7CHostConnect@@6BKThread@@@ 004cc54c     HostConnect.obj
 0002:0000057c       ??_7CHostServer@@6B@       004cc57c     HostServer.obj
 0002:00000598       ??_7KThread@@6B@           004cc598     KThread.obj
 0002:000005ac       ??_7CLockSRSW@@6B@         004cc5ac     Lock.obj
 0002:000005c0       ??_7ALock@@6B@             004cc5c0     Lock.obj
 0002:000005d4       ??_7CLockMRSW@@6B@         004cc5d4     Lock.obj
 0002:000005f4       ??_7CLogFile@@6B@          004cc5f4     LogFile.obj
 0002:000005f8       ??_7CMemory@@6B@           004cc5f8     Memory.obj
 0002:000005fc       ??_7CNetCenter@@6B@        004cc5fc     NetCenter.obj
 0002:00000610       ??_7CNetClient@@6B@        004cc610     NetClient.obj
 0002:00000644       ??_7CNetConnect@@6BIMessageProcess@@@ 004cc644     NetConnect.obj
 0002:00000648       ??_7CNetConnect@@6BKThread@@@ 004cc648     NetConnect.obj
 0002:00000670       ??_7IMessageProcess@@6B@   004cc670     NetConnect.obj
 0002:00000674       ??_7CNetServer@@6B@        004cc674     NetServer.obj
 0002:00000690       ??_7CNetSockDupEx@@6B@     004cc690     NetSockDupEx.obj
 0002:00000694       ??_7CRainbowLib@@6B@       004cc694     RainbowLib.obj
 0002:00000698       ??_7CRelayCenter@@6B@      004cc698     RelayCenter.obj
 0002:000006ac       ??_7CRelayClient@@6B@      004cc6ac     RelayClient.obj
 0002:000006e0       ??_7CRelayConnect@@6BIMessageProcess@@@ 004cc6e0     RelayConnect.obj
 0002:000006e4       ??_7CRelayConnect@@6BKThread@@@ 004cc6e4     RelayConnect.obj
 0002:0000070c       ??_7CRelayServer@@6B@      004cc70c     RelayServer.obj
 0002:00000728       ??_7CRootCenter@@6B@       004cc728     RootCenter.obj
 0002:0000073c       ??_7CRootClient@@6B@       004cc73c     RootClient.obj
 0002:00000770       _IID_IIOCPServer           004cc770     S3Relay.obj
 0002:00000780       _IID_IServerFactory        004cc780     S3Relay.obj
 0002:00000790       _IID_IESClient             004cc790     S3Relay.obj
 0002:000007a0       _IID_IClientFactory        004cc7a0     S3Relay.obj
 0002:000007bc       ??_7CSockThread@@6B@       004cc7bc     SockThread.obj
 0002:000007e0       ??_7CTongConnect@@6BIMessageProcess@@@ 004cc7e0     TongConnect.obj
 0002:000007e4       ??_7CTongConnect@@6BKThread@@@ 004cc7e4     TongConnect.obj
 0002:0000080c       ??_7CTongServer@@6B@       004cc80c     TongServer.obj
 0002:00000828       ??_7CTongControl@@6B@      004cc828     KTongControl.obj
 0002:0000082c       ??_7CTongSet@@6B@          004cc82c     KTongSet.obj
 0002:00000830       ??_7CTongDB@@6B@           004cc830     TONGDB.OBJ
 0002:000015c0       __real@8@c0048400000000000000 004cd5c0     libdb41s:env_recover.obj
 0002:000015c8       __real@8@00000000000000000000 004cd5c8     libdb41s:env_recover.obj
 0002:000015d0       __real@8@40048400000000000000 004cd5d0     libdb41s:env_recover.obj
 0002:00002a58       __real@8@3fff8000000000000000 004cea58     libdb41s:bt_stat.obj
 0002:00002ec4       ??_7range_error@_STL@@6B@  004ceec4     stlport_vc6_static:dll_main.obj
 0002:00002ed0       ??_7runtime_error@_STL@@6B@ 004ceed0     stlport_vc6_static:dll_main.obj
 0002:00002edc       ??_7__Named_exception@_STL@@6B@ 004ceedc     stlport_vc6_static:dll_main.obj
 0002:00002ee8       ??_7out_of_range@_STL@@6B@ 004ceee8     stlport_vc6_static:dll_main.obj
 0002:00002ef4       ??_7logic_error@_STL@@6B@  004ceef4     stlport_vc6_static:dll_main.obj
 0002:00002f00       ??_7length_error@_STL@@6B@ 004cef00     stlport_vc6_static:dll_main.obj
 0002:00002f0c       ??_7invalid_argument@_STL@@6B@ 004cef0c     stlport_vc6_static:dll_main.obj
 0002:00002f18       ??_7overflow_error@_STL@@6B@ 004cef18     stlport_vc6_static:dll_main.obj
 0002:00002f24       ??_7domain_error@_STL@@6B@ 004cef24     stlport_vc6_static:dll_main.obj
 0002:00002f30       ??_7underflow_error@_STL@@6B@ 004cef30     stlport_vc6_static:dll_main.obj
 0002:00002f3c       ??_7bad_alloc@std@@6B@     004cef3c     stlport_vc6_static:dll_main.obj
 0002:00002fa8       ??_7type_info@@6B@         004cefa8     LIBCMT:typinfo.obj
 0002:00002ff0       ??_C@_07CJME@H?3mm?3ss?$AA@ 004ceff0     LIBCMT:strftime.obj
 0002:00002ff8       ??_C@_0BE@MHI@dddd?0?5MMMM?5dd?0?5yyyy?$AA@ 004ceff8     LIBCMT:strftime.obj
 0002:0000300c       ??_C@_06HCAD@M?1d?1yy?$AA@ 004cf00c     LIBCMT:strftime.obj
 0002:00003014       ??_C@_02DBLP@PM?$AA@       004cf014     LIBCMT:strftime.obj
 0002:00003018       ??_C@_02ENLM@AM?$AA@       004cf018     LIBCMT:strftime.obj
 0002:0000301c       ??_C@_08LIDF@December?$AA@ 004cf01c     LIBCMT:strftime.obj
 0002:00003028       ??_C@_08NJLI@November?$AA@ 004cf028     LIBCMT:strftime.obj
 0002:00003034       ??_C@_07IAMM@October?$AA@  004cf034     LIBCMT:strftime.obj
 0002:0000303c       ??_C@_09MKGD@September?$AA@ 004cf03c     LIBCMT:strftime.obj
 0002:00003048       ??_C@_06PADP@August?$AA@   004cf048     LIBCMT:strftime.obj
 0002:00003050       ??_C@_04PIJO@July?$AA@     004cf050     LIBCMT:strftime.obj
 0002:00003058       ??_C@_04ICFP@June?$AA@     004cf058     LIBCMT:strftime.obj
 0002:00003060       ??_C@_05JFGC@April?$AA@    004cf060     LIBCMT:strftime.obj
 0002:00003068       ??_C@_05FGPD@March?$AA@    004cf068     LIBCMT:strftime.obj
 0002:00003070       ??_C@_08PGBA@February?$AA@ 004cf070     LIBCMT:strftime.obj
 0002:0000307c       ??_C@_07BPKJ@January?$AA@  004cf07c     LIBCMT:strftime.obj
 0002:00003084       ??_C@_03PGJO@Dec?$AA@      004cf084     LIBCMT:strftime.obj
 0002:00003088       ??_C@_03PDLM@Nov?$AA@      004cf088     LIBCMT:strftime.obj
 0002:0000308c       ??_C@_03BLHK@Oct?$AA@      004cf08c     LIBCMT:strftime.obj
 0002:00003090       ??_C@_03DPFM@Sep?$AA@      004cf090     LIBCMT:strftime.obj
 0002:00003094       ??_C@_03CMCH@Aug?$AA@      004cf094     LIBCMT:strftime.obj
 0002:00003098       ??_C@_03OBKI@Jul?$AA@      004cf098     LIBCMT:strftime.obj
 0002:0000309c       ??_C@_03LEIG@Jun?$AA@      004cf09c     LIBCMT:strftime.obj
 0002:000030a0       ??_C@_03MGHB@May?$AA@      004cf0a0     LIBCMT:strftime.obj
 0002:000030a4       ??_C@_03MJJM@Apr?$AA@      004cf0a4     LIBCMT:strftime.obj
 0002:000030a8       ??_C@_03GNHA@Mar?$AA@      004cf0a8     LIBCMT:strftime.obj
 0002:000030ac       ??_C@_03PICE@Feb?$AA@      004cf0ac     LIBCMT:strftime.obj
 0002:000030b0       ??_C@_03IEIF@Jan?$AA@      004cf0b0     LIBCMT:strftime.obj
 0002:000030b4       ??_C@_08FAKH@Saturday?$AA@ 004cf0b4     LIBCMT:strftime.obj
 0002:000030c0       ??_C@_06ONCK@Friday?$AA@   004cf0c0     LIBCMT:strftime.obj
 0002:000030c8       ??_C@_08CCFO@Thursday?$AA@ 004cf0c8     LIBCMT:strftime.obj
 0002:000030d4       ??_C@_09PBIN@Wednesday?$AA@ 004cf0d4     LIBCMT:strftime.obj
 0002:000030e0       ??_C@_07BMBC@Tuesday?$AA@  004cf0e0     LIBCMT:strftime.obj
 0002:000030e8       ??_C@_06CHLK@Monday?$AA@   004cf0e8     LIBCMT:strftime.obj
 0002:000030f0       ??_C@_06OOEM@Sunday?$AA@   004cf0f0     LIBCMT:strftime.obj
 0002:000030f8       ??_C@_03MPKK@Sat?$AA@      004cf0f8     LIBCMT:strftime.obj
 0002:000030fc       ??_C@_03FINJ@Fri?$AA@      004cf0fc     LIBCMT:strftime.obj
 0002:00003100       ??_C@_03HIKC@Thu?$AA@      004cf100     LIBCMT:strftime.obj
 0002:00003104       ??_C@_03HECK@Wed?$AA@      004cf104     LIBCMT:strftime.obj
 0002:00003108       ??_C@_03ECCP@Tue?$AA@      004cf108     LIBCMT:strftime.obj
 0002:0000310c       ??_C@_03PIEP@Mon?$AA@      004cf10c     LIBCMT:strftime.obj
 0002:00003110       ??_C@_03FHEP@Sun?$AA@      004cf110     LIBCMT:strftime.obj
